
build/rpi3/debug/bl31/bl31.elf:     file format elf64-littleaarch64
build/rpi3/debug/bl31/bl31.elf
architecture: aarch64, flags 0x00000112:
EXEC_P, HAS_SYMS, D_PAGED
start address 0x00000000100e0000

Program Header:
    LOAD off    0x0000000000010000 vaddr 0x00000000100e0000 paddr 0x00000000100e0000 align 2**16
         filesz 0x000000000000a078 memsz 0x0000000000015000 flags rwx
   STACK off    0x0000000000000000 vaddr 0x0000000000000000 paddr 0x0000000000000000 align 2**4
         filesz 0x0000000000000000 memsz 0x0000000000000000 flags rw-
private flags = 0:

Sections:
Idx Name          Size      VMA               LMA               File off  Algn
  0 .text         00008000  00000000100e0000  00000000100e0000  00010000  2**11
                  CONTENTS, ALLOC, LOAD, READONLY, CODE
  1 .rodata       00002000  00000000100e8000  00000000100e8000  00018000  2**3
                  CONTENTS, ALLOC, LOAD, DATA
  2 .data         00000078  00000000100ea000  00000000100ea000  0001a000  2**3
                  CONTENTS, ALLOC, LOAD, DATA
  3 stacks        00004000  00000000100ea080  00000000100ea080  0001a078  2**6
                  ALLOC
  4 .bss          00001910  00000000100ee080  00000000100ee080  0001a078  2**6
                  ALLOC
  5 xlat_table    00004000  00000000100f0000  00000000100f0000  0001a078  2**12
                  ALLOC
  6 coherent_ram  00001000  00000000100f4000  00000000100f4000  0001a078  2**12
                  ALLOC
  7 .debug_info   0001fed8  0000000000000000  0000000000000000  0001a078  2**0
                  CONTENTS, READONLY, DEBUGGING
  8 .debug_abbrev 0000763d  0000000000000000  0000000000000000  00039f50  2**0
                  CONTENTS, READONLY, DEBUGGING
  9 .debug_aranges 00002030  0000000000000000  0000000000000000  00041590  2**4
                  CONTENTS, READONLY, DEBUGGING
 10 .debug_line   0000d4cf  0000000000000000  0000000000000000  000435c0  2**0
                  CONTENTS, READONLY, DEBUGGING
 11 .debug_str    00004562  0000000000000000  0000000000000000  00050a8f  2**0
                  CONTENTS, READONLY, DEBUGGING
 12 .comment      0000005a  0000000000000000  0000000000000000  00054ff1  2**0
                  CONTENTS, READONLY
 13 .debug_loc    0001c024  0000000000000000  0000000000000000  0005504b  2**0
                  CONTENTS, READONLY, DEBUGGING
 14 .debug_ranges 000041c0  0000000000000000  0000000000000000  00071070  2**4
                  CONTENTS, READONLY, DEBUGGING
 15 .debug_frame  00000d90  0000000000000000  0000000000000000  00075230  2**3
                  CONTENTS, READONLY, DEBUGGING
SYMBOL TABLE:
00000000100e0000 l    d  .text	0000000000000000 .text
00000000100e8000 l    d  .rodata	0000000000000000 .rodata
00000000100ea000 l    d  .data	0000000000000000 .data
00000000100ea080 l    d  stacks	0000000000000000 stacks
00000000100ee080 l    d  .bss	0000000000000000 .bss
00000000100f0000 l    d  xlat_table	0000000000000000 xlat_table
00000000100f4000 l    d  coherent_ram	0000000000000000 coherent_ram
0000000000000000 l    d  .debug_info	0000000000000000 .debug_info
0000000000000000 l    d  .debug_abbrev	0000000000000000 .debug_abbrev
0000000000000000 l    d  .debug_aranges	0000000000000000 .debug_aranges
0000000000000000 l    d  .debug_line	0000000000000000 .debug_line
0000000000000000 l    d  .debug_str	0000000000000000 .debug_str
0000000000000000 l    d  .comment	0000000000000000 .comment
0000000000000000 l    d  .debug_loc	0000000000000000 .debug_loc
0000000000000000 l    d  .debug_ranges	0000000000000000 .debug_ranges
0000000000000000 l    d  .debug_frame	0000000000000000 .debug_frame
0000000000000000 l    df *ABS*	0000000000000000 ./build/rpi3/debug/bl31/bl31_entrypoint.o
0000000000000000 l    df *ABS*	0000000000000000 plat_psci_common.c
0000000000000000 l    df *ABS*	0000000000000000 rpi3_bl31_setup.c
00000000100ee080 l     O .bss	0000000000000058 bl32_image_ep_info
00000000100ee0d8 l     O .bss	0000000000000058 bl33_image_ep_info
00000000100e8110 l     O .rodata	000000000000001b __func__.2210
0000000000000000 l    df *ABS*	0000000000000000 rpi3_pm.c
00000000100e0440 l     F .text	0000000000000004 rpi3_pwr_domain_off
00000000100e0444 l     F .text	0000000000000050 rpi3_watchdog_reset
00000000100e0494 l     F .text	0000000000000018 rpi3_system_reset
00000000100e04ac l     F .text	0000000000000034 rpi3_system_off
00000000100e04e0 l     F .text	000000000000005c rpi3_validate_power_state
00000000100e053c l     F .text	0000000000000028 rpi3_pwr_domain_on_finish
00000000100e0564 l     F .text	0000000000000030 rpi3_cpu_standby
00000000100e0594 l     F .text	000000000000004c rpi3_pwr_domain_on
00000000100e81b0 l     O .rodata	00000000000000a8 plat_rpi3_psci_pm_ops
00000000100e8258 l     O .rodata	0000000000000010 rpi3_pm_idle_states
0000000000000000 l    df *ABS*	0000000000000000 rpi3_topology.c
00000000100ea000 l     O .data	0000000000000002 power_domain_tree_desc
0000000000000000 l    df *ABS*	0000000000000000 fdt.c
00000000100e063c l     F .text	0000000000000008 fdt32_to_cpu
0000000000000000 l    df *ABS*	0000000000000000 fdt_ro.c
00000000100e06cc l     F .text	0000000000000008 fdt32_to_cpu
00000000100e06d4 l     F .text	0000000000000008 fdt64_to_cpu
0000000000000000 l    df *ABS*	0000000000000000 fdt_rw.c
00000000100e0788 l     F .text	0000000000000008 fdt32_to_cpu
00000000100e0788 l     F .text	0000000000000008 cpu_to_fdt32
00000000100e0790 l     F .text	0000000000000008 cpu_to_fdt64
00000000100e0798 l     F .text	0000000000000080 fdt_blocks_misordered_
00000000100e0818 l     F .text	0000000000000074 fdt_rw_check_header_
00000000100e088c l     F .text	000000000000009c fdt_splice_
00000000100e0928 l     F .text	0000000000000074 fdt_splice_mem_rsv_
0000000000000000 l    df *ABS*	0000000000000000 bl31_main.c
00000000100ee130 l     O .bss	0000000000000008 bl32_init
00000000100ea004 l     O .data	0000000000000004 next_image_type
00000000100e8370 l     O .rodata	000000000000001e __func__.2970
00000000100e8390 l     O .rodata	0000000000000010 psci_args.2945
0000000000000000 l    df *ABS*	0000000000000000 interrupt_mgmt.c
00000000100e0c54 l     F .text	0000000000000084 set_scr_el3_from_rm
00000000100ee138 l     O .bss	0000000000000048 intr_type_descs
0000000000000000 l    df *ABS*	0000000000000000 bl31_context_mgmt.c
0000000000000000 l    df *ABS*	0000000000000000 runtime_svc.c
00000000100e8434 l     O .rodata	0000000000000011 __func__.1382
0000000000000000 l    df *ABS*	0000000000000000 arm_arch_svc_setup.c
00000000100e1094 l     F .text	0000000000000098 arm_arch_svc_smc_handler
00000000100e9278 l     O .rodata	0000000000000020 __svc_desc_arm_arch_svc
0000000000000000 l    df *ABS*	0000000000000000 std_svc_setup.c
00000000100e112c l     F .text	00000000000000bc std_svc_smc_handler
00000000100e11e8 l     F .text	0000000000000038 std_svc_setup
00000000100e9298 l     O .rodata	0000000000000020 __svc_desc_std_svc
0000000000000000 l    df *ABS*	0000000000000000 context_mgmt.c
0000000000000000 l    df *ABS*	0000000000000000 errata_report.c
0000000000000000 l    df *ABS*	0000000000000000 psci_off.c
0000000000000000 l    df *ABS*	0000000000000000 psci_on.c
0000000000000000 l    df *ABS*	0000000000000000 psci_suspend.c
0000000000000000 l    df *ABS*	0000000000000000 psci_common.c
00000000100ee180 l     O .bss	0000000000000004 psci_req_local_pwr_states
00000000100e86bd l     O .rodata	0000000000000019 __func__.3208
00000000100e86d8 l     O .rodata	0000000000000018 psci_state_type_str.3222
0000000000000000 l    df *ABS*	0000000000000000 psci_main.c
00000000100e8784 l     O .rodata	0000000000000011 __func__.2987
0000000000000000 l    df *ABS*	0000000000000000 psci_setup.c
00000000100ee190 l     O .bss	0000000000000940 psci_ns_context
0000000000000000 l    df *ABS*	0000000000000000 psci_system_off.c
0000000000000000 l    df *ABS*	0000000000000000 psci_mem_protect.c
0000000000000000 l    df *ABS*	0000000000000000 bakery_lock_coherent.c
0000000000000000 l    df *ABS*	0000000000000000 spe.c
00000000100e3474 l     F .text	0000000000000030 spe_drain_buffers_hook
0000000000000000 l    df *ABS*	0000000000000000 sve.c
00000000100e34fc l     F .text	000000000000003c disable_sve_hook
00000000100e3538 l     F .text	000000000000003c enable_sve_hook
0000000000000000 l    df *ABS*	0000000000000000 opteed_common.c
0000000000000000 l    df *ABS*	0000000000000000 opteed_main.c
00000000100e3770 l     F .text	0000000000000244 opteed_smc_handler
00000000100e3a3c l     F .text	00000000000000c8 opteed_sel1_interrupt_handler
00000000100e39b4 l     F .text	0000000000000088 opteed_setup
00000000100e3b04 l     F .text	0000000000000060 opteed_init
00000000100e88f2 l     O .rodata	0000000000000013 __func__.2967
00000000100e92b8 l     O .rodata	0000000000000020 __svc_desc_opteed_std
00000000100e92d8 l     O .rodata	0000000000000020 __svc_desc_opteed_fast
0000000000000000 l    df *ABS*	0000000000000000 opteed_pm.c
00000000100e3b64 l     F .text	0000000000000004 opteed_cpu_on_handler
00000000100e3b68 l     F .text	0000000000000008 opteed_cpu_migrate_info
00000000100e3b70 l     F .text	000000000000007c opteed_system_reset
00000000100e3bec l     F .text	000000000000007c opteed_system_off
00000000100e3c68 l     F .text	00000000000000bc opteed_cpu_suspend_finish_handler
00000000100e3d24 l     F .text	00000000000000bc opteed_cpu_suspend_handler
00000000100e3de0 l     F .text	00000000000000b0 opteed_cpu_off_handler
00000000100e3e90 l     F .text	00000000000000cc opteed_cpu_on_finish_handler
00000000100e8925 l     O .rodata	0000000000000017 __func__.2854
00000000100e893c l     O .rodata	000000000000001b __func__.2861
00000000100e8957 l     O .rodata	000000000000001d __func__.2869
00000000100e8974 l     O .rodata	0000000000000022 __func__.2876
0000000000000000 l    df *ABS*	0000000000000000 bl_common.c
0000000000000000 l    df *ABS*	0000000000000000 tf_log.c
00000000100ea008 l     O .data	0000000000000004 max_log_level
0000000000000000 l    df *ABS*	0000000000000000 multi_console.c
0000000000000000 l    df *ABS*	0000000000000000 plat_log_common.c
00000000100e8a70 l     O .rodata	0000000000000028 plat_prefix_str
0000000000000000 l    df *ABS*	0000000000000000 plat_common.c
00000000100e8af4 l     O .rodata	0000000000000010 __func__.2711
0000000000000000 l    df *ABS*	0000000000000000 backtrace.c
00000000100e42e4 l     F .text	0000000000000040 is_address_readable
00000000100e4324 l     F .text	0000000000000054 is_valid_object.constprop.0
0000000000000000 l    df *ABS*	0000000000000000 rpi3_common.c
00000000100eead0 l     O .bss	0000000000000030 rpi3_console
00000000100e8c1e l     O .rodata	0000000000000012 __func__.2426
00000000100e8c30 l     O .rodata	00000000000000c8 plat_rpi3_mmap
0000000000000000 l    df *ABS*	0000000000000000 xlat_tables_arch.c
00000000100e8d28 l     O .rodata	000000000000001c pa_range_bits_arr
0000000000000000 l    df *ABS*	0000000000000000 xlat_tables_context.c
00000000100eeb00 l     O .bss	0000000000000020 tf_base_xlat_table
00000000100eeb20 l     O .bss	0000000000000168 tf_mmap
00000000100ea010 l     O .data	0000000000000060 tf_xlat_ctx
00000000100f0000 l     O xlat_table	0000000000004000 tf_xlat_tables
0000000000000000 l    df *ABS*	0000000000000000 xlat_tables_core.c
00000000100e4a14 l     F .text	0000000000000040 xlat_clean_dcache_range
00000000100e4b58 l     F .text	0000000000000274 xlat_tables_map_region
00000000100e8e0d l     O .rodata	0000000000000015 __func__.2543
0000000000000000 l    df *ABS*	0000000000000000 xlat_tables_utils.c
0000000000000000 l    df *ABS*	0000000000000000 ./build/rpi3/debug/bl31/cortex_a53.o
0000000000000008 l       *ABS*	0000000000000000 CPU_MIDR_SIZE
0000000000000008 l       *ABS*	0000000000000000 CPU_EXTRA1_FUNC_SIZE
0000000000000008 l       *ABS*	0000000000000000 CPU_EXTRA2_FUNC_SIZE
0000000000000008 l       *ABS*	0000000000000000 CPU_E_HANDLER_FUNC_SIZE
0000000000000008 l       *ABS*	0000000000000000 CPU_RESET_FUNC_SIZE
0000000000000010 l       *ABS*	0000000000000000 CPU_PWR_DWN_OPS_SIZE
0000000000000008 l       *ABS*	0000000000000000 CPU_ERRATA_FUNC_SIZE
0000000000000008 l       *ABS*	0000000000000000 CPU_ERRATA_LOCK_SIZE
0000000000000008 l       *ABS*	0000000000000000 CPU_ERRATA_PRINTED_SIZE
0000000000000008 l       *ABS*	0000000000000000 CPU_REG_DUMP_SIZE
0000000000000000 l       *ABS*	0000000000000000 CPU_MIDR
0000000000000008 l       *ABS*	0000000000000000 CPU_RESET_FUNC
0000000000000010 l       *ABS*	0000000000000000 CPU_EXTRA1_FUNC
0000000000000018 l       *ABS*	0000000000000000 CPU_EXTRA2_FUNC
0000000000000020 l       *ABS*	0000000000000000 CPU_E_HANDLER_FUNC
0000000000000028 l       *ABS*	0000000000000000 CPU_PWR_DWN_OPS
0000000000000038 l       *ABS*	0000000000000000 CPU_ERRATA_FUNC
0000000000000040 l       *ABS*	0000000000000000 CPU_ERRATA_LOCK
0000000000000048 l       *ABS*	0000000000000000 CPU_ERRATA_PRINTED
0000000000000050 l       *ABS*	0000000000000000 CPU_REG_DUMP
0000000000000058 l       *ABS*	0000000000000000 CPU_OPS_SIZE
00000000100e5254 l     F .text	0000000000000014 cortex_a53_disable_dcache
00000000100e5268 l     F .text	0000000000000018 cortex_a53_disable_smp
00000000100e5280 l     F .text	0000000000000008 check_errata_819472
00000000100e5288 l     F .text	0000000000000008 check_errata_824069
00000000100e5290 l     F .text	0000000000000020 errata_a53_826319_wa
00000000100e52b0 l     F .text	0000000000000008 check_errata_826319
00000000100e52b8 l     F .text	0000000000000008 check_errata_827319
00000000100e52c0 l     F .text	000000000000001c a53_disable_non_temporal_hint
00000000100e52dc l     F .text	0000000000000008 check_errata_disable_non_temporal_hint
00000000100e52e4 l     F .text	000000000000001c errata_a53_855873_wa
00000000100e5300 l     F .text	0000000000000008 check_errata_855873
00000000100e5308 l     F .text	0000000000000024 check_errata_835769
00000000100e5324 l       .text	0000000000000000 errata_not_applies
00000000100e5328 l       .text	0000000000000000 exit_check_errata_835769
00000000100e532c l     F .text	0000000000000024 check_errata_843419
00000000100e534c l       .text	0000000000000000 exit_check_errata_843419
00000000100e5350 l     F .text	0000000000000038 cortex_a53_reset_func
00000000100e5388 l     F .text	0000000000000018 cortex_a53_core_pwr_dwn
00000000100e53a0 l     F .text	0000000000000024 cortex_a53_cluster_pwr_dwn
00000000100e53c4 l     F .text	00000000000000cc cortex_a53_errata_report
00000000100e8e22 l       .rodata	0000000000000000 cortex_a53_errata_819472_str
00000000100e8e6d l       .rodata	0000000000000000 cortex_a53_cpu_str
00000000100e8e29 l       .rodata	0000000000000000 cortex_a53_errata_824069_str
00000000100e8e30 l       .rodata	0000000000000000 cortex_a53_errata_826319_str
00000000100e8e37 l       .rodata	0000000000000000 cortex_a53_errata_827319_str
00000000100e8e3e l       .rodata	0000000000000000 cortex_a53_errata_835769_str
00000000100e8e45 l       .rodata	0000000000000000 cortex_a53_errata_disable_non_temporal_hint_str
00000000100e8e5f l       .rodata	0000000000000000 cortex_a53_errata_843419_str
00000000100e8e66 l       .rodata	0000000000000000 cortex_a53_errata_855873_str
00000000100e8e78 l       .rodata	0000000000000000 cortex_a53_regs
00000000100e5490 l     F .text	0000000000000018 cortex_a53_cpu_reg_dump
00000000100ea070 l       .data	0000000000000000 cortex_a53_errata_lock
00000000100ea074 l       .data	0000000000000000 cortex_a53_errata_reported
0000000000000000 l    df *ABS*	0000000000000000 ./build/rpi3/debug/bl31/plat_helpers.o
0000000000000000 l    df *ABS*	0000000000000000 ./build/rpi3/debug/bl31/crash_reporting.o
00000000100e8eae l       .rodata	0000000000000000 print_spacer
00000000100e8ec0 l       .rodata	0000000000000000 gp_regs
00000000100e8f2f l       .rodata	0000000000000000 el3_sys_regs
00000000100e8f8c l       .rodata	0000000000000000 non_el3_sys_regs
00000000100e90d8 l       .rodata	0000000000000000 aarch32_regs
00000000100e90ef l       .rodata	0000000000000000 panic_msg
00000000100e9101 l       .rodata	0000000000000000 excpt_msg
00000000100e9121 l       .rodata	0000000000000000 intr_excpt_msg
00000000100e54f4 l     F .text	000000000000004c size_controlled_print
00000000100e54fc l       .text	0000000000000000 test_size_list
00000000100e5538 l       .text	0000000000000000 exit_size_print
00000000100e5540 l     F .text	000000000000000c print_alignment
00000000100e554c l     F .text	0000000000000018 str_in_crash_buf_print
00000000100e55e0 l     F .text	0000000000000170 do_crash_reporting
00000000100e5750 l     F .text	0000000000000008 crash_panic
0000000000000000 l    df *ABS*	0000000000000000 ./build/rpi3/debug/bl31/ea_delegate.o
0000000000000008 l       *ABS*	0000000000000000 CPU_MIDR_SIZE
0000000000000008 l       *ABS*	0000000000000000 CPU_EXTRA1_FUNC_SIZE
0000000000000008 l       *ABS*	0000000000000000 CPU_EXTRA2_FUNC_SIZE
0000000000000008 l       *ABS*	0000000000000000 CPU_E_HANDLER_FUNC_SIZE
0000000000000008 l       *ABS*	0000000000000000 CPU_RESET_FUNC_SIZE
0000000000000010 l       *ABS*	0000000000000000 CPU_PWR_DWN_OPS_SIZE
0000000000000008 l       *ABS*	0000000000000000 CPU_ERRATA_FUNC_SIZE
0000000000000008 l       *ABS*	0000000000000000 CPU_ERRATA_LOCK_SIZE
0000000000000008 l       *ABS*	0000000000000000 CPU_ERRATA_PRINTED_SIZE
0000000000000008 l       *ABS*	0000000000000000 CPU_REG_DUMP_SIZE
0000000000000000 l       *ABS*	0000000000000000 CPU_MIDR
0000000000000008 l       *ABS*	0000000000000000 CPU_RESET_FUNC
0000000000000010 l       *ABS*	0000000000000000 CPU_EXTRA1_FUNC
0000000000000018 l       *ABS*	0000000000000000 CPU_EXTRA2_FUNC
0000000000000020 l       *ABS*	0000000000000000 CPU_E_HANDLER_FUNC
0000000000000028 l       *ABS*	0000000000000000 CPU_PWR_DWN_OPS
0000000000000038 l       *ABS*	0000000000000000 CPU_ERRATA_FUNC
0000000000000040 l       *ABS*	0000000000000000 CPU_ERRATA_LOCK
0000000000000048 l       *ABS*	0000000000000000 CPU_ERRATA_PRINTED
0000000000000050 l       *ABS*	0000000000000000 CPU_REG_DUMP
0000000000000058 l       *ABS*	0000000000000000 CPU_OPS_SIZE
00000000100e57f0 l     F .text	000000000000009c ea_proceed
00000000100e57e8 l     F .text	0000000000000004 delegate_sync_ea
00000000100e57ec l     F .text	0000000000000004 delegate_async_ea
0000000000000000 l    df *ABS*	0000000000000000 ./build/rpi3/debug/bl31/runtime_exceptions.o
00000000100e588c l       .text	0000000000000000 smc_handler32
00000000100e5890 l       .text	0000000000000000 smc_handler64
00000000100e74d8 l       .text	0000000000000000 interrupt_exit_irq_aarch64
00000000100e7558 l       .text	0000000000000000 interrupt_exit_fiq_aarch64
00000000100e76d8 l       .text	0000000000000000 interrupt_exit_irq_aarch32
00000000100e7758 l       .text	0000000000000000 interrupt_exit_fiq_aarch32
00000000100e588c l     F .text	0000000000000088 smc_handler
00000000100e58fc l       .text	0000000000000000 smc_prohibited
00000000100e58f0 l       .text	0000000000000000 smc_unknown
00000000100e5908 l       .text	0000000000000000 rt_svc_fw_critical_error
0000000000000000 l    df *ABS*	0000000000000000 ./build/rpi3/debug/bl31/platform_mp_stack.o
00000000100ea080 l       stacks	0000000000000000 platform_normal_stacks
0000000000000006 l       *ABS*	0000000000000000 TZ_COUNT
0000000000000000 l    df *ABS*	0000000000000000 ./build/rpi3/debug/bl31/cpu_data.o
0000000000000000 l    df *ABS*	0000000000000000 ./build/rpi3/debug/bl31/cpu_helpers.o
0000000000000008 l       *ABS*	0000000000000000 CPU_MIDR_SIZE
0000000000000008 l       *ABS*	0000000000000000 CPU_EXTRA1_FUNC_SIZE
0000000000000008 l       *ABS*	0000000000000000 CPU_EXTRA2_FUNC_SIZE
0000000000000008 l       *ABS*	0000000000000000 CPU_E_HANDLER_FUNC_SIZE
0000000000000008 l       *ABS*	0000000000000000 CPU_RESET_FUNC_SIZE
0000000000000010 l       *ABS*	0000000000000000 CPU_PWR_DWN_OPS_SIZE
0000000000000008 l       *ABS*	0000000000000000 CPU_ERRATA_FUNC_SIZE
0000000000000008 l       *ABS*	0000000000000000 CPU_ERRATA_LOCK_SIZE
0000000000000008 l       *ABS*	0000000000000000 CPU_ERRATA_PRINTED_SIZE
0000000000000008 l       *ABS*	0000000000000000 CPU_REG_DUMP_SIZE
0000000000000000 l       *ABS*	0000000000000000 CPU_MIDR
0000000000000008 l       *ABS*	0000000000000000 CPU_RESET_FUNC
0000000000000010 l       *ABS*	0000000000000000 CPU_EXTRA1_FUNC
0000000000000018 l       *ABS*	0000000000000000 CPU_EXTRA2_FUNC
0000000000000020 l       *ABS*	0000000000000000 CPU_E_HANDLER_FUNC
0000000000000028 l       *ABS*	0000000000000000 CPU_PWR_DWN_OPS
0000000000000038 l       *ABS*	0000000000000000 CPU_ERRATA_FUNC
0000000000000040 l       *ABS*	0000000000000000 CPU_ERRATA_LOCK
0000000000000048 l       *ABS*	0000000000000000 CPU_ERRATA_PRINTED
0000000000000050 l       *ABS*	0000000000000000 CPU_REG_DUMP
0000000000000058 l       *ABS*	0000000000000000 CPU_OPS_SIZE
00000000100e5a60 l       .text	0000000000000000 error_exit
0000000000000000 l    df *ABS*	0000000000000000 ./build/rpi3/debug/bl31/spinlock.o
00000000100e5adc l       .text	0000000000000000 l1
00000000100e5ae0 l       .text	0000000000000000 l2
0000000000000000 l    df *ABS*	0000000000000000 ./build/rpi3/debug/bl31/psci_helpers.o
0000000000000000 l    df *ABS*	0000000000000000 ./build/rpi3/debug/bl31/context.o
0000000000000000 l    df *ABS*	0000000000000000 ./build/rpi3/debug/bl31/opteed_helpers.o
0000000000000000 l    df *ABS*	0000000000000000 ./build/rpi3/debug/bl31/debug.o
00000000100e9185 l       .rodata	0000000000000000 assert_msg1
00000000100e9193 l       .rodata	0000000000000000 assert_msg2
00000000100e5ec0 l       .text	0000000000000000 _assert_loop
00000000100e5ea4 l       .text	0000000000000000 dec_print_loop
00000000100e919a l       .rodata	0000000000000000 panic_msg
00000000100e5f30 l       .text	0000000000000000 panic_common
00000000100e5f54 l       .text	0000000000000000 _panic_handler
0000000000000000 l    df *ABS*	0000000000000000 ./build/rpi3/debug/bl31/cache_helpers.o
00000000100e5f90 l       .text	0000000000000000 exit_loop_civac
00000000100e5f7c l       .text	0000000000000000 loop_civac
00000000100e5fc8 l       .text	0000000000000000 exit_loop_cvac
00000000100e5fb4 l       .text	0000000000000000 loop_cvac
00000000100e6000 l       .text	0000000000000000 exit_loop_ivac
00000000100e5fec l       .text	0000000000000000 loop_ivac
00000000100e6004 l     F .text	000000000000007c do_dcsw_op
00000000100e607c l       .text	0000000000000000 exit
00000000100e6080 l       .text	0000000000000000 dcsw_loop_table
00000000100e6018 l       .text	0000000000000000 loop1
00000000100e6064 l       .text	0000000000000000 level_done
00000000100e6080 l       .text	0000000000000000 loop2_isw
00000000100e6084 l       .text	0000000000000000 loop3_isw
00000000100e60a0 l       .text	0000000000000000 loop2_cisw
00000000100e60a4 l       .text	0000000000000000 loop3_cisw
00000000100e60c0 l       .text	0000000000000000 loop2_csw
00000000100e60c4 l       .text	0000000000000000 loop3_csw
0000000000000000 l    df *ABS*	0000000000000000 ./build/rpi3/debug/bl31/misc_helpers.o
00000000100e6108 l     F .text	0000000000000114 zeromem_dczva
0000000000000000 l    df *ABS*	0000000000000000 ./build/rpi3/debug/bl31/platform_helpers.o
0000000000000000 l    df *ABS*	0000000000000000 ./build/rpi3/debug/bl31/16550_console.o
00000000100e62a0 l       .text	0000000000000000 init_fail
00000000100e62f8 l       .text	0000000000000000 register_fail
00000000100e6388 l       .text	0000000000000000 no_char
0000000000000000 l    df *ABS*	0000000000000000 ./build/rpi3/debug/bl31/enable_mmu.o
0000000000000000 l    df *ABS*	0000000000000000 assert.c
0000000000000000 l    df *ABS*	0000000000000000 memcpy.c
0000000000000000 l    df *ABS*	0000000000000000 memmove.c
0000000000000000 l    df *ABS*	0000000000000000 memset.c
0000000000000000 l    df *ABS*	0000000000000000 printf.c
00000000100e6504 l     F .text	00000000000000d0 unsigned_num_print
0000000000000000 l    df *ABS*	0000000000000000 putchar.c
0000000000000000 l    df *ABS*	0000000000000000 
0000000000000000 l    df *ABS*	0000000000000000 cpu_data_array.c
00000000100e6a28 g     F .text	000000000000002c putchar
00000000100e15c8 g     F .text	00000000000000e8 cm_prepare_el3_exit
00000000100e4120 g     F .text	0000000000000034 console_set_scope
00000000100e45c4 g     F .text	0000000000000020 plat_ic_get_pending_interrupt_type
00000000100e143c g     F .text	0000000000000090 cm_el1_sysregs_context_restore
00000000100e2abc g     F .text	0000000000000028 psci_migrate_info_up_cpu
00000000100e9360 g     O .rodata	0000000000000008 __cb_func_disable_sve_hookcm_exited_normal_world
00000000100f5000 g       coherent_ram	0000000000000000 __BL31_END__
00000000100e40a4 g     F .text	0000000000000070 console_register
00000000100e27a8 g     F .text	0000000000000124 psci_cpu_suspend
00000000100f5000 g       coherent_ram	0000000000000000 __COHERENT_RAM_END__
00000000100e5968 g     F .text	0000000000000034 reset_handler
00000000100e63d8 g     F .text	000000000000001c console_16550_flush
00000000100e7600 g     F .text	0000000000000000 sync_exception_aarch32
00000000100e6100 g     F .text	0000000000000008 zeromem
00000000100e801e g     O .rodata	000000000000001c version_string
00000000100e5f10 g     F .text	0000000000000008 asm_print_newline
00000000100e9350 g       .rodata	0000000000000000 __pubsub_psci_suspend_pwrdown_finish_end
00000000100e23d4 g     F .text	00000000000000f4 psci_validate_entry_point
00000000100e5028 g     F .text	000000000000003c mmap_add_ctx
00000000100e3f5c g     F .text	0000000000000038 print_entry_point_info
00000000100e0e5c g     F .text	000000000000002c cm_get_context
00000000100e69d4 g     F .text	0000000000000054 printf
00000000100ef978 g     O .bss	0000000000000018 mmu_cfg_params
00000000100e5250 g     F .text	0000000000000004 xlat_tables_print
00000000100e235c g     F .text	0000000000000058 psci_release_pwr_domain_locks
00000000100e1e58 g     F .text	0000000000000044 psci_validate_power_state
00000000100e0608 g     F .text	0000000000000034 plat_core_pos_by_mpidr
00000000100ea000 g       .rodata	0000000000000000 __RW_START__
00000000100e62fc g     F .text	000000000000004c console_16550_core_putc
00000000100e1d7c g     F .text	00000000000000dc psci_cpu_suspend_finish
00000000100e6348 g     F .text	000000000000001c console_16550_putc
00000000100e5e68 g     F .text	0000000000000060 asm_assert
00000000100e01c8 g     F .text	0000000000000044 bl31_plat_get_next_image_ep_info
00000000100e60e0 g     F .text	0000000000000010 dcsw_op_level1
00000000100e5f18 g     F .text	0000000000000044 do_panic
00000000100e64b4 g     F .text	0000000000000034 memmove
00000000100eec88 g     O .bss	0000000000000080 rt_svc_descs_indices
00000000100e05e0 g     F .text	000000000000001c plat_setup_psci_ops
00000000100e7200 g     F .text	0000000000000000 sync_exception_sp_elx
00000000100e4818 g     F .text	0000000000000108 setup_mmu_cfg
00000000100e7000 g     F .text	0000000000000000 sync_exception_sp_el0
00000000100e5b6c g     F .text	0000000000000010 psci_power_down_wfi
00000000100e5b38 g     F .text	0000000000000034 psci_do_pwrup_cache_maintenance
00000000100e29a8 g     F .text	0000000000000058 psci_affinity_info
00000000100e0c48 g     F .text	000000000000000c bl31_register_bl32_init
00000000100e4260  w    F .text	0000000000000030 plat_log_get_prefix
00000000100e2a00 g     F .text	00000000000000a4 psci_migrate
00000000100e8000 g     O .rodata	000000000000001e build_message
00000000100e5df0 g     F .text	000000000000002c el3_exit
00000000100e2d44 g     F .text	0000000000000384 psci_setup
00000000100e0e88 g     F .text	000000000000002c cm_set_context
00000000100e4964 g     F .text	0000000000000068 init_xlat_tables
00000000100e4290  w    F .text	0000000000000008 bl31_plat_runtime_setup
00000000100ea000 g       .data	0000000000000000 __DATA_START__
00000000100f4000 g     O coherent_ram	0000000000000008 psci_locks
00000000100e6220  w    F .text	0000000000000004 plat_disable_acp
00000000100e222c g     F .text	0000000000000024 psci_find_target_suspend_lvl
00000000100e4728 g     F .text	0000000000000038 xlat_arch_regime_get_xn_desc
00000000100e2d24 g     F .text	0000000000000020 psci_arch_setup
00000000100e5d14 g     F .text	0000000000000074 save_gp_pmcr_pauth_regs
00000000100e3124 g     F .text	000000000000005c psci_system_reset
00000000100e6494 g     F .text	0000000000000020 memcpy
00000000100e23b4 g     F .text	0000000000000020 psci_validate_mpidr
00000000100e28cc g     F .text	00000000000000ac psci_system_suspend
00000000100e7380 g     F .text	0000000000000000 serror_sp_elx
00000000100e1354 g     F .text	000000000000002c cm_init_context_by_index
00000000100e7080 g     F .text	0000000000000000 irq_sp_el0
00000000100e6108 g     F .text	0000000000000114 zero_normalmem
00000000100e1fe0 g     F .text	0000000000000048 psci_get_parent_pwr_domain_nodes
00000000100e9350 g     O .rodata	0000000000000008 __cb_func_spe_drain_buffers_hookcm_entering_secure_world
00000000100e4298  w    F .text	000000000000004c plat_ea_handler
00000000100e30c8 g     F .text	000000000000005c psci_system_off
00000000100e9358 g       .rodata	0000000000000000 __pubsub_cm_exited_secure_world_end
00000000100e4954 g     F .text	0000000000000010 mmap_add
00000000100e0104 g     F .text	0000000000000080 bl31_warm_entrypoint
00000000100e45b8 g     F .text	000000000000000c plat_get_syscnt_freq2
00000000100e6224  w    F .text	0000000000000008 plat_panic_handler
00000000100e9278 g       .rodata	0000000000000000 __RT_SVC_DESCS_START__
00000000100ee080 g       stacks	0000000000000000 __STACKS_END__
00000000100e9350 g       .rodata	0000000000000000 __pubsub_psci_suspend_pwrdown_start_end
00000000100e44c4 g     F .text	000000000000005c rpi3_console_init
00000000100e5f94 g     F .text	0000000000000038 clean_dcache_range
00000000100e599c g     F .text	0000000000000038 prepare_cpu_pwr_dwn
00000000100e35c4 g     F .text	00000000000000d0 opteed_init_optee_ep_state
00000000100e0748 g     F .text	0000000000000040 fdt_num_mem_rsv
00000000100e5d88 g     F .text	0000000000000068 restore_gp_pmcr_pauth_regs
00000000100e24c8 g     F .text	00000000000000e4 psci_warmboot_entrypoint
00000000100e9360 g       .rodata	0000000000000000 __pubsub_cm_exited_normal_world_start
00000000100e5930  w    F .text	0000000000000010 plat_set_my_stack
00000000100e0ef0 g     F .text	0000000000000040 cm_set_context_by_index
00000000100e92f8 g       .rodata	0000000000000000 __RT_SVC_DESCS_END__
00000000100e45e4 g     F .text	0000000000000044 plat_interrupt_type_to_line
00000000100e13ac g     F .text	0000000000000090 cm_el1_sysregs_context_save
00000000100e5ee0 g     F .text	0000000000000030 asm_print_hex
00000000100e0310 g     F .text	0000000000000060 bl31_plat_arch_setup
00000000100e0bb8 g     F .text	0000000000000090 bl31_main
00000000100eef40 g     O .bss	0000000000000040 psci_cpu_pd_nodes
00000000100e5ec8 g     F .text	0000000000000018 asm_print_str
00000000100e370c g     F .text	0000000000000064 opteed_synchronous_sp_exit
00000000100e622c  w    F .text	0000000000000004 bl31_plat_enable_mmu
00000000100e63ac g     F .text	000000000000002c console_16550_core_flush
00000000100e1220 g     F .text	0000000000000004 cm_init
00000000100e54e8 g     F .text	000000000000000c plat_crash_console_flush
00000000100e7000 g       .text	0000000000000000 runtime_exceptions
00000000100e14cc g     F .text	0000000000000038 cm_set_elr_el3
00000000100e9358 g       .rodata	0000000000000000 __pubsub_cm_exited_secure_world_start
00000000100e2604 g     F .text	000000000000004c psci_spd_migrate_info
00000000100e5954 g     F .text	0000000000000014 _cpu_data_by_index
00000000100e2650 g     F .text	00000000000000f8 psci_print_power_domain_map
00000000100e0184 g     F .text	0000000000000044 plat_get_target_pwr_state
00000000100e4154 g     F .text	000000000000009c console_putc
00000000100e8998 g     O .rodata	0000000000000048 opteed_pm
00000000100e6234  w    F .text	0000000000000004 plat_handle_el3_ea
00000000100e1ecc g     F .text	0000000000000074 psci_is_last_on_cpu
00000000100e54c0 g     F .text	000000000000001c plat_crash_console_init
00000000100e7680 g     F .text	0000000000000000 irq_aarch32
00000000100e5f5c g     F .text	0000000000000038 flush_dcache_range
00000000100e5e1c g     F .text	0000000000000028 opteed_enter_sp
00000000100e020c g     F .text	0000000000000104 bl31_early_platform_setup2
00000000100e6364 g     F .text	000000000000002c console_16550_core_getc
00000000100e4378 g     F .text	000000000000014c backtrace
00000000100e46d8 g     F .text	000000000000001c xlat_get_min_virt_addr_space_size
00000000100ea078 g       stacks	0000000000000000 __RELA_END__
00000000100ea078 g       stacks	0000000000000000 __RELA_START__
00000000100e9358 g     O .rodata	0000000000000008 __cb_func_enable_sve_hookcm_entering_normal_world
00000000100e7180 g     F .text	0000000000000000 serror_sp_el0
00000000100e65d4 g     F .text	0000000000000400 vprintf
00000000100e0d28 g     F .text	000000000000009c set_routing_model
00000000100e46f4 g     F .text	0000000000000034 is_dcache_enabled
00000000100e5564 g     F .text	0000000000000028 report_unhandled_exception
00000000100e1ab0 g     F .text	00000000000000f8 psci_cpu_on_finish
00000000100e2978 g     F .text	0000000000000030 psci_cpu_off
00000000100e621c  w    F .text	0000000000000004 plat_reset_handler
00000000100e63f4 g     F .text	0000000000000070 enable_mmu_direct_el3
00000000100e9360 g       .rodata	0000000000000000 __pubsub_cm_entering_normal_world_end
00000000100e5a28 g     F .text	000000000000003c get_cpu_ops_ptr
00000000100e0000 g     F .text	0000000000000104 bl31_entrypoint
00000000100e0eb4 g     F .text	000000000000003c cm_get_context_by_index
00000000100e1380 g     F .text	000000000000002c cm_init_my_context
00000000100e7580 g     F .text	0000000000000000 serror_aarch64
00000000100e4520 g     F .text	0000000000000098 rpi3_setup_page_tables
00000000100e5940 g     F .text	0000000000000014 init_cpu_data_ptr
00000000100ea000 g       .rodata	0000000000000000 __RODATA_END__
00000000100e5758 g     F .text	0000000000000078 enter_lower_el_sync_ea
00000000100e4760 g     F .text	000000000000002c xlat_arch_current_el
00000000100e3460 g     F .text	0000000000000014 spe_supported
00000000100e17a8 g     F .text	000000000000011c psci_do_cpu_off
00000000100eef90 g     O .bss	0000000000000004 psci_caps
00000000100e5a08 g     F .text	0000000000000020 do_cpu_reg_dump
00000000100e1224 g     F .text	0000000000000130 cm_setup_context
00000000100e0000 g       .text	0000000000000000 __BL31_START__
00000000100e7280 g     F .text	0000000000000000 irq_sp_elx
00000000100e7100 g     F .text	0000000000000000 fiq_sp_el0
00000000100e8000 g       .rodata	0000000000000000 __RODATA_START__
00000000100ea078 g       .data	0000000000000000 __DATA_END__
00000000100e5ee4 g       .text	0000000000000000 asm_print_hex_bits
00000000100e92f8 g       .rodata	0000000000000000 __CPU_OPS_START__
00000000100e4628 g     F .text	000000000000006c tcr_physical_addr_size_bits
00000000100e5fcc g     F .text	0000000000000038 inv_dcache_range
00000000100ea00c g     O .data	0000000000000001 console_state
00000000100e2bc8 g     F .text	000000000000015c psci_smc_handler
00000000100e1ba8 g     F .text	00000000000001d4 psci_cpu_suspend_start
00000000100e1f40 g     F .text	0000000000000020 psci_init_req_local_pwr_states
00000000100e9358 g       .rodata	0000000000000000 __pubsub_cm_entering_secure_world_end
00000000100e5a64 g     F .text	0000000000000010 cpu_get_rev_var
00000000100e18c4 g     F .text	00000000000001ec psci_cpu_on_start
00000000100e2200 g     F .text	000000000000002c psci_find_max_off_lvl
00000000100e4a54 g     F .text	0000000000000104 xlat_desc
00000000100e54b0 g     F .text	0000000000000010 plat_rpi3_calc_core_pos
00000000100f4008 g     O coherent_ram	0000000000000010 psci_non_cpu_pd_nodes
00000000100e099c g     F .text	0000000000000098 fdt_add_mem_rsv
00000000100ef990 g       .bss	0000000000000000 __BSS_END__
00000000100e9350 g       .rodata	0000000000000000 __CPU_OPS_END__
00000000100e2748 g     F .text	0000000000000004 psci_do_pwrdown_sequence
00000000100e5afc g     F .text	000000000000003c psci_do_pwrdown_cache_maintenance
00000000100e157c g     F .text	000000000000004c cm_set_next_eret_context
00000000100e9350 g       .rodata	0000000000000000 __pubsub_cm_entering_secure_world_start
00000000100e274c g     F .text	000000000000005c psci_cpu_on
00000000100e0af0 g     F .text	00000000000000c8 bl31_prepare_next_image_entry
00000000100e2250 g     F .text	00000000000000a0 psci_validate_suspend_req
00000000100f4000 g       coherent_ram	0000000000000000 __COHERENT_RAM_START__
00000000100e2b60 g     F .text	0000000000000068 psci_features
00000000100e9350 g       .rodata	0000000000000000 __GOT_END__
00000000100e64e8 g     F .text	000000000000001c memset
00000000100e62a8 g     F .text	0000000000000054 console_16550_register
00000000100e1710 g     F .text	0000000000000098 errata_print_msg
00000000100e1f60 g     F .text	0000000000000080 psci_get_target_local_pwr_states
00000000100e1504 g     F .text	0000000000000078 cm_write_scr_el3_bit
00000000100e9368 g       .rodata	0000000000000000 __pubsub_cm_exited_normal_world_end
00000000100eefa0 g     O .bss	0000000000000008 optee_vector_table
00000000100e57d0 g     F .text	0000000000000018 enter_lower_el_async_ea
00000000100eef80 g     O .bss	0000000000000008 psci_plat_pm_ops
00000000100e4694 g     F .text	0000000000000044 xlat_arch_get_max_supported_pa
00000000100e0adc g     F .text	0000000000000014 bl31_setup
00000000100e9350 g       .rodata	0000000000000000 __pubsub_psci_suspend_pwrdown_start_start
00000000100e9350 g       .rodata	0000000000000000 __GOT_START__
00000000100e0aac g     F .text	0000000000000030 get_arm_std_svc_args
00000000100e9358 g       .rodata	0000000000000000 __pubsub_cm_entering_normal_world_start
00000000100e3310 g     F .text	00000000000000ec bakery_lock_get
00000000100e8000 g       .text	0000000000000000 __TEXT_END__
00000000100e323c g     F .text	0000000000000080 psci_mem_protect
00000000100e33fc g     F .text	0000000000000064 bakery_lock_release
00000000100e0e30 g     F .text	000000000000002c get_interrupt_type_handler
00000000100e05fc g     F .text	000000000000000c plat_get_power_domain_tree_desc
00000000100e2ae4 g     F .text	000000000000007c psci_node_hw_state
00000000100e5b7c g     F .text	00000000000000cc el1_sysregs_context_save
00000000100e0644 g     F .text	0000000000000088 fdt_check_header
00000000100e60f0 g     F .text	0000000000000010 dcsw_op_level2
00000000100e59d4 g     F .text	0000000000000034 init_cpu_ops
00000000100e41f0 g     F .text	0000000000000070 console_flush
00000000100e7300 g     F .text	0000000000000000 fiq_sp_elx
00000000100e7400 g     F .text	0000000000000000 sync_exception_aarch64
00000000100e7500 g     F .text	0000000000000000 fiq_aarch64
00000000100e4114 g     F .text	000000000000000c console_switch_state
00000000100e5a9c g     F .text	0000000000000038 print_errata_status
00000000100e5af4 g     F .text	0000000000000008 spin_unlock
00000000100ee080 g       .bss	0000000000000000 __BSS_START__
00000000100e4dcc g     F .text	000000000000025c mmap_add_region_ctx
00000000100e34a4 g     F .text	0000000000000044 spe_enable
00000000100eefa8 g     O .bss	0000000000000004 opteed_rw
00000000100e54dc g     F .text	000000000000000c plat_crash_console_putc
00000000100eed40 g     O .bss	0000000000000200 percpu_data
00000000100e25ac g     F .text	0000000000000058 psci_register_spd_pm_hook
00000000100e5a88 g     F .text	0000000000000014 cpu_rev_var_hs
00000000100e34e8 g     F .text	0000000000000014 sve_supported
00000000100e5ad4 g     F .text	0000000000000020 spin_lock
00000000100e405c g     F .text	0000000000000048 console_is_registered
00000000100e5e44 g     F .text	0000000000000024 opteed_exit_sp
00000000100e1e9c g     F .text	0000000000000030 psci_query_sys_suspend_pwrstate
00000000100e478c g     F .text	000000000000008c is_mmu_enabled_ctx
00000000100e3f94 g     F .text	00000000000000c8 tf_log
00000000100e9350 g       .rodata	0000000000000000 __pubsub_psci_cpu_on_finish_start
00000000100e5a74 g     F .text	0000000000000014 cpu_rev_var_ls
00000000100e0cd8 g     F .text	0000000000000050 get_scr_el3_from_routing_model
00000000100f5000 g       coherent_ram	0000000000000000 __RW_END__
00000000100f4018 g       coherent_ram	0000000000000000 __COHERENT_RAM_END_UNALIGNED__
00000000100e0370 g     F .text	00000000000000d0 bl31_platform_setup
00000000100e6390 g     F .text	000000000000001c console_16550_getc
00000000100ea080 g       stacks	0000000000000000 __STACKS_START__
00000000100eefb0 g     O .bss	00000000000009c0 opteed_sp_context
00000000100e20dc g     F .text	0000000000000124 psci_do_state_coordination
00000000100e3180 g     F .text	00000000000000bc psci_system_reset2
00000000100e49cc g     F .text	0000000000000048 enable_mmu_el3
00000000100e7780 g     F .text	0000000000000000 serror_aarch32
00000000100e6230  w    F .text	0000000000000004 plat_handle_double_fault
00000000100e3574 g     F .text	0000000000000050 sve_enable
00000000100e3694 g     F .text	0000000000000078 opteed_synchronous_sp_entry
00000000100e5064 g     F .text	00000000000001e8 init_xlat_tables_ctx
00000000100e9350 g       .rodata	0000000000000000 __pubsub_psci_suspend_pwrdown_finish_start
00000000100e54a8 g     F .text	0000000000000008 plat_my_core_pos
00000000100e0f30 g     F .text	0000000000000164 runtime_svc_init
00000000100e7480 g     F .text	0000000000000000 irq_aarch64
00000000100e2aa4 g     F .text	0000000000000018 psci_migrate_info_type
00000000100e6464 g     F .text	0000000000000030 __assert
00000000100e32bc g     F .text	0000000000000054 psci_mem_chk_range
00000000100e55b4 g     F .text	000000000000002c el3_panic
00000000100e0dc4 g     F .text	000000000000006c register_interrupt_type_handler
00000000100e524c g     F .text	0000000000000004 xlat_mmap_print
00000000100e6238 g     F .text	0000000000000070 console_16550_core_init
00000000100e22f0 g     F .text	000000000000006c psci_acquire_pwr_domain_locks
00000000100e9350 g       .rodata	0000000000000000 __pubsub_psci_cpu_on_finish_end
00000000100e5c48 g     F .text	00000000000000cc el1_sysregs_context_restore
00000000100ef970 g     O .bss	0000000000000008 console_list
00000000100e2028 g     F .text	00000000000000b4 psci_set_pwr_domains_to_run
00000000100e06dc g     F .text	000000000000006c fdt_get_mem_rsv
00000000100e558c g     F .text	0000000000000028 report_unhandled_interrupt
00000000100e7700 g     F .text	0000000000000000 fiq_aarch32
00000000100e5914  w    F .text	000000000000001c plat_get_my_stack
00000000100e4920 g     F .text	0000000000000034 mmap_add_region
00000000100e0000 g       .text	0000000000000000 __TEXT_START__
00000000100e16b0 g     F .text	0000000000000060 errata_needs_reporting
00000000100e0a34 g     F .text	0000000000000078 fdt_del_mem_rsv
00000000100eef88 g     O .bss	0000000000000008 psci_spd_pm



Disassembly of section .text:

00000000100e0000 <bl31_entrypoint>:
    100e0000:	aa0003f4 	mov	x20, x0
    100e0004:	aa0103f5 	mov	x21, x1
    100e0008:	aa0203f6 	mov	x22, x2
    100e000c:	aa0303f7 	mov	x23, x3
    100e0010:	10037f80 	adr	x0, 100e7000 <sync_exception_sp_el0>
    100e0014:	d51ec000 	msr	vbar_el3, x0
    100e0018:	d5033fdf 	isb
    100e001c:	94001653 	bl	100e5968 <reset_handler>
    100e0020:	d2820141 	mov	x1, #0x100a                	// #4106
    100e0024:	d53e1000 	mrs	x0, sctlr_el3
    100e0028:	aa010000 	orr	x0, x0, x1
    100e002c:	d51e1000 	msr	sctlr_el3, x0
    100e0030:	d5033fdf 	isb
    100e0034:	94001643 	bl	100e5940 <init_cpu_data_ptr>
    100e0038:	d2804700 	mov	x0, #0x238                 	// #568
    100e003c:	d51e1100 	msr	scr_el3, x0
    100e0040:	d2900000 	mov	x0, #0x8000                	// #32768
    100e0044:	f2a01020 	movk	x0, #0x81, lsl #16
    100e0048:	d51e1320 	msr	mdcr_el3, x0
    100e004c:	d2801c00 	mov	x0, #0xe0                  	// #224
    100e0050:	d51b9c00 	msr	pmcr_el0, x0
    100e0054:	d50344ff 	msr	daifclr, #0x4
    100e0058:	d2800000 	mov	x0, #0x0                   	// #0
    100e005c:	d51e1140 	msr	cptr_el3, x0
    100e0060:	d5380400 	mrs	x0, id_aa64pfr0_el1
    100e0064:	d370cc00 	ubfx	x0, x0, #48, #4
    100e0068:	f100041f 	cmp	x0, #0x1
    100e006c:	54000061 	b.ne	100e0078 <bl31_entrypoint+0x78>  // b.any
    100e0070:	d2a02000 	mov	x0, #0x1000000             	// #16777216
    100e0074:	d51b42a0 	msr	dit, x0
    100e0078:	d0000040 	adrp	x0, 100ea000 <__RODATA_END__>
    100e007c:	91000000 	add	x0, x0, #0x0
    100e0080:	b00000a1 	adrp	x1, 100f5000 <__BL31_END__>
    100e0084:	91000021 	add	x1, x1, #0x0
    100e0088:	cb000021 	sub	x1, x1, x0
    100e008c:	940017d0 	bl	100e5fcc <inv_dcache_range>
    100e0090:	d0000060 	adrp	x0, 100ee000 <__STACKS_START__+0x3f80>
    100e0094:	91020000 	add	x0, x0, #0x80
    100e0098:	f0000061 	adrp	x1, 100ef000 <opteed_sp_context+0x50>
    100e009c:	91264021 	add	x1, x1, #0x990
    100e00a0:	cb000021 	sub	x1, x1, x0
    100e00a4:	94001817 	bl	100e6100 <zeromem>
    100e00a8:	900000a0 	adrp	x0, 100f4000 <psci_locks>
    100e00ac:	91000000 	add	x0, x0, #0x0
    100e00b0:	900000a1 	adrp	x1, 100f4000 <psci_locks>
    100e00b4:	91006021 	add	x1, x1, #0x18
    100e00b8:	cb000021 	sub	x1, x1, x0
    100e00bc:	94001811 	bl	100e6100 <zeromem>
    100e00c0:	d50040bf 	msr	spsel, #0x0
    100e00c4:	9400161b 	bl	100e5930 <plat_set_my_stack>
    100e00c8:	aa1403e0 	mov	x0, x20
    100e00cc:	aa1503e1 	mov	x1, x21
    100e00d0:	aa1603e2 	mov	x2, x22
    100e00d4:	aa1703e3 	mov	x3, x23
    100e00d8:	94000281 	bl	100e0adc <bl31_setup>
    100e00dc:	940002b7 	bl	100e0bb8 <bl31_main>
    100e00e0:	1004f900 	adr	x0, 100ea000 <__RODATA_END__>
    100e00e4:	1004fca1 	adr	x1, 100ea078 <__DATA_END__>
    100e00e8:	cb000021 	sub	x1, x1, x0
    100e00ec:	940017aa 	bl	100e5f94 <clean_dcache_range>
    100e00f0:	1006fc80 	adr	x0, 100ee080 <__STACKS_END__>
    100e00f4:	1007c4e1 	adr	x1, 100ef990 <__BSS_END__>
    100e00f8:	cb000021 	sub	x1, x1, x0
    100e00fc:	940017a6 	bl	100e5f94 <clean_dcache_range>
    100e0100:	1400173c 	b	100e5df0 <el3_exit>

00000000100e0104 <bl31_warm_entrypoint>:
    100e0104:	100377e0 	adr	x0, 100e7000 <sync_exception_sp_el0>
    100e0108:	d51ec000 	msr	vbar_el3, x0
    100e010c:	d5033fdf 	isb
    100e0110:	94001616 	bl	100e5968 <reset_handler>
    100e0114:	d2820141 	mov	x1, #0x100a                	// #4106
    100e0118:	d53e1000 	mrs	x0, sctlr_el3
    100e011c:	aa010000 	orr	x0, x0, x1
    100e0120:	d51e1000 	msr	sctlr_el3, x0
    100e0124:	d5033fdf 	isb
    100e0128:	94001606 	bl	100e5940 <init_cpu_data_ptr>
    100e012c:	d2804700 	mov	x0, #0x238                 	// #568
    100e0130:	d51e1100 	msr	scr_el3, x0
    100e0134:	d2900000 	mov	x0, #0x8000                	// #32768
    100e0138:	f2a01020 	movk	x0, #0x81, lsl #16
    100e013c:	d51e1320 	msr	mdcr_el3, x0
    100e0140:	d2801c00 	mov	x0, #0xe0                  	// #224
    100e0144:	d51b9c00 	msr	pmcr_el0, x0
    100e0148:	d50344ff 	msr	daifclr, #0x4
    100e014c:	d2800000 	mov	x0, #0x0                   	// #0
    100e0150:	d51e1140 	msr	cptr_el3, x0
    100e0154:	d5380400 	mrs	x0, id_aa64pfr0_el1
    100e0158:	d370cc00 	ubfx	x0, x0, #48, #4
    100e015c:	f100041f 	cmp	x0, #0x1
    100e0160:	54000061 	b.ne	100e016c <bl31_warm_entrypoint+0x68>  // b.any
    100e0164:	d2a02000 	mov	x0, #0x1000000             	// #16777216
    100e0168:	d51b42a0 	msr	dit, x0
    100e016c:	d50040bf 	msr	spsel, #0x0
    100e0170:	940015f0 	bl	100e5930 <plat_set_my_stack>
    100e0174:	d2800020 	mov	x0, #0x1                   	// #1
    100e0178:	9400182d 	bl	100e622c <bl31_plat_enable_mmu>
    100e017c:	940008d3 	bl	100e24c8 <psci_warmboot_entrypoint>
    100e0180:	1400171c 	b	100e5df0 <el3_exit>

00000000100e0184 <plat_get_target_pwr_state>:
    100e0184:	350000e2 	cbnz	w2, 100e01a0 <plat_get_target_pwr_state+0x1c>
    100e0188:	a9bf7bfd 	stp	x29, x30, [sp, #-16]!
    100e018c:	90000040 	adrp	x0, 100e8000 <__TEXT_END__>
    100e0190:	9100e800 	add	x0, x0, #0x3a
    100e0194:	910003fd 	mov	x29, sp
    100e0198:	528013a1 	mov	w1, #0x9d                  	// #157
    100e019c:	940018b2 	bl	100e6464 <__assert>
    100e01a0:	d2800003 	mov	x3, #0x0                   	// #0
    100e01a4:	52800040 	mov	w0, #0x2                   	// #2
    100e01a8:	38636824 	ldrb	w4, [x1, x3]
    100e01ac:	91000463 	add	x3, x3, #0x1
    100e01b0:	6b00009f 	cmp	w4, w0
    100e01b4:	1a809080 	csel	w0, w4, w0, ls  // ls = plast
    100e01b8:	6b03005f 	cmp	w2, w3
    100e01bc:	12001c00 	and	w0, w0, #0xff
    100e01c0:	54ffff41 	b.ne	100e01a8 <plat_get_target_pwr_state+0x24>  // b.any
    100e01c4:	d65f03c0 	ret

00000000100e01c8 <bl31_plat_get_next_image_ep_info>:
    100e01c8:	7100041f 	cmp	w0, #0x1
    100e01cc:	540000e9 	b.ls	100e01e8 <bl31_plat_get_next_image_ep_info+0x20>  // b.plast
    100e01d0:	a9bf7bfd 	stp	x29, x30, [sp, #-16]!
    100e01d4:	90000040 	adrp	x0, 100e8000 <__TEXT_END__>
    100e01d8:	91016400 	add	x0, x0, #0x59
    100e01dc:	910003fd 	mov	x29, sp
    100e01e0:	528004a1 	mov	w1, #0x25                  	// #37
    100e01e4:	940018a0 	bl	100e6464 <__assert>
    100e01e8:	d0000061 	adrp	x1, 100ee000 <__STACKS_START__+0x3f80>
    100e01ec:	d0000060 	adrp	x0, 100ee000 <__STACKS_START__+0x3f80>
    100e01f0:	91020021 	add	x1, x1, #0x80
    100e01f4:	91036000 	add	x0, x0, #0xd8
    100e01f8:	9a810000 	csel	x0, x0, x1, eq  // eq = none
    100e01fc:	f9400401 	ldr	x1, [x0, #8]
    100e0200:	f100003f 	cmp	x1, #0x0
    100e0204:	9a9f1000 	csel	x0, x0, xzr, ne  // ne = any
    100e0208:	d65f03c0 	ret

00000000100e020c <bl31_early_platform_setup2>:
    100e020c:	a9bd7bfd 	stp	x29, x30, [sp, #-48]!
    100e0210:	910003fd 	mov	x29, sp
    100e0214:	a90153f3 	stp	x19, x20, [sp, #16]
    100e0218:	aa0103f4 	mov	x20, x1
    100e021c:	aa0003f3 	mov	x19, x0
    100e0220:	528ca000 	mov	w0, #0x6500                	// #25856
    100e0224:	72a3b9a0 	movk	w0, #0x1dcd, lsl #16
    100e0228:	f90013f5 	str	x21, [sp, #32]
    100e022c:	940010a6 	bl	100e44c4 <rpi3_console_init>
    100e0230:	d28d2f00 	mov	x0, #0x6978                	// #27000
    100e0234:	f2a96b40 	movk	x0, #0x4b5a, lsl #16
    100e0238:	f2c5a780 	movk	x0, #0x2d3c, lsl #32
    100e023c:	f2e1e3c0 	movk	x0, #0xf1e, lsl #48
    100e0240:	eb00029f 	cmp	x20, x0
    100e0244:	540000a0 	b.eq	100e0258 <bl31_early_platform_setup2+0x4c>  // b.none
    100e0248:	52800a21 	mov	w1, #0x51                  	// #81
    100e024c:	90000040 	adrp	x0, 100e8000 <__TEXT_END__>
    100e0250:	91016400 	add	x0, x0, #0x59
    100e0254:	94001884 	bl	100e6464 <__assert>
    100e0258:	b5000073 	cbnz	x19, 100e0264 <bl31_early_platform_setup2+0x58>
    100e025c:	52800ac1 	mov	w1, #0x56                  	// #86
    100e0260:	17fffffb 	b	100e024c <bl31_early_platform_setup2+0x40>
    100e0264:	39400260 	ldrb	w0, [x19]
    100e0268:	7100141f 	cmp	w0, #0x5
    100e026c:	54000060 	b.eq	100e0278 <bl31_early_platform_setup2+0x6c>  // b.none
    100e0270:	52800ae1 	mov	w1, #0x57                  	// #87
    100e0274:	17fffff6 	b	100e024c <bl31_early_platform_setup2+0x40>
    100e0278:	39400660 	ldrb	w0, [x19, #1]
    100e027c:	7100041f 	cmp	w0, #0x1
    100e0280:	54000068 	b.hi	100e028c <bl31_early_platform_setup2+0x80>  // b.pmore
    100e0284:	52800b01 	mov	w1, #0x58                  	// #88
    100e0288:	17fffff1 	b	100e024c <bl31_early_platform_setup2+0x40>
    100e028c:	f9400673 	ldr	x19, [x19, #8]
    100e0290:	d0000074 	adrp	x20, 100ee000 <__STACKS_START__+0x3f80>
    100e0294:	91036294 	add	x20, x20, #0xd8
    100e0298:	d0000075 	adrp	x21, 100ee000 <__STACKS_START__+0x3f80>
    100e029c:	910202b5 	add	x21, x21, #0x80
    100e02a0:	b5000133 	cbnz	x19, 100e02c4 <bl31_early_platform_setup2+0xb8>
    100e02a4:	d0000060 	adrp	x0, 100ee000 <__STACKS_START__+0x3f80>
    100e02a8:	f9407000 	ldr	x0, [x0, #224]
    100e02ac:	b50002a0 	cbnz	x0, 100e0300 <bl31_early_platform_setup2+0xf4>
    100e02b0:	90000040 	adrp	x0, 100e8000 <__TEXT_END__>
    100e02b4:	91044000 	add	x0, x0, #0x110
    100e02b8:	94001030 	bl	100e4378 <backtrace>
    100e02bc:	94000fcd 	bl	100e41f0 <console_flush>
    100e02c0:	94001716 	bl	100e5f18 <do_panic>
    100e02c4:	b9400260 	ldr	w0, [x19]
    100e02c8:	7100101f 	cmp	w0, #0x4
    100e02cc:	540000e1 	b.ne	100e02e8 <bl31_early_platform_setup2+0xdc>  // b.any
    100e02d0:	f9400a61 	ldr	x1, [x19, #16]
    100e02d4:	aa1503e0 	mov	x0, x21
    100e02d8:	d2800b02 	mov	x2, #0x58                  	// #88
    100e02dc:	9400186e 	bl	100e6494 <memcpy>
    100e02e0:	f9400e73 	ldr	x19, [x19, #24]
    100e02e4:	17ffffef 	b	100e02a0 <bl31_early_platform_setup2+0x94>
    100e02e8:	7100141f 	cmp	w0, #0x5
    100e02ec:	54ffffa1 	b.ne	100e02e0 <bl31_early_platform_setup2+0xd4>  // b.any
    100e02f0:	aa1403e0 	mov	x0, x20
    100e02f4:	d2800b02 	mov	x2, #0x58                  	// #88
    100e02f8:	f9400a61 	ldr	x1, [x19, #16]
    100e02fc:	17fffff8 	b	100e02dc <bl31_early_platform_setup2+0xd0>
    100e0300:	a94153f3 	ldp	x19, x20, [sp, #16]
    100e0304:	f94013f5 	ldr	x21, [sp, #32]
    100e0308:	a8c37bfd 	ldp	x29, x30, [sp], #48
    100e030c:	d65f03c0 	ret

00000000100e0310 <bl31_plat_arch_setup>:
    100e0310:	a9bf7bfd 	stp	x29, x30, [sp, #-16]!
    100e0314:	b00000a0 	adrp	x0, 100f5000 <__BL31_END__>
    100e0318:	91000000 	add	x0, x0, #0x0
    100e031c:	910003fd 	mov	x29, sp
    100e0320:	b00000a7 	adrp	x7, 100f5000 <__BL31_END__>
    100e0324:	910000e7 	add	x7, x7, #0x0
    100e0328:	900000a6 	adrp	x6, 100f4000 <psci_locks>
    100e032c:	910000c6 	add	x6, x6, #0x0
    100e0330:	d0000045 	adrp	x5, 100ea000 <__RODATA_END__>
    100e0334:	910000a5 	add	x5, x5, #0x0
    100e0338:	90000044 	adrp	x4, 100e8000 <__TEXT_END__>
    100e033c:	91000084 	add	x4, x4, #0x0
    100e0340:	90000043 	adrp	x3, 100e8000 <__TEXT_END__>
    100e0344:	91000063 	add	x3, x3, #0x0
    100e0348:	90000002 	adrp	x2, 100e0000 <bl31_entrypoint>
    100e034c:	91000042 	add	x2, x2, #0x0
    100e0350:	929fffe1 	mov	x1, #0xffffffffffff0000    	// #-65536
    100e0354:	f2bdfe41 	movk	x1, #0xeff2, lsl #16
    100e0358:	8b010001 	add	x1, x0, x1
    100e035c:	d2a201c0 	mov	x0, #0x100e0000            	// #269352960
    100e0360:	94001070 	bl	100e4520 <rpi3_setup_page_tables>
    100e0364:	a8c17bfd 	ldp	x29, x30, [sp], #16
    100e0368:	52800000 	mov	w0, #0x0                   	// #0
    100e036c:	14001198 	b	100e49cc <enable_mmu_el3>

00000000100e0370 <bl31_platform_setup>:
    100e0370:	a9bd7bfd 	stp	x29, x30, [sp, #-48]!
    100e0374:	90000040 	adrp	x0, 100e8000 <__TEXT_END__>
    100e0378:	9101e400 	add	x0, x0, #0x79
    100e037c:	910003fd 	mov	x29, sp
    100e0380:	a90153f3 	stp	x19, x20, [sp, #16]
    100e0384:	94000f04 	bl	100e3f94 <tf_log>
    100e0388:	d2a00020 	mov	x0, #0x10000               	// #65536
    100e038c:	940000ae 	bl	100e0644 <fdt_check_header>
    100e0390:	350004a0 	cbnz	w0, 100e0424 <bl31_platform_setup+0xb4>
    100e0394:	2a0003f3 	mov	w19, w0
    100e0398:	d2a00020 	mov	x0, #0x10000               	// #65536
    100e039c:	940000eb 	bl	100e0748 <fdt_num_mem_rsv>
    100e03a0:	2a0003f4 	mov	w20, w0
    100e03a4:	7100001f 	cmp	w0, #0x0
    100e03a8:	540003ed 	b.le	100e0424 <bl31_platform_setup+0xb4>
    100e03ac:	9100a3e3 	add	x3, sp, #0x28
    100e03b0:	910083e2 	add	x2, sp, #0x20
    100e03b4:	2a1303e1 	mov	w1, w19
    100e03b8:	d2a00020 	mov	x0, #0x10000               	// #65536
    100e03bc:	940000c8 	bl	100e06dc <fdt_get_mem_rsv>
    100e03c0:	35000380 	cbnz	w0, 100e0430 <bl31_platform_setup+0xc0>
    100e03c4:	f94013e0 	ldr	x0, [sp, #32]
    100e03c8:	b5000340 	cbnz	x0, 100e0430 <bl31_platform_setup+0xc0>
    100e03cc:	2a1303e1 	mov	w1, w19
    100e03d0:	d2a00020 	mov	x0, #0x10000               	// #65536
    100e03d4:	94000198 	bl	100e0a34 <fdt_del_mem_rsv>
    100e03d8:	2a0003e1 	mov	w1, w0
    100e03dc:	34000080 	cbz	w0, 100e03ec <bl31_platform_setup+0x7c>
    100e03e0:	90000040 	adrp	x0, 100e8000 <__TEXT_END__>
    100e03e4:	91024400 	add	x0, x0, #0x91
    100e03e8:	94000eeb 	bl	100e3f94 <tf_log>
    100e03ec:	d2a20001 	mov	x1, #0x10000000            	// #268435456
    100e03f0:	d2a00202 	mov	x2, #0x100000              	// #1048576
    100e03f4:	d2a00020 	mov	x0, #0x10000               	// #65536
    100e03f8:	94000169 	bl	100e099c <fdt_add_mem_rsv>
    100e03fc:	2a0003e1 	mov	w1, w0
    100e0400:	34000080 	cbz	w0, 100e0410 <bl31_platform_setup+0xa0>
    100e0404:	90000040 	adrp	x0, 100e8000 <__TEXT_END__>
    100e0408:	9102f800 	add	x0, x0, #0xbe
    100e040c:	94000ee2 	bl	100e3f94 <tf_log>
    100e0410:	90000040 	adrp	x0, 100e8000 <__TEXT_END__>
    100e0414:	9103a000 	add	x0, x0, #0xe8
    100e0418:	d2a20202 	mov	x2, #0x10100000            	// #269484032
    100e041c:	d2a20001 	mov	x1, #0x10000000            	// #268435456
    100e0420:	94000edd 	bl	100e3f94 <tf_log>
    100e0424:	a94153f3 	ldp	x19, x20, [sp, #16]
    100e0428:	a8c37bfd 	ldp	x29, x30, [sp], #48
    100e042c:	d65f03c0 	ret
    100e0430:	11000673 	add	w19, w19, #0x1
    100e0434:	6b13029f 	cmp	w20, w19
    100e0438:	54fffba1 	b.ne	100e03ac <bl31_platform_setup+0x3c>  // b.any
    100e043c:	17ffffec 	b	100e03ec <bl31_platform_setup+0x7c>

00000000100e0440 <rpi3_pwr_domain_off>:
    100e0440:	d65f03c0 	ret

00000000100e0444 <rpi3_watchdog_reset>:
    100e0444:	a9bf7bfd 	stp	x29, x30, [sp, #-16]!
    100e0448:	910003fd 	mov	x29, sp
    100e044c:	94000f69 	bl	100e41f0 <console_flush>
    100e0450:	d5033f9f 	dsb	sy
    100e0454:	d5033fdf 	isb
    100e0458:	d2800480 	mov	x0, #0x24                  	// #36
    100e045c:	f2a7e200 	movk	x0, #0x3f10, lsl #16
    100e0460:	52800141 	mov	w1, #0xa                   	// #10
    100e0464:	72ab4001 	movk	w1, #0x5a00, lsl #16
    100e0468:	b9000001 	str	w1, [x0]
    100e046c:	d2800381 	mov	x1, #0x1c                  	// #28
    100e0470:	f2a7e201 	movk	x1, #0x3f10, lsl #16
    100e0474:	52800402 	mov	w2, #0x20                  	// #32
    100e0478:	72ab4002 	movk	w2, #0x5a00, lsl #16
    100e047c:	b9400020 	ldr	w0, [x1]
    100e0480:	121a7400 	and	w0, w0, #0xffffffcf
    100e0484:	2a020000 	orr	w0, w0, w2
    100e0488:	b9000020 	str	w0, [x1]
    100e048c:	d503207f 	wfi
    100e0490:	17ffffff 	b	100e048c <rpi3_watchdog_reset+0x48>

00000000100e0494 <rpi3_system_reset>:
    100e0494:	90000040 	adrp	x0, 100e8000 <__TEXT_END__>
    100e0498:	9104ac00 	add	x0, x0, #0x12b
    100e049c:	a9bf7bfd 	stp	x29, x30, [sp, #-16]!
    100e04a0:	910003fd 	mov	x29, sp
    100e04a4:	94000ebc 	bl	100e3f94 <tf_log>
    100e04a8:	97ffffe7 	bl	100e0444 <rpi3_watchdog_reset>

00000000100e04ac <rpi3_system_off>:
    100e04ac:	a9bf7bfd 	stp	x29, x30, [sp, #-16]!
    100e04b0:	90000040 	adrp	x0, 100e8000 <__TEXT_END__>
    100e04b4:	91057800 	add	x0, x0, #0x15e
    100e04b8:	910003fd 	mov	x29, sp
    100e04bc:	94000eb6 	bl	100e3f94 <tf_log>
    100e04c0:	d2800401 	mov	x1, #0x20                  	// #32
    100e04c4:	f2a7e201 	movk	x1, #0x3f10, lsl #16
    100e04c8:	5280aaa2 	mov	w2, #0x555                 	// #1365
    100e04cc:	72ab4002 	movk	w2, #0x5a00, lsl #16
    100e04d0:	b9400020 	ldr	w0, [x1]
    100e04d4:	2a020000 	orr	w0, w0, w2
    100e04d8:	b9000020 	str	w0, [x1]
    100e04dc:	97ffffda 	bl	100e0444 <rpi3_watchdog_reset>

00000000100e04e0 <rpi3_validate_power_state>:
    100e04e0:	b40000e1 	cbz	x1, 100e04fc <rpi3_validate_power_state+0x1c>
    100e04e4:	90000042 	adrp	x2, 100e8000 <__TEXT_END__>
    100e04e8:	91096042 	add	x2, x2, #0x258
    100e04ec:	b9400043 	ldr	w3, [x2]
    100e04f0:	35000123 	cbnz	w3, 100e0514 <rpi3_validate_power_state+0x34>
    100e04f4:	12800020 	mov	w0, #0xfffffffe            	// #-2
    100e04f8:	d65f03c0 	ret
    100e04fc:	a9bf7bfd 	stp	x29, x30, [sp, #-16]!
    100e0500:	90000040 	adrp	x0, 100e8000 <__TEXT_END__>
    100e0504:	91063c00 	add	x0, x0, #0x18f
    100e0508:	910003fd 	mov	x29, sp
    100e050c:	52800921 	mov	w1, #0x49                  	// #73
    100e0510:	940017d5 	bl	100e6464 <__assert>
    100e0514:	91001042 	add	x2, x2, #0x4
    100e0518:	6b00007f 	cmp	w3, w0
    100e051c:	54fffe81 	b.ne	100e04ec <rpi3_validate_power_state+0xc>  // b.any
    100e0520:	12003c00 	and	w0, w0, #0xffff
    100e0524:	14000004 	b	100e0534 <rpi3_validate_power_state+0x54>
    100e0528:	12000c02 	and	w2, w0, #0xf
    100e052c:	53047c00 	lsr	w0, w0, #4
    100e0530:	38001422 	strb	w2, [x1], #1
    100e0534:	35ffffa0 	cbnz	w0, 100e0528 <rpi3_validate_power_state+0x48>
    100e0538:	d65f03c0 	ret

00000000100e053c <rpi3_pwr_domain_on_finish>:
    100e053c:	39400000 	ldrb	w0, [x0]
    100e0540:	7100081f 	cmp	w0, #0x2
    100e0544:	540000e0 	b.eq	100e0560 <rpi3_pwr_domain_on_finish+0x24>  // b.none
    100e0548:	a9bf7bfd 	stp	x29, x30, [sp, #-16]!
    100e054c:	90000040 	adrp	x0, 100e8000 <__TEXT_END__>
    100e0550:	91063c00 	add	x0, x0, #0x18f
    100e0554:	910003fd 	mov	x29, sp
    100e0558:	52801381 	mov	w1, #0x9c                  	// #156
    100e055c:	940017c2 	bl	100e6464 <__assert>
    100e0560:	d65f03c0 	ret

00000000100e0564 <rpi3_cpu_standby>:
    100e0564:	12001c00 	and	w0, w0, #0xff
    100e0568:	7100041f 	cmp	w0, #0x1
    100e056c:	540000e0 	b.eq	100e0588 <rpi3_cpu_standby+0x24>  // b.none
    100e0570:	a9bf7bfd 	stp	x29, x30, [sp, #-16]!
    100e0574:	90000040 	adrp	x0, 100e8000 <__TEXT_END__>
    100e0578:	91063c00 	add	x0, x0, #0x18f
    100e057c:	910003fd 	mov	x29, sp
    100e0580:	52800da1 	mov	w1, #0x6d                  	// #109
    100e0584:	940017b8 	bl	100e6464 <__assert>
    100e0588:	d5033f9f 	dsb	sy
    100e058c:	d503207f 	wfi
    100e0590:	d65f03c0 	ret

00000000100e0594 <rpi3_pwr_domain_on>:
    100e0594:	a9bf7bfd 	stp	x29, x30, [sp, #-16]!
    100e0598:	910003fd 	mov	x29, sp
    100e059c:	9400001b 	bl	100e0608 <plat_core_pos_by_mpidr>
    100e05a0:	71000c1f 	cmp	w0, #0x3
    100e05a4:	540000a9 	b.ls	100e05b8 <rpi3_pwr_domain_on+0x24>  // b.plast
    100e05a8:	90000040 	adrp	x0, 100e8000 <__TEXT_END__>
    100e05ac:	91063c00 	add	x0, x0, #0x18f
    100e05b0:	52801101 	mov	w1, #0x88                  	// #136
    100e05b4:	940017ac 	bl	100e6464 <__assert>
    100e05b8:	d2a20001 	mov	x1, #0x10000000            	// #268435456
    100e05bc:	8b204c20 	add	x0, x1, w0, uxtw #3
    100e05c0:	d2800021 	mov	x1, #0x1                   	// #1
    100e05c4:	f9000401 	str	x1, [x0, #8]
    100e05c8:	d5033f9f 	dsb	sy
    100e05cc:	d5033fdf 	isb
    100e05d0:	d503209f 	sev
    100e05d4:	52800000 	mov	w0, #0x0                   	// #0
    100e05d8:	a8c17bfd 	ldp	x29, x30, [sp], #16
    100e05dc:	d65f03c0 	ret

00000000100e05e0 <plat_setup_psci_ops>:
    100e05e0:	d2a20002 	mov	x2, #0x10000000            	// #268435456
    100e05e4:	f9000040 	str	x0, [x2]
    100e05e8:	90000040 	adrp	x0, 100e8000 <__TEXT_END__>
    100e05ec:	9106c000 	add	x0, x0, #0x1b0
    100e05f0:	f9000020 	str	x0, [x1]
    100e05f4:	52800000 	mov	w0, #0x0                   	// #0
    100e05f8:	d65f03c0 	ret

00000000100e05fc <plat_get_power_domain_tree_desc>:
    100e05fc:	d0000040 	adrp	x0, 100ea000 <__RODATA_END__>
    100e0600:	91000000 	add	x0, x0, #0x0
    100e0604:	d65f03c0 	ret

00000000100e0608 <plat_core_pos_by_mpidr>:
    100e0608:	aa0003e1 	mov	x1, x0
    100e060c:	92409c00 	and	x0, x0, #0xffffffffff
    100e0610:	92705c21 	and	x1, x1, #0xffffff0000
    100e0614:	9260dc00 	and	x0, x0, #0xffffffff00ffffff
    100e0618:	9260dc21 	and	x1, x1, #0xffffffff00ffffff
    100e061c:	b50000c1 	cbnz	x1, 100e0634 <plat_core_pos_by_mpidr+0x2c>
    100e0620:	53083c01 	ubfx	w1, w0, #8, #8
    100e0624:	121e1402 	and	w2, w0, #0xfc
    100e0628:	2a020021 	orr	w1, w1, w2
    100e062c:	35000041 	cbnz	w1, 100e0634 <plat_core_pos_by_mpidr+0x2c>
    100e0630:	140013a0 	b	100e54b0 <plat_rpi3_calc_core_pos>
    100e0634:	12800000 	mov	w0, #0xffffffff            	// #-1
    100e0638:	d65f03c0 	ret

00000000100e063c <fdt32_to_cpu>:
    100e063c:	5ac00800 	rev	w0, w0
    100e0640:	d65f03c0 	ret

00000000100e0644 <fdt_check_header>:
    100e0644:	a9bf7bfd 	stp	x29, x30, [sp, #-16]!
    100e0648:	aa0003e1 	mov	x1, x0
    100e064c:	910003fd 	mov	x29, sp
    100e0650:	b9400000 	ldr	w0, [x0]
    100e0654:	97fffffa 	bl	100e063c <fdt32_to_cpu>
    100e0658:	529fdda2 	mov	w2, #0xfeed                	// #65261
    100e065c:	72ba01a2 	movk	w2, #0xd00d, lsl #16
    100e0660:	6b02001f 	cmp	w0, w2
    100e0664:	54000181 	b.ne	100e0694 <fdt_check_header+0x50>  // b.any
    100e0668:	b9401420 	ldr	w0, [x1, #20]
    100e066c:	97fffff4 	bl	100e063c <fdt32_to_cpu>
    100e0670:	7100041f 	cmp	w0, #0x1
    100e0674:	54000249 	b.ls	100e06bc <fdt_check_header+0x78>  // b.plast
    100e0678:	b9401820 	ldr	w0, [x1, #24]
    100e067c:	97fffff0 	bl	100e063c <fdt32_to_cpu>
    100e0680:	7100441f 	cmp	w0, #0x11
    100e0684:	12800120 	mov	w0, #0xfffffff6            	// #-10
    100e0688:	1a8093e0 	csel	w0, wzr, w0, ls  // ls = plast
    100e068c:	a8c17bfd 	ldp	x29, x30, [sp], #16
    100e0690:	d65f03c0 	ret
    100e0694:	52802242 	mov	w2, #0x112                 	// #274
    100e0698:	72a5fe42 	movk	w2, #0x2ff2, lsl #16
    100e069c:	6b02001f 	cmp	w0, w2
    100e06a0:	54000121 	b.ne	100e06c4 <fdt_check_header+0x80>  // b.any
    100e06a4:	b9402420 	ldr	w0, [x1, #36]
    100e06a8:	97ffffe5 	bl	100e063c <fdt32_to_cpu>
    100e06ac:	7100001f 	cmp	w0, #0x0
    100e06b0:	128000c0 	mov	w0, #0xfffffff9            	// #-7
    100e06b4:	1a8013e0 	csel	w0, wzr, w0, ne  // ne = any
    100e06b8:	17fffff5 	b	100e068c <fdt_check_header+0x48>
    100e06bc:	12800120 	mov	w0, #0xfffffff6            	// #-10
    100e06c0:	17fffff3 	b	100e068c <fdt_check_header+0x48>
    100e06c4:	12800100 	mov	w0, #0xfffffff7            	// #-9
    100e06c8:	17fffff1 	b	100e068c <fdt_check_header+0x48>

00000000100e06cc <fdt32_to_cpu>:
    100e06cc:	5ac00800 	rev	w0, w0
    100e06d0:	d65f03c0 	ret

00000000100e06d4 <fdt64_to_cpu>:
    100e06d4:	dac00c00 	rev	x0, x0
    100e06d8:	d65f03c0 	ret

00000000100e06dc <fdt_get_mem_rsv>:
    100e06dc:	a9bd7bfd 	stp	x29, x30, [sp, #-48]!
    100e06e0:	910003fd 	mov	x29, sp
    100e06e4:	a90153f3 	stp	x19, x20, [sp, #16]
    100e06e8:	aa0003f4 	mov	x20, x0
    100e06ec:	2a0103f3 	mov	w19, w1
    100e06f0:	a9025bf5 	stp	x21, x22, [sp, #32]
    100e06f4:	aa0203f6 	mov	x22, x2
    100e06f8:	aa0303f5 	mov	x21, x3
    100e06fc:	97ffffd2 	bl	100e0644 <fdt_check_header>
    100e0700:	2a0003e4 	mov	w4, w0
    100e0704:	35000180 	cbnz	w0, 100e0734 <fdt_get_mem_rsv+0x58>
    100e0708:	b9401280 	ldr	w0, [x20, #16]
    100e070c:	97fffff0 	bl	100e06cc <fdt32_to_cpu>
    100e0710:	2a0003e1 	mov	w1, w0
    100e0714:	8b33d021 	add	x1, x1, w19, sxtw #4
    100e0718:	8b010282 	add	x2, x20, x1
    100e071c:	f8616a80 	ldr	x0, [x20, x1]
    100e0720:	97ffffed 	bl	100e06d4 <fdt64_to_cpu>
    100e0724:	f90002c0 	str	x0, [x22]
    100e0728:	f9400440 	ldr	x0, [x2, #8]
    100e072c:	97ffffea 	bl	100e06d4 <fdt64_to_cpu>
    100e0730:	f90002a0 	str	x0, [x21]
    100e0734:	2a0403e0 	mov	w0, w4
    100e0738:	a94153f3 	ldp	x19, x20, [sp, #16]
    100e073c:	a9425bf5 	ldp	x21, x22, [sp, #32]
    100e0740:	a8c37bfd 	ldp	x29, x30, [sp], #48
    100e0744:	d65f03c0 	ret

00000000100e0748 <fdt_num_mem_rsv>:
    100e0748:	a9bf7bfd 	stp	x29, x30, [sp, #-16]!
    100e074c:	aa0003e1 	mov	x1, x0
    100e0750:	910003fd 	mov	x29, sp
    100e0754:	b9401000 	ldr	w0, [x0, #16]
    100e0758:	97ffffdd 	bl	100e06cc <fdt32_to_cpu>
    100e075c:	8b204021 	add	x1, x1, w0, uxtw
    100e0760:	52800002 	mov	w2, #0x0                   	// #0
    100e0764:	f9400420 	ldr	x0, [x1, #8]
    100e0768:	97ffffdb 	bl	100e06d4 <fdt64_to_cpu>
    100e076c:	91004021 	add	x1, x1, #0x10
    100e0770:	b5000080 	cbnz	x0, 100e0780 <fdt_num_mem_rsv+0x38>
    100e0774:	2a0203e0 	mov	w0, w2
    100e0778:	a8c17bfd 	ldp	x29, x30, [sp], #16
    100e077c:	d65f03c0 	ret
    100e0780:	11000442 	add	w2, w2, #0x1
    100e0784:	17fffff8 	b	100e0764 <fdt_num_mem_rsv+0x1c>

00000000100e0788 <cpu_to_fdt32>:
    100e0788:	5ac00800 	rev	w0, w0
    100e078c:	d65f03c0 	ret

00000000100e0790 <cpu_to_fdt64>:
    100e0790:	dac00c00 	rev	x0, x0
    100e0794:	d65f03c0 	ret

00000000100e0798 <fdt_blocks_misordered_>:
    100e0798:	a9bf7bfd 	stp	x29, x30, [sp, #-16]!
    100e079c:	aa0003e3 	mov	x3, x0
    100e07a0:	910003fd 	mov	x29, sp
    100e07a4:	b9401000 	ldr	w0, [x0, #16]
    100e07a8:	97fffff8 	bl	100e0788 <cpu_to_fdt32>
    100e07ac:	71009c1f 	cmp	w0, #0x27
    100e07b0:	54000309 	b.ls	100e0810 <fdt_blocks_misordered_+0x78>  // b.plast
    100e07b4:	2a0003e5 	mov	w5, w0
    100e07b8:	b9400860 	ldr	w0, [x3, #8]
    100e07bc:	97fffff3 	bl	100e0788 <cpu_to_fdt32>
    100e07c0:	0b050021 	add	w1, w1, w5
    100e07c4:	2a0003e4 	mov	w4, w0
    100e07c8:	6b01001f 	cmp	w0, w1
    100e07cc:	54000223 	b.cc	100e0810 <fdt_blocks_misordered_+0x78>  // b.lo, b.ul, b.last
    100e07d0:	b9400c60 	ldr	w0, [x3, #12]
    100e07d4:	97ffffed 	bl	100e0788 <cpu_to_fdt32>
    100e07d8:	0b040042 	add	w2, w2, w4
    100e07dc:	2a0003e1 	mov	w1, w0
    100e07e0:	6b02001f 	cmp	w0, w2
    100e07e4:	54000163 	b.cc	100e0810 <fdt_blocks_misordered_+0x78>  // b.lo, b.ul, b.last
    100e07e8:	b9400460 	ldr	w0, [x3, #4]
    100e07ec:	97ffffe7 	bl	100e0788 <cpu_to_fdt32>
    100e07f0:	2a0003e2 	mov	w2, w0
    100e07f4:	b9402060 	ldr	w0, [x3, #32]
    100e07f8:	97ffffe4 	bl	100e0788 <cpu_to_fdt32>
    100e07fc:	0b000021 	add	w1, w1, w0
    100e0800:	6b01005f 	cmp	w2, w1
    100e0804:	1a9f27e0 	cset	w0, cc  // cc = lo, ul, last
    100e0808:	a8c17bfd 	ldp	x29, x30, [sp], #16
    100e080c:	d65f03c0 	ret
    100e0810:	52800020 	mov	w0, #0x1                   	// #1
    100e0814:	17fffffd 	b	100e0808 <fdt_blocks_misordered_+0x70>

00000000100e0818 <fdt_rw_check_header_>:
    100e0818:	a9be7bfd 	stp	x29, x30, [sp, #-32]!
    100e081c:	910003fd 	mov	x29, sp
    100e0820:	f9000bf3 	str	x19, [sp, #16]
    100e0824:	aa0003f3 	mov	x19, x0
    100e0828:	97ffff87 	bl	100e0644 <fdt_check_header>
    100e082c:	35000220 	cbnz	w0, 100e0870 <fdt_rw_check_header_+0x58>
    100e0830:	b9401660 	ldr	w0, [x19, #20]
    100e0834:	97ffffd5 	bl	100e0788 <cpu_to_fdt32>
    100e0838:	2a0003e6 	mov	w6, w0
    100e083c:	7100401f 	cmp	w0, #0x10
    100e0840:	540001e9 	b.ls	100e087c <fdt_rw_check_header_+0x64>  // b.plast
    100e0844:	b9402660 	ldr	w0, [x19, #36]
    100e0848:	97ffffd0 	bl	100e0788 <cpu_to_fdt32>
    100e084c:	2a0003e2 	mov	w2, w0
    100e0850:	52800201 	mov	w1, #0x10                  	// #16
    100e0854:	aa1303e0 	mov	x0, x19
    100e0858:	97ffffd0 	bl	100e0798 <fdt_blocks_misordered_>
    100e085c:	35000140 	cbnz	w0, 100e0884 <fdt_rw_check_header_+0x6c>
    100e0860:	710044df 	cmp	w6, #0x11
    100e0864:	54000060 	b.eq	100e0870 <fdt_rw_check_header_+0x58>  // b.none
    100e0868:	52a22001 	mov	w1, #0x11000000            	// #285212672
    100e086c:	b9001661 	str	w1, [x19, #20]
    100e0870:	f9400bf3 	ldr	x19, [sp, #16]
    100e0874:	a8c27bfd 	ldp	x29, x30, [sp], #32
    100e0878:	d65f03c0 	ret
    100e087c:	12800120 	mov	w0, #0xfffffff6            	// #-10
    100e0880:	17fffffc 	b	100e0870 <fdt_rw_check_header_+0x58>
    100e0884:	12800160 	mov	w0, #0xfffffff4            	// #-12
    100e0888:	17fffffa 	b	100e0870 <fdt_rw_check_header_+0x58>

00000000100e088c <fdt_splice_>:
    100e088c:	a9bf7bfd 	stp	x29, x30, [sp, #-16]!
    100e0890:	aa0003e5 	mov	x5, x0
    100e0894:	910003fd 	mov	x29, sp
    100e0898:	b9400c00 	ldr	w0, [x0, #12]
    100e089c:	97ffffbb 	bl	100e0788 <cpu_to_fdt32>
    100e08a0:	2a0003e4 	mov	w4, w0
    100e08a4:	b94020a0 	ldr	w0, [x5, #32]
    100e08a8:	97ffffb8 	bl	100e0788 <cpu_to_fdt32>
    100e08ac:	0b000084 	add	w4, w4, w0
    100e08b0:	8b24c0a4 	add	x4, x5, w4, sxtw
    100e08b4:	37f80322 	tbnz	w2, #31, 100e0918 <fdt_splice_+0x8c>
    100e08b8:	aa0103e6 	mov	x6, x1
    100e08bc:	8b22c021 	add	x1, x1, w2, sxtw
    100e08c0:	93407c48 	sxtw	x8, w2
    100e08c4:	eb04003f 	cmp	x1, x4
    100e08c8:	54000288 	b.hi	100e0918 <fdt_splice_+0x8c>  // b.pmore
    100e08cc:	eb0500df 	cmp	x6, x5
    100e08d0:	54000243 	b.cc	100e0918 <fdt_splice_+0x8c>  // b.lo, b.ul, b.last
    100e08d4:	93407c63 	sxtw	x3, w3
    100e08d8:	cb080067 	sub	x7, x3, x8
    100e08dc:	8b070087 	add	x7, x4, x7
    100e08e0:	eb0500ff 	cmp	x7, x5
    100e08e4:	540001a3 	b.cc	100e0918 <fdt_splice_+0x8c>  // b.lo, b.ul, b.last
    100e08e8:	b94004a0 	ldr	w0, [x5, #4]
    100e08ec:	97ffffa7 	bl	100e0788 <cpu_to_fdt32>
    100e08f0:	8b2040a5 	add	x5, x5, w0, uxtw
    100e08f4:	eb0500ff 	cmp	x7, x5
    100e08f8:	54000148 	b.hi	100e0920 <fdt_splice_+0x94>  // b.pmore
    100e08fc:	cb060084 	sub	x4, x4, x6
    100e0900:	8b0300c0 	add	x0, x6, x3
    100e0904:	cb080082 	sub	x2, x4, x8
    100e0908:	940016eb 	bl	100e64b4 <memmove>
    100e090c:	52800000 	mov	w0, #0x0                   	// #0
    100e0910:	a8c17bfd 	ldp	x29, x30, [sp], #16
    100e0914:	d65f03c0 	ret
    100e0918:	12800060 	mov	w0, #0xfffffffc            	// #-4
    100e091c:	17fffffd 	b	100e0910 <fdt_splice_+0x84>
    100e0920:	12800040 	mov	w0, #0xfffffffd            	// #-3
    100e0924:	17fffffb 	b	100e0910 <fdt_splice_+0x84>

00000000100e0928 <fdt_splice_mem_rsv_>:
    100e0928:	a9bd7bfd 	stp	x29, x30, [sp, #-48]!
    100e092c:	910003fd 	mov	x29, sp
    100e0930:	a90153f3 	stp	x19, x20, [sp, #16]
    100e0934:	aa0003f4 	mov	x20, x0
    100e0938:	2a0303f3 	mov	w19, w3
    100e093c:	531c6c63 	lsl	w3, w3, #4
    100e0940:	f90013f5 	str	x21, [sp, #32]
    100e0944:	2a0203f5 	mov	w21, w2
    100e0948:	531c6c42 	lsl	w2, w2, #4
    100e094c:	97ffffd0 	bl	100e088c <fdt_splice_>
    100e0950:	2a0003e1 	mov	w1, w0
    100e0954:	350001a0 	cbnz	w0, 100e0988 <fdt_splice_mem_rsv_+0x60>
    100e0958:	b9400a80 	ldr	w0, [x20, #8]
    100e095c:	4b150273 	sub	w19, w19, w21
    100e0960:	531c6e73 	lsl	w19, w19, #4
    100e0964:	97ffff89 	bl	100e0788 <cpu_to_fdt32>
    100e0968:	0b000260 	add	w0, w19, w0
    100e096c:	97ffff87 	bl	100e0788 <cpu_to_fdt32>
    100e0970:	b9000a80 	str	w0, [x20, #8]
    100e0974:	b9400e80 	ldr	w0, [x20, #12]
    100e0978:	97ffff84 	bl	100e0788 <cpu_to_fdt32>
    100e097c:	0b000260 	add	w0, w19, w0
    100e0980:	97ffff82 	bl	100e0788 <cpu_to_fdt32>
    100e0984:	b9000e80 	str	w0, [x20, #12]
    100e0988:	2a0103e0 	mov	w0, w1
    100e098c:	a94153f3 	ldp	x19, x20, [sp, #16]
    100e0990:	f94013f5 	ldr	x21, [sp, #32]
    100e0994:	a8c37bfd 	ldp	x29, x30, [sp], #48
    100e0998:	d65f03c0 	ret

00000000100e099c <fdt_add_mem_rsv>:
    100e099c:	a9bc7bfd 	stp	x29, x30, [sp, #-64]!
    100e09a0:	910003fd 	mov	x29, sp
    100e09a4:	a90153f3 	stp	x19, x20, [sp, #16]
    100e09a8:	aa0003f3 	mov	x19, x0
    100e09ac:	a9025bf5 	stp	x21, x22, [sp, #32]
    100e09b0:	aa0103f6 	mov	x22, x1
    100e09b4:	aa0203f5 	mov	x21, x2
    100e09b8:	f9001bf7 	str	x23, [sp, #48]
    100e09bc:	97ffff97 	bl	100e0818 <fdt_rw_check_header_>
    100e09c0:	2a0003e3 	mov	w3, w0
    100e09c4:	350002c0 	cbnz	w0, 100e0a1c <fdt_add_mem_rsv+0x80>
    100e09c8:	aa1303e0 	mov	x0, x19
    100e09cc:	97ffff5f 	bl	100e0748 <fdt_num_mem_rsv>
    100e09d0:	2a0003f4 	mov	w20, w0
    100e09d4:	b9401260 	ldr	w0, [x19, #16]
    100e09d8:	97ffff6c 	bl	100e0788 <cpu_to_fdt32>
    100e09dc:	2a0003e0 	mov	w0, w0
    100e09e0:	8b34d014 	add	x20, x0, w20, sxtw #4
    100e09e4:	52800023 	mov	w3, #0x1                   	// #1
    100e09e8:	8b140277 	add	x23, x19, x20
    100e09ec:	aa1303e0 	mov	x0, x19
    100e09f0:	aa1703e1 	mov	x1, x23
    100e09f4:	52800002 	mov	w2, #0x0                   	// #0
    100e09f8:	97ffffcc 	bl	100e0928 <fdt_splice_mem_rsv_>
    100e09fc:	2a0003e3 	mov	w3, w0
    100e0a00:	350000e0 	cbnz	w0, 100e0a1c <fdt_add_mem_rsv+0x80>
    100e0a04:	aa1603e0 	mov	x0, x22
    100e0a08:	97ffff62 	bl	100e0790 <cpu_to_fdt64>
    100e0a0c:	f8346a60 	str	x0, [x19, x20]
    100e0a10:	aa1503e0 	mov	x0, x21
    100e0a14:	97ffff5f 	bl	100e0790 <cpu_to_fdt64>
    100e0a18:	f90006e0 	str	x0, [x23, #8]
    100e0a1c:	2a0303e0 	mov	w0, w3
    100e0a20:	a94153f3 	ldp	x19, x20, [sp, #16]
    100e0a24:	a9425bf5 	ldp	x21, x22, [sp, #32]
    100e0a28:	f9401bf7 	ldr	x23, [sp, #48]
    100e0a2c:	a8c47bfd 	ldp	x29, x30, [sp], #64
    100e0a30:	d65f03c0 	ret

00000000100e0a34 <fdt_del_mem_rsv>:
    100e0a34:	a9bd7bfd 	stp	x29, x30, [sp, #-48]!
    100e0a38:	910003fd 	mov	x29, sp
    100e0a3c:	a90153f3 	stp	x19, x20, [sp, #16]
    100e0a40:	aa0003f3 	mov	x19, x0
    100e0a44:	2a0103f4 	mov	w20, w1
    100e0a48:	f90013f5 	str	x21, [sp, #32]
    100e0a4c:	b9401015 	ldr	w21, [x0, #16]
    100e0a50:	97ffff72 	bl	100e0818 <fdt_rw_check_header_>
    100e0a54:	35000240 	cbnz	w0, 100e0a9c <fdt_del_mem_rsv+0x68>
    100e0a58:	aa1303e0 	mov	x0, x19
    100e0a5c:	97ffff3b 	bl	100e0748 <fdt_num_mem_rsv>
    100e0a60:	6b14001f 	cmp	w0, w20
    100e0a64:	540001ad 	b.le	100e0a98 <fdt_del_mem_rsv+0x64>
    100e0a68:	2a1503e0 	mov	w0, w21
    100e0a6c:	97ffff47 	bl	100e0788 <cpu_to_fdt32>
    100e0a70:	2a0003e1 	mov	w1, w0
    100e0a74:	aa1303e0 	mov	x0, x19
    100e0a78:	8b34d021 	add	x1, x1, w20, sxtw #4
    100e0a7c:	52800003 	mov	w3, #0x0                   	// #0
    100e0a80:	8b010261 	add	x1, x19, x1
    100e0a84:	52800022 	mov	w2, #0x1                   	// #1
    100e0a88:	a94153f3 	ldp	x19, x20, [sp, #16]
    100e0a8c:	f94013f5 	ldr	x21, [sp, #32]
    100e0a90:	a8c37bfd 	ldp	x29, x30, [sp], #48
    100e0a94:	17ffffa5 	b	100e0928 <fdt_splice_mem_rsv_>
    100e0a98:	12800000 	mov	w0, #0xffffffff            	// #-1
    100e0a9c:	a94153f3 	ldp	x19, x20, [sp, #16]
    100e0aa0:	f94013f5 	ldr	x21, [sp, #32]
    100e0aa4:	a8c37bfd 	ldp	x29, x30, [sp], #48
    100e0aa8:	d65f03c0 	ret

00000000100e0aac <get_arm_std_svc_args>:
    100e0aac:	529ffc01 	mov	w1, #0xffe0                	// #65504
    100e0ab0:	6b01001f 	cmp	w0, w1
    100e0ab4:	540000e0 	b.eq	100e0ad0 <get_arm_std_svc_args+0x24>  // b.none
    100e0ab8:	a9bf7bfd 	stp	x29, x30, [sp, #-16]!
    100e0abc:	90000040 	adrp	x0, 100e8000 <__TEXT_END__>
    100e0ac0:	9109a000 	add	x0, x0, #0x268
    100e0ac4:	910003fd 	mov	x29, sp
    100e0ac8:	528006c1 	mov	w1, #0x36                  	// #54
    100e0acc:	94001666 	bl	100e6464 <__assert>
    100e0ad0:	90000040 	adrp	x0, 100e8000 <__TEXT_END__>
    100e0ad4:	910e4000 	add	x0, x0, #0x390
    100e0ad8:	d65f03c0 	ret

00000000100e0adc <bl31_setup>:
    100e0adc:	a9bf7bfd 	stp	x29, x30, [sp, #-16]!
    100e0ae0:	910003fd 	mov	x29, sp
    100e0ae4:	97fffdca 	bl	100e020c <bl31_early_platform_setup2>
    100e0ae8:	a8c17bfd 	ldp	x29, x30, [sp], #16
    100e0aec:	17fffe09 	b	100e0310 <bl31_plat_arch_setup>

00000000100e0af0 <bl31_prepare_next_image_entry>:
    100e0af0:	a9bd7bfd 	stp	x29, x30, [sp, #-48]!
    100e0af4:	910003fd 	mov	x29, sp
    100e0af8:	a90153f3 	stp	x19, x20, [sp, #16]
    100e0afc:	f90013f5 	str	x21, [sp, #32]
    100e0b00:	d5380400 	mrs	x0, id_aa64pfr0_el1
    100e0b04:	d3441c00 	ubfx	x0, x0, #4, #4
    100e0b08:	f100041f 	cmp	x0, #0x1
    100e0b0c:	54000121 	b.ne	100e0b30 <bl31_prepare_next_image_entry+0x40>  // b.any
    100e0b10:	90000040 	adrp	x0, 100e8000 <__TEXT_END__>
    100e0b14:	910a1c00 	add	x0, x0, #0x287
    100e0b18:	94000d1f 	bl	100e3f94 <tf_log>
    100e0b1c:	90000040 	adrp	x0, 100e8000 <__TEXT_END__>
    100e0b20:	910dc000 	add	x0, x0, #0x370
    100e0b24:	94000e15 	bl	100e4378 <backtrace>
    100e0b28:	94000db2 	bl	100e41f0 <console_flush>
    100e0b2c:	940014fb 	bl	100e5f18 <do_panic>
    100e0b30:	d0000040 	adrp	x0, 100ea000 <__RODATA_END__>
    100e0b34:	b9400415 	ldr	w21, [x0, #4]
    100e0b38:	2a1503e0 	mov	w0, w21
    100e0b3c:	97fffda3 	bl	100e01c8 <bl31_plat_get_next_image_ep_info>
    100e0b40:	aa0003f3 	mov	x19, x0
    100e0b44:	b50000a0 	cbnz	x0, 100e0b58 <bl31_prepare_next_image_entry+0x68>
    100e0b48:	528018a1 	mov	w1, #0xc5                  	// #197
    100e0b4c:	90000040 	adrp	x0, 100e8000 <__TEXT_END__>
    100e0b50:	9109a000 	add	x0, x0, #0x268
    100e0b54:	94001644 	bl	100e6464 <__assert>
    100e0b58:	b9400414 	ldr	w20, [x0, #4]
    100e0b5c:	12000294 	and	w20, w20, #0x1
    100e0b60:	6b15029f 	cmp	w20, w21
    100e0b64:	54000060 	b.eq	100e0b70 <bl31_prepare_next_image_entry+0x80>  // b.none
    100e0b68:	528018c1 	mov	w1, #0xc6                  	// #198
    100e0b6c:	17fffff8 	b	100e0b4c <bl31_prepare_next_image_entry+0x5c>
    100e0b70:	7100029f 	cmp	w20, #0x0
    100e0b74:	90000040 	adrp	x0, 100e8000 <__TEXT_END__>
    100e0b78:	90000041 	adrp	x1, 100e8000 <__TEXT_END__>
    100e0b7c:	910a0000 	add	x0, x0, #0x280
    100e0b80:	9109e421 	add	x1, x1, #0x279
    100e0b84:	9a800021 	csel	x1, x1, x0, eq  // eq = none
    100e0b88:	90000040 	adrp	x0, 100e8000 <__TEXT_END__>
    100e0b8c:	910b5c00 	add	x0, x0, #0x2d7
    100e0b90:	94000d01 	bl	100e3f94 <tf_log>
    100e0b94:	aa1303e0 	mov	x0, x19
    100e0b98:	94000cf1 	bl	100e3f5c <print_entry_point_info>
    100e0b9c:	aa1303e0 	mov	x0, x19
    100e0ba0:	940001f8 	bl	100e1380 <cm_init_my_context>
    100e0ba4:	2a1403e0 	mov	w0, w20
    100e0ba8:	a94153f3 	ldp	x19, x20, [sp, #16]
    100e0bac:	f94013f5 	ldr	x21, [sp, #32]
    100e0bb0:	a8c37bfd 	ldp	x29, x30, [sp], #48
    100e0bb4:	14000285 	b	100e15c8 <cm_prepare_el3_exit>

00000000100e0bb8 <bl31_main>:
    100e0bb8:	a9be7bfd 	stp	x29, x30, [sp, #-32]!
    100e0bbc:	90000041 	adrp	x1, 100e8000 <__TEXT_END__>
    100e0bc0:	91007821 	add	x1, x1, #0x1e
    100e0bc4:	910003fd 	mov	x29, sp
    100e0bc8:	f9000bf3 	str	x19, [sp, #16]
    100e0bcc:	90000053 	adrp	x19, 100e8000 <__TEXT_END__>
    100e0bd0:	910c0a73 	add	x19, x19, #0x302
    100e0bd4:	aa1303e0 	mov	x0, x19
    100e0bd8:	94000cef 	bl	100e3f94 <tf_log>
    100e0bdc:	aa1303e0 	mov	x0, x19
    100e0be0:	90000041 	adrp	x1, 100e8000 <__TEXT_END__>
    100e0be4:	91000021 	add	x1, x1, #0x0
    100e0be8:	94000ceb 	bl	100e3f94 <tf_log>
    100e0bec:	97fffde1 	bl	100e0370 <bl31_platform_setup>
    100e0bf0:	9400018c 	bl	100e1220 <cm_init>
    100e0bf4:	90000040 	adrp	x0, 100e8000 <__TEXT_END__>
    100e0bf8:	910c3400 	add	x0, x0, #0x30d
    100e0bfc:	94000ce6 	bl	100e3f94 <tf_log>
    100e0c00:	940000cc 	bl	100e0f30 <runtime_svc_init>
    100e0c04:	d0000073 	adrp	x19, 100ee000 <__STACKS_START__+0x3f80>
    100e0c08:	f9409a60 	ldr	x0, [x19, #304]
    100e0c0c:	b4000140 	cbz	x0, 100e0c34 <bl31_main+0x7c>
    100e0c10:	90000040 	adrp	x0, 100e8000 <__TEXT_END__>
    100e0c14:	910ccc00 	add	x0, x0, #0x333
    100e0c18:	94000cdf 	bl	100e3f94 <tf_log>
    100e0c1c:	f9409a60 	ldr	x0, [x19, #304]
    100e0c20:	d63f0000 	blr	x0
    100e0c24:	35000080 	cbnz	w0, 100e0c34 <bl31_main+0x7c>
    100e0c28:	90000040 	adrp	x0, 100e8000 <__TEXT_END__>
    100e0c2c:	910d3400 	add	x0, x0, #0x34d
    100e0c30:	94000cd9 	bl	100e3f94 <tf_log>
    100e0c34:	97ffffaf 	bl	100e0af0 <bl31_prepare_next_image_entry>
    100e0c38:	94000d6e 	bl	100e41f0 <console_flush>
    100e0c3c:	f9400bf3 	ldr	x19, [sp, #16]
    100e0c40:	a8c27bfd 	ldp	x29, x30, [sp], #32
    100e0c44:	14000d93 	b	100e4290 <bl31_plat_runtime_setup>

00000000100e0c48 <bl31_register_bl32_init>:
    100e0c48:	d0000061 	adrp	x1, 100ee000 <__STACKS_START__+0x3f80>
    100e0c4c:	f9009820 	str	x0, [x1, #304]
    100e0c50:	d65f03c0 	ret

00000000100e0c54 <set_scr_el3_from_rm>:
    100e0c54:	a9bd7bfd 	stp	x29, x30, [sp, #-48]!
    100e0c58:	1ac22421 	lsr	w1, w1, w2
    100e0c5c:	910003fd 	mov	x29, sp
    100e0c60:	a90153f3 	stp	x19, x20, [sp, #16]
    100e0c64:	2a0203f4 	mov	w20, w2
    100e0c68:	2a0003f3 	mov	w19, w0
    100e0c6c:	a9025bf5 	stp	x21, x22, [sp, #32]
    100e0c70:	12000035 	and	w21, w1, #0x1
    100e0c74:	2a0203e1 	mov	w1, w2
    100e0c78:	94000e5b 	bl	100e45e4 <plat_interrupt_type_to_line>
    100e0c7c:	2a0003f6 	mov	w22, w0
    100e0c80:	d28000c0 	mov	x0, #0x6                   	// #6
    100e0c84:	9b007e73 	mul	x19, x19, x0
    100e0c88:	d0000060 	adrp	x0, 100ee000 <__STACKS_START__+0x3f80>
    100e0c8c:	9104e000 	add	x0, x0, #0x138
    100e0c90:	8b344273 	add	x19, x19, w20, uxtw
    100e0c94:	8b130813 	add	x19, x0, x19, lsl #2
    100e0c98:	1ad622a0 	lsl	w0, w21, w22
    100e0c9c:	b9000e60 	str	w0, [x19, #12]
    100e0ca0:	2a1403e0 	mov	w0, w20
    100e0ca4:	9400006e 	bl	100e0e5c <cm_get_context>
    100e0ca8:	b4000100 	cbz	x0, 100e0cc8 <set_scr_el3_from_rm+0x74>
    100e0cac:	2a1503e2 	mov	w2, w21
    100e0cb0:	2a1603e1 	mov	w1, w22
    100e0cb4:	2a1403e0 	mov	w0, w20
    100e0cb8:	a94153f3 	ldp	x19, x20, [sp, #16]
    100e0cbc:	a9425bf5 	ldp	x21, x22, [sp, #32]
    100e0cc0:	a8c37bfd 	ldp	x29, x30, [sp], #48
    100e0cc4:	14000210 	b	100e1504 <cm_write_scr_el3_bit>
    100e0cc8:	a94153f3 	ldp	x19, x20, [sp, #16]
    100e0ccc:	a9425bf5 	ldp	x21, x22, [sp, #32]
    100e0cd0:	a8c37bfd 	ldp	x29, x30, [sp], #48
    100e0cd4:	d65f03c0 	ret

00000000100e0cd8 <get_scr_el3_from_routing_model>:
    100e0cd8:	7100041f 	cmp	w0, #0x1
    100e0cdc:	540000e9 	b.ls	100e0cf8 <get_scr_el3_from_routing_model+0x20>  // b.plast
    100e0ce0:	a9bf7bfd 	stp	x29, x30, [sp, #-16]!
    100e0ce4:	90000040 	adrp	x0, 100e8000 <__TEXT_END__>
    100e0ce8:	910e8000 	add	x0, x0, #0x3a0
    100e0cec:	910003fd 	mov	x29, sp
    100e0cf0:	52800aa1 	mov	w1, #0x55                  	// #85
    100e0cf4:	940015dc 	bl	100e6464 <__assert>
    100e0cf8:	d0000061 	adrp	x1, 100ee000 <__STACKS_START__+0x3f80>
    100e0cfc:	9104e022 	add	x2, x1, #0x138
    100e0d00:	2a0003e1 	mov	w1, w0
    100e0d04:	8b010840 	add	x0, x2, x1, lsl #2
    100e0d08:	8b010843 	add	x3, x2, x1, lsl #2
    100e0d0c:	8b010841 	add	x1, x2, x1, lsl #2
    100e0d10:	b9403c00 	ldr	w0, [x0, #60]
    100e0d14:	b9400c63 	ldr	w3, [x3, #12]
    100e0d18:	b9402421 	ldr	w1, [x1, #36]
    100e0d1c:	2a030000 	orr	w0, w0, w3
    100e0d20:	2a010000 	orr	w0, w0, w1
    100e0d24:	d65f03c0 	ret

00000000100e0d28 <set_routing_model>:
    100e0d28:	a9be7bfd 	stp	x29, x30, [sp, #-32]!
    100e0d2c:	910003fd 	mov	x29, sp
    100e0d30:	a90153f3 	stp	x19, x20, [sp, #16]
    100e0d34:	2a0103f4 	mov	w20, w1
    100e0d38:	2a0003f3 	mov	w19, w0
    100e0d3c:	721e7801 	ands	w1, w0, #0xfffffffd
    100e0d40:	54000060 	b.eq	100e0d4c <set_routing_model+0x24>  // b.none
    100e0d44:	7100041f 	cmp	w0, #0x1
    100e0d48:	54000341 	b.ne	100e0db0 <set_routing_model+0x88>  // b.any
    100e0d4c:	12000680 	and	w0, w20, #0x3
    100e0d50:	350002d3 	cbnz	w19, 100e0da8 <set_routing_model+0x80>
    100e0d54:	51000800 	sub	w0, w0, #0x2
    100e0d58:	7100041f 	cmp	w0, #0x1
    100e0d5c:	540002a8 	b.hi	100e0db0 <set_routing_model+0x88>  // b.pmore
    100e0d60:	2a1303e0 	mov	w0, w19
    100e0d64:	d0000061 	adrp	x1, 100ee000 <__STACKS_START__+0x3f80>
    100e0d68:	9104e021 	add	x1, x1, #0x138
    100e0d6c:	d2800302 	mov	x2, #0x18                  	// #24
    100e0d70:	9b020400 	madd	x0, x0, x2, x1
    100e0d74:	2a1403e1 	mov	w1, w20
    100e0d78:	52800002 	mov	w2, #0x0                   	// #0
    100e0d7c:	b9000814 	str	w20, [x0, #8]
    100e0d80:	2a1303e0 	mov	w0, w19
    100e0d84:	97ffffb4 	bl	100e0c54 <set_scr_el3_from_rm>
    100e0d88:	2a1303e0 	mov	w0, w19
    100e0d8c:	2a1403e1 	mov	w1, w20
    100e0d90:	52800022 	mov	w2, #0x1                   	// #1
    100e0d94:	97ffffb0 	bl	100e0c54 <set_scr_el3_from_rm>
    100e0d98:	52800000 	mov	w0, #0x0                   	// #0
    100e0d9c:	a94153f3 	ldp	x19, x20, [sp, #16]
    100e0da0:	a8c27bfd 	ldp	x29, x30, [sp], #32
    100e0da4:	d65f03c0 	ret
    100e0da8:	35000081 	cbnz	w1, 100e0db8 <set_routing_model+0x90>
    100e0dac:	360ffdb4 	tbz	w20, #1, 100e0d60 <set_routing_model+0x38>
    100e0db0:	128002a0 	mov	w0, #0xffffffea            	// #-22
    100e0db4:	17fffffa 	b	100e0d9c <set_routing_model+0x74>
    100e0db8:	7100067f 	cmp	w19, #0x1
    100e0dbc:	54fffcc0 	b.eq	100e0d54 <set_routing_model+0x2c>  // b.none
    100e0dc0:	17fffffc 	b	100e0db0 <set_routing_model+0x88>

00000000100e0dc4 <register_interrupt_type_handler>:
    100e0dc4:	a9bd7bfd 	stp	x29, x30, [sp, #-48]!
    100e0dc8:	910003fd 	mov	x29, sp
    100e0dcc:	a90153f3 	stp	x19, x20, [sp, #16]
    100e0dd0:	f90013f5 	str	x21, [sp, #32]
    100e0dd4:	aa0103f5 	mov	x21, x1
    100e0dd8:	b4000241 	cbz	x1, 100e0e20 <register_interrupt_type_handler+0x5c>
    100e0ddc:	2a0203e1 	mov	w1, w2
    100e0de0:	721e745f 	tst	w2, #0xfffffffc
    100e0de4:	540001e1 	b.ne	100e0e20 <register_interrupt_type_handler+0x5c>  // b.any
    100e0de8:	2a0003f3 	mov	w19, w0
    100e0dec:	d2800302 	mov	x2, #0x18                  	// #24
    100e0df0:	d0000074 	adrp	x20, 100ee000 <__STACKS_START__+0x3f80>
    100e0df4:	9104e294 	add	x20, x20, #0x138
    100e0df8:	9b027e73 	mul	x19, x19, x2
    100e0dfc:	f8736a82 	ldr	x2, [x20, x19]
    100e0e00:	b5000142 	cbnz	x2, 100e0e28 <register_interrupt_type_handler+0x64>
    100e0e04:	97ffffc9 	bl	100e0d28 <set_routing_model>
    100e0e08:	35000040 	cbnz	w0, 100e0e10 <register_interrupt_type_handler+0x4c>
    100e0e0c:	f8336a95 	str	x21, [x20, x19]
    100e0e10:	a94153f3 	ldp	x19, x20, [sp, #16]
    100e0e14:	f94013f5 	ldr	x21, [sp, #32]
    100e0e18:	a8c37bfd 	ldp	x29, x30, [sp], #48
    100e0e1c:	d65f03c0 	ret
    100e0e20:	128002a0 	mov	w0, #0xffffffea            	// #-22
    100e0e24:	17fffffb 	b	100e0e10 <register_interrupt_type_handler+0x4c>
    100e0e28:	12800480 	mov	w0, #0xffffffdb            	// #-37
    100e0e2c:	17fffff9 	b	100e0e10 <register_interrupt_type_handler+0x4c>

00000000100e0e30 <get_interrupt_type_handler>:
    100e0e30:	7100081f 	cmp	w0, #0x2
    100e0e34:	54000108 	b.hi	100e0e54 <get_interrupt_type_handler+0x24>  // b.pmore
    100e0e38:	2a0003e0 	mov	w0, w0
    100e0e3c:	d2800301 	mov	x1, #0x18                  	// #24
    100e0e40:	9b017c00 	mul	x0, x0, x1
    100e0e44:	d0000061 	adrp	x1, 100ee000 <__STACKS_START__+0x3f80>
    100e0e48:	9104e021 	add	x1, x1, #0x138
    100e0e4c:	f8606820 	ldr	x0, [x1, x0]
    100e0e50:	d65f03c0 	ret
    100e0e54:	d2800000 	mov	x0, #0x0                   	// #0
    100e0e58:	17fffffe 	b	100e0e50 <get_interrupt_type_handler+0x20>

00000000100e0e5c <cm_get_context>:
    100e0e5c:	7100041f 	cmp	w0, #0x1
    100e0e60:	540000e9 	b.ls	100e0e7c <cm_get_context+0x20>  // b.plast
    100e0e64:	a9bf7bfd 	stp	x29, x30, [sp, #-16]!
    100e0e68:	90000040 	adrp	x0, 100e8000 <__TEXT_END__>
    100e0e6c:	910ed800 	add	x0, x0, #0x3b6
    100e0e70:	910003fd 	mov	x29, sp
    100e0e74:	528002e1 	mov	w1, #0x17                  	// #23
    100e0e78:	9400157b 	bl	100e6464 <__assert>
    100e0e7c:	d53ed041 	mrs	x1, tpidr_el3
    100e0e80:	f8605820 	ldr	x0, [x1, w0, uxtw #3]
    100e0e84:	d65f03c0 	ret

00000000100e0e88 <cm_set_context>:
    100e0e88:	7100043f 	cmp	w1, #0x1
    100e0e8c:	540000e9 	b.ls	100e0ea8 <cm_set_context+0x20>  // b.plast
    100e0e90:	a9bf7bfd 	stp	x29, x30, [sp, #-16]!
    100e0e94:	90000040 	adrp	x0, 100e8000 <__TEXT_END__>
    100e0e98:	910ed800 	add	x0, x0, #0x3b6
    100e0e9c:	910003fd 	mov	x29, sp
    100e0ea0:	52800441 	mov	w1, #0x22                  	// #34
    100e0ea4:	94001570 	bl	100e6464 <__assert>
    100e0ea8:	d53ed042 	mrs	x2, tpidr_el3
    100e0eac:	f8215840 	str	x0, [x2, w1, uxtw #3]
    100e0eb0:	d65f03c0 	ret

00000000100e0eb4 <cm_get_context_by_index>:
    100e0eb4:	a9be7bfd 	stp	x29, x30, [sp, #-32]!
    100e0eb8:	7100043f 	cmp	w1, #0x1
    100e0ebc:	910003fd 	mov	x29, sp
    100e0ec0:	f9000bf3 	str	x19, [sp, #16]
    100e0ec4:	540000a9 	b.ls	100e0ed8 <cm_get_context_by_index+0x24>  // b.plast
    100e0ec8:	90000040 	adrp	x0, 100e8000 <__TEXT_END__>
    100e0ecc:	910ed800 	add	x0, x0, #0x3b6
    100e0ed0:	52800601 	mov	w1, #0x30                  	// #48
    100e0ed4:	94001564 	bl	100e6464 <__assert>
    100e0ed8:	2a0103f3 	mov	w19, w1
    100e0edc:	9400129e 	bl	100e5954 <_cpu_data_by_index>
    100e0ee0:	f8735800 	ldr	x0, [x0, w19, uxtw #3]
    100e0ee4:	f9400bf3 	ldr	x19, [sp, #16]
    100e0ee8:	a8c27bfd 	ldp	x29, x30, [sp], #32
    100e0eec:	d65f03c0 	ret

00000000100e0ef0 <cm_set_context_by_index>:
    100e0ef0:	a9be7bfd 	stp	x29, x30, [sp, #-32]!
    100e0ef4:	7100045f 	cmp	w2, #0x1
    100e0ef8:	910003fd 	mov	x29, sp
    100e0efc:	a90153f3 	stp	x19, x20, [sp, #16]
    100e0f00:	540000a9 	b.ls	100e0f14 <cm_set_context_by_index+0x24>  // b.plast
    100e0f04:	90000040 	adrp	x0, 100e8000 <__TEXT_END__>
    100e0f08:	910ed800 	add	x0, x0, #0x3b6
    100e0f0c:	52800781 	mov	w1, #0x3c                  	// #60
    100e0f10:	94001555 	bl	100e6464 <__assert>
    100e0f14:	2a0203f3 	mov	w19, w2
    100e0f18:	aa0103f4 	mov	x20, x1
    100e0f1c:	9400128e 	bl	100e5954 <_cpu_data_by_index>
    100e0f20:	f8335814 	str	x20, [x0, w19, uxtw #3]
    100e0f24:	a94153f3 	ldp	x19, x20, [sp, #16]
    100e0f28:	a8c27bfd 	ldp	x29, x30, [sp], #32
    100e0f2c:	d65f03c0 	ret

00000000100e0f30 <runtime_svc_init>:
    100e0f30:	a9bb7bfd 	stp	x29, x30, [sp, #-80]!
    100e0f34:	910003fd 	mov	x29, sp
    100e0f38:	a90153f3 	stp	x19, x20, [sp, #16]
    100e0f3c:	b0000053 	adrp	x19, 100e9000 <non_el3_sys_regs+0x74>
    100e0f40:	910be273 	add	x19, x19, #0x2f8
    100e0f44:	a9025bf5 	stp	x21, x22, [sp, #32]
    100e0f48:	a90363f7 	stp	x23, x24, [sp, #48]
    100e0f4c:	b0000058 	adrp	x24, 100e9000 <non_el3_sys_regs+0x74>
    100e0f50:	9109e318 	add	x24, x24, #0x278
    100e0f54:	f90023f9 	str	x25, [sp, #64]
    100e0f58:	eb18027f 	cmp	x19, x24
    100e0f5c:	54000083 	b.cc	100e0f6c <runtime_svc_init+0x3c>  // b.lo, b.ul, b.last
    100e0f60:	cb180273 	sub	x19, x19, x24
    100e0f64:	f13ffe7f 	cmp	x19, #0xfff
    100e0f68:	540000a9 	b.ls	100e0f7c <runtime_svc_init+0x4c>  // b.plast
    100e0f6c:	52800c21 	mov	w1, #0x61                  	// #97
    100e0f70:	90000040 	adrp	x0, 100e8000 <__TEXT_END__>
    100e0f74:	910f3c00 	add	x0, x0, #0x3cf
    100e0f78:	9400153b 	bl	100e6464 <__assert>
    100e0f7c:	f1007e7f 	cmp	x19, #0x1f
    100e0f80:	540001a9 	b.ls	100e0fb4 <runtime_svc_init+0x84>  // b.plast
    100e0f84:	90000057 	adrp	x23, 100e8000 <__TEXT_END__>
    100e0f88:	911032f7 	add	x23, x23, #0x40c
    100e0f8c:	d345fe74 	lsr	x20, x19, #5
    100e0f90:	52800015 	mov	w21, #0x0                   	// #0
    100e0f94:	d0000076 	adrp	x22, 100ee000 <__STACKS_START__+0x3f80>
    100e0f98:	913222d6 	add	x22, x22, #0xc88
    100e0f9c:	aa1603e0 	mov	x0, x22
    100e0fa0:	d2801002 	mov	x2, #0x80                  	// #128
    100e0fa4:	12800001 	mov	w1, #0xffffffff            	// #-1
    100e0fa8:	94001550 	bl	100e64e8 <memset>
    100e0fac:	eb35029f 	cmp	x20, w21, uxtb
    100e0fb0:	540000e8 	b.hi	100e0fcc <runtime_svc_init+0x9c>  // b.pmore
    100e0fb4:	a94153f3 	ldp	x19, x20, [sp, #16]
    100e0fb8:	a9425bf5 	ldp	x21, x22, [sp, #32]
    100e0fbc:	a94363f7 	ldp	x23, x24, [sp, #48]
    100e0fc0:	f94023f9 	ldr	x25, [sp, #64]
    100e0fc4:	a8c57bfd 	ldp	x29, x30, [sp], #80
    100e0fc8:	d65f03c0 	ret
    100e0fcc:	d37b1eb9 	ubfiz	x25, x21, #5, #8
    100e0fd0:	8b190313 	add	x19, x24, x25
    100e0fd4:	38796b01 	ldrb	w1, [x24, x25]
    100e0fd8:	39400660 	ldrb	w0, [x19, #1]
    100e0fdc:	6b00003f 	cmp	w1, w0
    100e0fe0:	54000148 	b.hi	100e1008 <runtime_svc_init+0xd8>  // b.pmore
    100e0fe4:	7100fc1f 	cmp	w0, #0x3f
    100e0fe8:	54000108 	b.hi	100e1008 <runtime_svc_init+0xd8>  // b.pmore
    100e0fec:	39400a60 	ldrb	w0, [x19, #2]
    100e0ff0:	7100041f 	cmp	w0, #0x1
    100e0ff4:	540000a8 	b.hi	100e1008 <runtime_svc_init+0xd8>  // b.pmore
    100e0ff8:	f9400a60 	ldr	x0, [x19, #16]
    100e0ffc:	b5000180 	cbnz	x0, 100e102c <runtime_svc_init+0xfc>
    100e1000:	f9400e60 	ldr	x0, [x19, #24]
    100e1004:	b5000240 	cbnz	x0, 100e104c <runtime_svc_init+0x11c>
    100e1008:	aa1303e1 	mov	x1, x19
    100e100c:	f0000020 	adrp	x0, 100e8000 <__TEXT_END__>
    100e1010:	910f9000 	add	x0, x0, #0x3e4
    100e1014:	94000be0 	bl	100e3f94 <tf_log>
    100e1018:	f0000020 	adrp	x0, 100e8000 <__TEXT_END__>
    100e101c:	9110d000 	add	x0, x0, #0x434
    100e1020:	94000cd6 	bl	100e4378 <backtrace>
    100e1024:	94000c73 	bl	100e41f0 <console_flush>
    100e1028:	940013bc 	bl	100e5f18 <do_panic>
    100e102c:	d63f0000 	blr	x0
    100e1030:	340000e0 	cbz	w0, 100e104c <runtime_svc_init+0x11c>
    100e1034:	f9400661 	ldr	x1, [x19, #8]
    100e1038:	aa1703e0 	mov	x0, x23
    100e103c:	94000bd6 	bl	100e3f94 <tf_log>
    100e1040:	110006b5 	add	w21, w21, #0x1
    100e1044:	12001eb5 	and	w21, w21, #0xff
    100e1048:	17ffffd9 	b	100e0fac <runtime_svc_init+0x7c>
    100e104c:	39400a61 	ldrb	w1, [x19, #2]
    100e1050:	38796b00 	ldrb	w0, [x24, x25]
    100e1054:	531a0022 	ubfiz	w2, w1, #6, #1
    100e1058:	39400661 	ldrb	w1, [x19, #1]
    100e105c:	12001400 	and	w0, w0, #0x3f
    100e1060:	12001421 	and	w1, w1, #0x3f
    100e1064:	2a020000 	orr	w0, w0, w2
    100e1068:	2a020021 	orr	w1, w1, w2
    100e106c:	6b01001f 	cmp	w0, w1
    100e1070:	54000069 	b.ls	100e107c <runtime_svc_init+0x14c>  // b.plast
    100e1074:	528012a1 	mov	w1, #0x95                  	// #149
    100e1078:	17ffffbe 	b	100e0f70 <runtime_svc_init+0x40>
    100e107c:	92401c00 	and	x0, x0, #0xff
    100e1080:	38206ad5 	strb	w21, [x22, x0]
    100e1084:	91000400 	add	x0, x0, #0x1
    100e1088:	6b20003f 	cmp	w1, w0, uxtb
    100e108c:	54ffffa2 	b.cs	100e1080 <runtime_svc_init+0x150>  // b.hs, b.nlast
    100e1090:	17ffffec 	b	100e1040 <runtime_svc_init+0x110>

00000000100e1094 <arm_arch_svc_smc_handler>:
    100e1094:	a9be7bfd 	stp	x29, x30, [sp, #-32]!
    100e1098:	320107e2 	mov	w2, #0x80000001            	// #-2147483647
    100e109c:	6b02001f 	cmp	w0, w2
    100e10a0:	910003fd 	mov	x29, sp
    100e10a4:	f9000bf3 	str	x19, [sp, #16]
    100e10a8:	aa0603f3 	mov	x19, x6
    100e10ac:	540001a0 	b.eq	100e10e0 <arm_arch_svc_smc_handler+0x4c>  // b.none
    100e10b0:	32013fe1 	mov	w1, #0x80007fff            	// #-2147450881
    100e10b4:	6b01001f 	cmp	w0, w1
    100e10b8:	540000c0 	b.eq	100e10d0 <arm_arch_svc_smc_handler+0x3c>  // b.none
    100e10bc:	52b00001 	mov	w1, #0x80000000            	// #-2147483648
    100e10c0:	6b01001f 	cmp	w0, w1
    100e10c4:	54000281 	b.ne	100e1114 <arm_arch_svc_smc_handler+0x80>  // b.any
    100e10c8:	320083e0 	mov	w0, #0x10001               	// #65537
    100e10cc:	f9000260 	str	x0, [x19]
    100e10d0:	aa1303e0 	mov	x0, x19
    100e10d4:	f9400bf3 	ldr	x19, [sp, #16]
    100e10d8:	a8c27bfd 	ldp	x29, x30, [sp], #32
    100e10dc:	d65f03c0 	ret
    100e10e0:	320107e0 	mov	w0, #0x80000001            	// #-2147483647
    100e10e4:	eb00003f 	cmp	x1, x0
    100e10e8:	540000c8 	b.hi	100e1100 <arm_arch_svc_smc_handler+0x6c>  // b.pmore
    100e10ec:	b2407be0 	mov	x0, #0x7fffffff            	// #2147483647
    100e10f0:	eb00003f 	cmp	x1, x0
    100e10f4:	5a9f83e0 	csetm	w0, ls  // ls = plast
    100e10f8:	93407c00 	sxtw	x0, w0
    100e10fc:	17fffff4 	b	100e10cc <arm_arch_svc_smc_handler+0x38>
    100e1100:	32013fe0 	mov	w0, #0x80007fff            	// #-2147450881
    100e1104:	eb00003f 	cmp	x1, x0
    100e1108:	1a9f07e0 	cset	w0, ne  // ne = any
    100e110c:	51000800 	sub	w0, w0, #0x2
    100e1110:	17fffffa 	b	100e10f8 <arm_arch_svc_smc_handler+0x64>
    100e1114:	2a0003e1 	mov	w1, w0
    100e1118:	f0000020 	adrp	x0, 100e8000 <__TEXT_END__>
    100e111c:	91111400 	add	x0, x0, #0x445
    100e1120:	94000b9d 	bl	100e3f94 <tf_log>
    100e1124:	92800000 	mov	x0, #0xffffffffffffffff    	// #-1
    100e1128:	17ffffe9 	b	100e10cc <arm_arch_svc_smc_handler+0x38>

00000000100e112c <std_svc_smc_handler>:
    100e112c:	a9be7bfd 	stp	x29, x30, [sp, #-32]!
    100e1130:	721b281f 	tst	w0, #0xffe0
    100e1134:	910003fd 	mov	x29, sp
    100e1138:	f9000bf3 	str	x19, [sp, #16]
    100e113c:	aa0603f3 	mov	x19, x6
    100e1140:	54000081 	b.ne	100e1150 <std_svc_smc_handler+0x24>  // b.any
    100e1144:	940006a1 	bl	100e2bc8 <psci_smc_handler>
    100e1148:	f9000260 	str	x0, [x19]
    100e114c:	1400001d 	b	100e11c0 <std_svc_smc_handler+0x94>
    100e1150:	2a0003e8 	mov	w8, w0
    100e1154:	529fe020 	mov	w0, #0xff01                	// #65281
    100e1158:	72b08000 	movk	w0, #0x8400, lsl #16
    100e115c:	6b00011f 	cmp	w8, w0
    100e1160:	54000140 	b.eq	100e1188 <std_svc_smc_handler+0x5c>  // b.none
    100e1164:	11000800 	add	w0, w0, #0x2
    100e1168:	6b00011f 	cmp	w8, w0
    100e116c:	54000260 	b.eq	100e11b8 <std_svc_smc_handler+0x8c>  // b.none
    100e1170:	529fe000 	mov	w0, #0xff00                	// #65280
    100e1174:	72b08000 	movk	w0, #0x8400, lsl #16
    100e1178:	6b00011f 	cmp	w8, w0
    100e117c:	540002a1 	b.ne	100e11d0 <std_svc_smc_handler+0xa4>  // b.any
    100e1180:	d2800240 	mov	x0, #0x12                  	// #18
    100e1184:	17fffff1 	b	100e1148 <std_svc_smc_handler+0x1c>
    100e1188:	d2882ac0 	mov	x0, #0x4156                	// #16726
    100e118c:	f2bc5ec0 	movk	x0, #0xe2f6, lsl #16
    100e1190:	f9000cc0 	str	x0, [x6, #24]
    100e1194:	d285b5c0 	mov	x0, #0x2dae                	// #11694
    100e1198:	f2bf7800 	movk	x0, #0xfbc0, lsl #16
    100e119c:	f90008c0 	str	x0, [x6, #16]
    100e11a0:	d29f0c60 	mov	x0, #0xf863                	// #63587
    100e11a4:	f2a8fd00 	movk	x0, #0x47e8, lsl #16
    100e11a8:	f90004c0 	str	x0, [x6, #8]
    100e11ac:	d2920b60 	mov	x0, #0x905b                	// #36955
    100e11b0:	f2a211a0 	movk	x0, #0x108d, lsl #16
    100e11b4:	17ffffe5 	b	100e1148 <std_svc_smc_handler+0x1c>
    100e11b8:	d2800020 	mov	x0, #0x1                   	// #1
    100e11bc:	a90000df 	stp	xzr, x0, [x6]
    100e11c0:	aa1303e0 	mov	x0, x19
    100e11c4:	f9400bf3 	ldr	x19, [sp, #16]
    100e11c8:	a8c27bfd 	ldp	x29, x30, [sp], #32
    100e11cc:	d65f03c0 	ret
    100e11d0:	2a0803e1 	mov	w1, w8
    100e11d4:	f0000020 	adrp	x0, 100e8000 <__TEXT_END__>
    100e11d8:	91121c00 	add	x0, x0, #0x487
    100e11dc:	94000b6e 	bl	100e3f94 <tf_log>
    100e11e0:	92800000 	mov	x0, #0xffffffffffffffff    	// #-1
    100e11e4:	17ffffd9 	b	100e1148 <std_svc_smc_handler+0x1c>

00000000100e11e8 <std_svc_setup>:
    100e11e8:	a9bf7bfd 	stp	x29, x30, [sp, #-16]!
    100e11ec:	529ffc00 	mov	w0, #0xffe0                	// #65504
    100e11f0:	910003fd 	mov	x29, sp
    100e11f4:	97fffe2e 	bl	100e0aac <get_arm_std_svc_args>
    100e11f8:	b50000a0 	cbnz	x0, 100e120c <std_svc_setup+0x24>
    100e11fc:	f0000020 	adrp	x0, 100e8000 <__TEXT_END__>
    100e1200:	9112d000 	add	x0, x0, #0x4b4
    100e1204:	528004c1 	mov	w1, #0x26                  	// #38
    100e1208:	94001497 	bl	100e6464 <__assert>
    100e120c:	940006ce 	bl	100e2d44 <psci_setup>
    100e1210:	7100001f 	cmp	w0, #0x0
    100e1214:	1a9f07e0 	cset	w0, ne  // ne = any
    100e1218:	a8c17bfd 	ldp	x29, x30, [sp], #16
    100e121c:	d65f03c0 	ret

00000000100e1220 <cm_init>:
    100e1220:	d65f03c0 	ret

00000000100e1224 <cm_setup_context>:
    100e1224:	a9bd7bfd 	stp	x29, x30, [sp, #-48]!
    100e1228:	910003fd 	mov	x29, sp
    100e122c:	a90153f3 	stp	x19, x20, [sp, #16]
    100e1230:	a9025bf5 	stp	x21, x22, [sp, #32]
    100e1234:	b50000a0 	cbnz	x0, 100e1248 <cm_setup_context+0x24>
    100e1238:	f0000020 	adrp	x0, 100e8000 <__TEXT_END__>
    100e123c:	91137400 	add	x0, x0, #0x4dd
    100e1240:	52800941 	mov	w1, #0x4a                  	// #74
    100e1244:	94001488 	bl	100e6464 <__assert>
    100e1248:	aa0103f4 	mov	x20, x1
    100e124c:	aa0003f5 	mov	x21, x0
    100e1250:	d2804a01 	mov	x1, #0x250                 	// #592
    100e1254:	b9400696 	ldr	w22, [x20, #4]
    100e1258:	940013aa 	bl	100e6100 <zeromem>
    100e125c:	120002d6 	and	w22, w22, #0x1
    100e1260:	d53e1100 	mrs	x0, scr_el3
    100e1264:	1281a0f3 	mov	w19, #0xfffff2f8            	// #-3336
    100e1268:	0a000273 	and	w19, w19, w0
    100e126c:	34000056 	cbz	w22, 100e1274 <cm_setup_context+0x50>
    100e1270:	32000273 	orr	w19, w19, #0x1
    100e1274:	b9401280 	ldr	w0, [x20, #16]
    100e1278:	37200040 	tbnz	w0, #4, 100e1280 <cm_setup_context+0x5c>
    100e127c:	32160273 	orr	w19, w19, #0x400
    100e1280:	b9400680 	ldr	w0, [x20, #4]
    100e1284:	36100040 	tbz	w0, #2, 100e128c <cm_setup_context+0x68>
    100e1288:	32150273 	orr	w19, w19, #0x800
    100e128c:	121c7a73 	and	w19, w19, #0xfffffff7
    100e1290:	34000056 	cbz	w22, 100e1298 <cm_setup_context+0x74>
    100e1294:	32100673 	orr	w19, w19, #0x30000
    100e1298:	d5380420 	mrs	x0, id_aa64pfr1_el1
    100e129c:	53082c00 	ubfx	w0, w0, #8, #4
    100e12a0:	7100041f 	cmp	w0, #0x1
    100e12a4:	54000061 	b.ne	100e12b0 <cm_setup_context+0x8c>  // b.any
    100e12a8:	32060273 	orr	w19, w19, #0x4000000
    100e12ac:	14000004 	b	100e12bc <cm_setup_context+0x98>
    100e12b0:	7100081f 	cmp	w0, #0x2
    100e12b4:	1a9f02c0 	csel	w0, w22, wzr, eq  // eq = none
    100e12b8:	35ffff80 	cbnz	w0, 100e12a8 <cm_setup_context+0x84>
    100e12bc:	2a1603e0 	mov	w0, w22
    100e12c0:	97fffe86 	bl	100e0cd8 <get_scr_el3_from_routing_model>
    100e12c4:	2a000273 	orr	w19, w19, w0
    100e12c8:	b9401280 	ldr	w0, [x20, #16]
    100e12cc:	d3441003 	ubfx	x3, x0, #4, #1
    100e12d0:	372003c0 	tbnz	w0, #4, 100e1348 <cm_setup_context+0x124>
    100e12d4:	d3420c01 	ubfx	x1, x0, #2, #2
    100e12d8:	7100083f 	cmp	w1, #0x2
    100e12dc:	54000041 	b.ne	100e12e4 <cm_setup_context+0xc0>  // b.any
    100e12e0:	32180273 	orr	w19, w19, #0x100
    100e12e4:	b9400682 	ldr	w2, [x20, #4]
    100e12e8:	7100007f 	cmp	w3, #0x0
    100e12ec:	d2810001 	mov	x1, #0x800                 	// #2048
    100e12f0:	f2a61a01 	movk	x1, #0x30d0, lsl #16
    100e12f4:	d2810704 	mov	x4, #0x838                 	// #2104
    100e12f8:	f2a018a4 	movk	x4, #0xc5, lsl #16
    100e12fc:	d3689c42 	lsl	x2, x2, #24
    100e1300:	92670042 	and	x2, x2, #0x2000000
    100e1304:	aa010041 	orr	x1, x2, x1
    100e1308:	aa040042 	orr	x2, x2, x4
    100e130c:	9a811042 	csel	x2, x2, x1, ne  // ne = any
    100e1310:	f900a2a2 	str	x2, [x21, #320]
    100e1314:	d5381021 	mrs	x1, actlr_el1
    100e1318:	f9400682 	ldr	x2, [x20, #8]
    100e131c:	2a0003e0 	mov	w0, w0
    100e1320:	f90082b3 	str	x19, [x21, #256]
    100e1324:	a9118aa0 	stp	x0, x2, [x21, #280]
    100e1328:	aa1503e0 	mov	x0, x21
    100e132c:	d2800802 	mov	x2, #0x40                  	// #64
    100e1330:	f900a6a1 	str	x1, [x21, #328]
    100e1334:	91006281 	add	x1, x20, #0x18
    100e1338:	a94153f3 	ldp	x19, x20, [sp, #16]
    100e133c:	a9425bf5 	ldp	x21, x22, [sp, #32]
    100e1340:	a8c37bfd 	ldp	x29, x30, [sp], #48
    100e1344:	14001454 	b	100e6494 <memcpy>
    100e1348:	12000c01 	and	w1, w0, #0xf
    100e134c:	7100283f 	cmp	w1, #0xa
    100e1350:	17ffffe3 	b	100e12dc <cm_setup_context+0xb8>

00000000100e1354 <cm_init_context_by_index>:
    100e1354:	a9be7bfd 	stp	x29, x30, [sp, #-32]!
    100e1358:	910003fd 	mov	x29, sp
    100e135c:	f9000bf3 	str	x19, [sp, #16]
    100e1360:	aa0103f3 	mov	x19, x1
    100e1364:	b9400421 	ldr	w1, [x1, #4]
    100e1368:	12000021 	and	w1, w1, #0x1
    100e136c:	97fffed2 	bl	100e0eb4 <cm_get_context_by_index>
    100e1370:	aa1303e1 	mov	x1, x19
    100e1374:	f9400bf3 	ldr	x19, [sp, #16]
    100e1378:	a8c27bfd 	ldp	x29, x30, [sp], #32
    100e137c:	17ffffaa 	b	100e1224 <cm_setup_context>

00000000100e1380 <cm_init_my_context>:
    100e1380:	a9be7bfd 	stp	x29, x30, [sp, #-32]!
    100e1384:	910003fd 	mov	x29, sp
    100e1388:	f9000bf3 	str	x19, [sp, #16]
    100e138c:	aa0003f3 	mov	x19, x0
    100e1390:	b9400400 	ldr	w0, [x0, #4]
    100e1394:	12000000 	and	w0, w0, #0x1
    100e1398:	97fffeb1 	bl	100e0e5c <cm_get_context>
    100e139c:	aa1303e1 	mov	x1, x19
    100e13a0:	f9400bf3 	ldr	x19, [sp, #16]
    100e13a4:	a8c27bfd 	ldp	x29, x30, [sp], #32
    100e13a8:	17ffff9f 	b	100e1224 <cm_setup_context>

00000000100e13ac <cm_el1_sysregs_context_save>:
    100e13ac:	a9be7bfd 	stp	x29, x30, [sp, #-32]!
    100e13b0:	910003fd 	mov	x29, sp
    100e13b4:	a90153f3 	stp	x19, x20, [sp, #16]
    100e13b8:	2a0003f3 	mov	w19, w0
    100e13bc:	97fffea8 	bl	100e0e5c <cm_get_context>
    100e13c0:	b50000a0 	cbnz	x0, 100e13d4 <cm_el1_sysregs_context_save+0x28>
    100e13c4:	f0000020 	adrp	x0, 100e8000 <__TEXT_END__>
    100e13c8:	91137400 	add	x0, x0, #0x4dd
    100e13cc:	528042e1 	mov	w1, #0x217                 	// #535
    100e13d0:	94001425 	bl	100e6464 <__assert>
    100e13d4:	9104c000 	add	x0, x0, #0x130
    100e13d8:	940011e9 	bl	100e5b7c <el1_sysregs_context_save>
    100e13dc:	34000273 	cbz	w19, 100e1428 <cm_el1_sysregs_context_save+0x7c>
    100e13e0:	90000053 	adrp	x19, 100e9000 <non_el3_sys_regs+0x74>
    100e13e4:	910d8273 	add	x19, x19, #0x360
    100e13e8:	90000054 	adrp	x20, 100e9000 <non_el3_sys_regs+0x74>
    100e13ec:	910da294 	add	x20, x20, #0x368
    100e13f0:	eb14027f 	cmp	x19, x20
    100e13f4:	54000142 	b.cs	100e141c <cm_el1_sysregs_context_save+0x70>  // b.hs, b.nlast
    100e13f8:	f8408661 	ldr	x1, [x19], #8
    100e13fc:	d2800000 	mov	x0, #0x0                   	// #0
    100e1400:	d63f0020 	blr	x1
    100e1404:	17fffffb 	b	100e13f0 <cm_el1_sysregs_context_save+0x44>
    100e1408:	f8408661 	ldr	x1, [x19], #8
    100e140c:	d2800000 	mov	x0, #0x0                   	// #0
    100e1410:	d63f0020 	blr	x1
    100e1414:	eb14027f 	cmp	x19, x20
    100e1418:	54ffff83 	b.cc	100e1408 <cm_el1_sysregs_context_save+0x5c>  // b.lo, b.ul, b.last
    100e141c:	a94153f3 	ldp	x19, x20, [sp, #16]
    100e1420:	a8c27bfd 	ldp	x29, x30, [sp], #32
    100e1424:	d65f03c0 	ret
    100e1428:	90000053 	adrp	x19, 100e9000 <non_el3_sys_regs+0x74>
    100e142c:	910d6273 	add	x19, x19, #0x358
    100e1430:	90000054 	adrp	x20, 100e9000 <non_el3_sys_regs+0x74>
    100e1434:	910d6294 	add	x20, x20, #0x358
    100e1438:	17fffff7 	b	100e1414 <cm_el1_sysregs_context_save+0x68>

00000000100e143c <cm_el1_sysregs_context_restore>:
    100e143c:	a9be7bfd 	stp	x29, x30, [sp, #-32]!
    100e1440:	910003fd 	mov	x29, sp
    100e1444:	a90153f3 	stp	x19, x20, [sp, #16]
    100e1448:	2a0003f3 	mov	w19, w0
    100e144c:	97fffe84 	bl	100e0e5c <cm_get_context>
    100e1450:	b50000a0 	cbnz	x0, 100e1464 <cm_el1_sysregs_context_restore+0x28>
    100e1454:	f0000020 	adrp	x0, 100e8000 <__TEXT_END__>
    100e1458:	91137400 	add	x0, x0, #0x4dd
    100e145c:	52804501 	mov	w1, #0x228                 	// #552
    100e1460:	94001401 	bl	100e6464 <__assert>
    100e1464:	9104c000 	add	x0, x0, #0x130
    100e1468:	940011f8 	bl	100e5c48 <el1_sysregs_context_restore>
    100e146c:	34000273 	cbz	w19, 100e14b8 <cm_el1_sysregs_context_restore+0x7c>
    100e1470:	90000053 	adrp	x19, 100e9000 <non_el3_sys_regs+0x74>
    100e1474:	910d6273 	add	x19, x19, #0x358
    100e1478:	90000054 	adrp	x20, 100e9000 <non_el3_sys_regs+0x74>
    100e147c:	910d8294 	add	x20, x20, #0x360
    100e1480:	eb14027f 	cmp	x19, x20
    100e1484:	54000142 	b.cs	100e14ac <cm_el1_sysregs_context_restore+0x70>  // b.hs, b.nlast
    100e1488:	f8408661 	ldr	x1, [x19], #8
    100e148c:	d2800000 	mov	x0, #0x0                   	// #0
    100e1490:	d63f0020 	blr	x1
    100e1494:	17fffffb 	b	100e1480 <cm_el1_sysregs_context_restore+0x44>
    100e1498:	f8408661 	ldr	x1, [x19], #8
    100e149c:	d2800000 	mov	x0, #0x0                   	// #0
    100e14a0:	d63f0020 	blr	x1
    100e14a4:	eb14027f 	cmp	x19, x20
    100e14a8:	54ffff83 	b.cc	100e1498 <cm_el1_sysregs_context_restore+0x5c>  // b.lo, b.ul, b.last
    100e14ac:	a94153f3 	ldp	x19, x20, [sp, #16]
    100e14b0:	a8c27bfd 	ldp	x29, x30, [sp], #32
    100e14b4:	d65f03c0 	ret
    100e14b8:	90000053 	adrp	x19, 100e9000 <non_el3_sys_regs+0x74>
    100e14bc:	910d4273 	add	x19, x19, #0x350
    100e14c0:	90000054 	adrp	x20, 100e9000 <non_el3_sys_regs+0x74>
    100e14c4:	910d6294 	add	x20, x20, #0x358
    100e14c8:	17fffff7 	b	100e14a4 <cm_el1_sysregs_context_restore+0x68>

00000000100e14cc <cm_set_elr_el3>:
    100e14cc:	a9be7bfd 	stp	x29, x30, [sp, #-32]!
    100e14d0:	910003fd 	mov	x29, sp
    100e14d4:	f9000bf3 	str	x19, [sp, #16]
    100e14d8:	aa0103f3 	mov	x19, x1
    100e14dc:	97fffe60 	bl	100e0e5c <cm_get_context>
    100e14e0:	b50000a0 	cbnz	x0, 100e14f4 <cm_set_elr_el3+0x28>
    100e14e4:	f0000020 	adrp	x0, 100e8000 <__TEXT_END__>
    100e14e8:	91137400 	add	x0, x0, #0x4dd
    100e14ec:	528047c1 	mov	w1, #0x23e                 	// #574
    100e14f0:	940013dd 	bl	100e6464 <__assert>
    100e14f4:	f9009013 	str	x19, [x0, #288]
    100e14f8:	f9400bf3 	ldr	x19, [sp, #16]
    100e14fc:	a8c27bfd 	ldp	x29, x30, [sp], #32
    100e1500:	d65f03c0 	ret

00000000100e1504 <cm_write_scr_el3_bit>:
    100e1504:	a9be7bfd 	stp	x29, x30, [sp, #-32]!
    100e1508:	910003fd 	mov	x29, sp
    100e150c:	a90153f3 	stp	x19, x20, [sp, #16]
    100e1510:	2a0103f4 	mov	w20, w1
    100e1514:	2a0203f3 	mov	w19, w2
    100e1518:	97fffe51 	bl	100e0e5c <cm_get_context>
    100e151c:	b50000a0 	cbnz	x0, 100e1530 <cm_write_scr_el3_bit+0x2c>
    100e1520:	52804cc1 	mov	w1, #0x266                 	// #614
    100e1524:	f0000020 	adrp	x0, 100e8000 <__TEXT_END__>
    100e1528:	91137400 	add	x0, x0, #0x4dd
    100e152c:	940013ce 	bl	100e6464 <__assert>
    100e1530:	5285f1e1 	mov	w1, #0x2f8f                	// #12175
    100e1534:	1ad42421 	lsr	w1, w1, w20
    100e1538:	37000061 	tbnz	w1, #0, 100e1544 <cm_write_scr_el3_bit+0x40>
    100e153c:	52804d21 	mov	w1, #0x269                 	// #617
    100e1540:	17fffff9 	b	100e1524 <cm_write_scr_el3_bit+0x20>
    100e1544:	7100067f 	cmp	w19, #0x1
    100e1548:	54000069 	b.ls	100e1554 <cm_write_scr_el3_bit+0x50>  // b.plast
    100e154c:	52804d81 	mov	w1, #0x26c                 	// #620
    100e1550:	17fffff5 	b	100e1524 <cm_write_scr_el3_bit+0x20>
    100e1554:	f9408001 	ldr	x1, [x0, #256]
    100e1558:	52800022 	mov	w2, #0x1                   	// #1
    100e155c:	1ad42042 	lsl	w2, w2, w20
    100e1560:	0a220022 	bic	w2, w1, w2
    100e1564:	1ad42273 	lsl	w19, w19, w20
    100e1568:	2a020273 	orr	w19, w19, w2
    100e156c:	f9008013 	str	x19, [x0, #256]
    100e1570:	a94153f3 	ldp	x19, x20, [sp, #16]
    100e1574:	a8c27bfd 	ldp	x29, x30, [sp], #32
    100e1578:	d65f03c0 	ret

00000000100e157c <cm_set_next_eret_context>:
    100e157c:	a9bf7bfd 	stp	x29, x30, [sp, #-16]!
    100e1580:	910003fd 	mov	x29, sp
    100e1584:	97fffe36 	bl	100e0e5c <cm_get_context>
    100e1588:	b50000a0 	cbnz	x0, 100e159c <cm_set_next_eret_context+0x20>
    100e158c:	f0000020 	adrp	x0, 100e8000 <__TEXT_END__>
    100e1590:	91137400 	add	x0, x0, #0x4dd
    100e1594:	52805281 	mov	w1, #0x294                 	// #660
    100e1598:	940013b3 	bl	100e6464 <__assert>
    100e159c:	d5384201 	mrs	x1, spsel
    100e15a0:	b40000a1 	cbz	x1, 100e15b4 <cm_set_next_eret_context+0x38>
    100e15a4:	f0000020 	adrp	x0, 100e8000 <__TEXT_END__>
    100e15a8:	91141000 	add	x0, x0, #0x504
    100e15ac:	528008a1 	mov	w1, #0x45                  	// #69
    100e15b0:	17fffffa 	b	100e1598 <cm_set_next_eret_context+0x1c>
    100e15b4:	d50041bf 	msr	spsel, #0x1
    100e15b8:	9100001f 	mov	sp, x0
    100e15bc:	d50040bf 	msr	spsel, #0x0
    100e15c0:	a8c17bfd 	ldp	x29, x30, [sp], #16
    100e15c4:	d65f03c0 	ret

00000000100e15c8 <cm_prepare_el3_exit>:
    100e15c8:	a9be7bfd 	stp	x29, x30, [sp, #-32]!
    100e15cc:	910003fd 	mov	x29, sp
    100e15d0:	a90153f3 	stp	x19, x20, [sp, #16]
    100e15d4:	2a0003f3 	mov	w19, w0
    100e15d8:	97fffe21 	bl	100e0e5c <cm_get_context>
    100e15dc:	b50000a0 	cbnz	x0, 100e15f0 <cm_prepare_el3_exit+0x28>
    100e15e0:	f0000020 	adrp	x0, 100e8000 <__TEXT_END__>
    100e15e4:	91137400 	add	x0, x0, #0x4dd
    100e15e8:	52802881 	mov	w1, #0x144                 	// #324
    100e15ec:	9400139e 	bl	100e6464 <__assert>
    100e15f0:	7100067f 	cmp	w19, #0x1
    100e15f4:	54000521 	b.ne	100e1698 <cm_prepare_el3_exit+0xd0>  // b.any
    100e15f8:	f9408001 	ldr	x1, [x0, #256]
    100e15fc:	36400121 	tbz	w1, #8, 100e1620 <cm_prepare_el3_exit+0x58>
    100e1600:	f940a001 	ldr	x1, [x0, #320]
    100e1604:	52810600 	mov	w0, #0x830                 	// #2096
    100e1608:	72a618a0 	movk	w0, #0x30c5, lsl #16
    100e160c:	12070021 	and	w1, w1, #0x2000000
    100e1610:	2a000021 	orr	w1, w1, w0
    100e1614:	d51c1001 	msr	sctlr_el2, x1
    100e1618:	52800014 	mov	w20, #0x0                   	// #0
    100e161c:	1400001b 	b	100e1688 <cm_prepare_el3_exit+0xc0>
    100e1620:	d5380400 	mrs	x0, id_aa64pfr0_el1
    100e1624:	f2780c1f 	tst	x0, #0xf00
    100e1628:	54ffff80 	b.eq	100e1618 <cm_prepare_el3_exit+0x50>  // b.none
    100e162c:	d34a2821 	ubfx	x1, x1, #10, #1
    100e1630:	d3618021 	lsl	x1, x1, #31
    100e1634:	b2580421 	orr	x1, x1, #0x30000000000
    100e1638:	d51c1101 	msr	hcr_el2, x1
    100e163c:	d2867fe0 	mov	x0, #0x33ff                	// #13311
    100e1640:	d51c1140 	msr	cptr_el2, x0
    100e1644:	d2800060 	mov	x0, #0x3                   	// #3
    100e1648:	d51ce100 	msr	cnthctl_el2, x0
    100e164c:	d2800000 	mov	x0, #0x0                   	// #0
    100e1650:	d51ce060 	msr	cntvoff_el2, x0
    100e1654:	d5380001 	mrs	x1, midr_el1
    100e1658:	d51c0001 	msr	vpidr_el2, x1
    100e165c:	d53800a1 	mrs	x1, mpidr_el1
    100e1660:	d51c00a1 	msr	vmpidr_el2, x1
    100e1664:	d51c2100 	msr	vttbr_el2, x0
    100e1668:	d53b9c01 	mrs	x1, pmcr_el0
    100e166c:	530b3c21 	ubfx	w1, w1, #11, #5
    100e1670:	52a08042 	mov	w2, #0x4020000             	// #67239936
    100e1674:	2a020021 	orr	w1, w1, w2
    100e1678:	d51c1121 	msr	mdcr_el2, x1
    100e167c:	d51c1160 	msr	hstr_el2, x0
    100e1680:	d51ce220 	msr	cnthp_ctl_el2, x0
    100e1684:	2a1303f4 	mov	w20, w19
    100e1688:	2a1403e0 	mov	w0, w20
    100e168c:	94000786 	bl	100e34a4 <spe_enable>
    100e1690:	2a1403e0 	mov	w0, w20
    100e1694:	940007b8 	bl	100e3574 <sve_enable>
    100e1698:	2a1303e0 	mov	w0, w19
    100e169c:	97ffff68 	bl	100e143c <cm_el1_sysregs_context_restore>
    100e16a0:	2a1303e0 	mov	w0, w19
    100e16a4:	a94153f3 	ldp	x19, x20, [sp, #16]
    100e16a8:	a8c27bfd 	ldp	x29, x30, [sp], #32
    100e16ac:	17ffffb4 	b	100e157c <cm_set_next_eret_context>

00000000100e16b0 <errata_needs_reporting>:
    100e16b0:	a9bd7bfd 	stp	x29, x30, [sp, #-48]!
    100e16b4:	910003fd 	mov	x29, sp
    100e16b8:	a90153f3 	stp	x19, x20, [sp, #16]
    100e16bc:	aa0103f3 	mov	x19, x1
    100e16c0:	b9400021 	ldr	w1, [x1]
    100e16c4:	f90013f5 	str	x21, [sp, #32]
    100e16c8:	35000201 	cbnz	w1, 100e1708 <errata_needs_reporting+0x58>
    100e16cc:	aa0003f5 	mov	x21, x0
    100e16d0:	94001101 	bl	100e5ad4 <spin_lock>
    100e16d4:	b9400260 	ldr	w0, [x19]
    100e16d8:	7100001f 	cmp	w0, #0x0
    100e16dc:	1a9f17f4 	cset	w20, eq  // eq = none
    100e16e0:	35000060 	cbnz	w0, 100e16ec <errata_needs_reporting+0x3c>
    100e16e4:	52800020 	mov	w0, #0x1                   	// #1
    100e16e8:	b9000260 	str	w0, [x19]
    100e16ec:	aa1503e0 	mov	x0, x21
    100e16f0:	94001101 	bl	100e5af4 <spin_unlock>
    100e16f4:	2a1403e0 	mov	w0, w20
    100e16f8:	a94153f3 	ldp	x19, x20, [sp, #16]
    100e16fc:	f94013f5 	ldr	x21, [sp, #32]
    100e1700:	a8c37bfd 	ldp	x29, x30, [sp], #48
    100e1704:	d65f03c0 	ret
    100e1708:	52800000 	mov	w0, #0x0                   	// #0
    100e170c:	17fffffb 	b	100e16f8 <errata_needs_reporting+0x48>

00000000100e1710 <errata_print_msg>:
    100e1710:	a9bf7bfd 	stp	x29, x30, [sp, #-16]!
    100e1714:	7100081f 	cmp	w0, #0x2
    100e1718:	910003fd 	mov	x29, sp
    100e171c:	540000a9 	b.ls	100e1730 <errata_print_msg+0x20>  // b.plast
    100e1720:	528009e1 	mov	w1, #0x4f                  	// #79
    100e1724:	f0000020 	adrp	x0, 100e8000 <__TEXT_END__>
    100e1728:	9114ac00 	add	x0, x0, #0x52b
    100e172c:	9400134e 	bl	100e6464 <__assert>
    100e1730:	b5000061 	cbnz	x1, 100e173c <errata_print_msg+0x2c>
    100e1734:	52800a01 	mov	w1, #0x50                  	// #80
    100e1738:	17fffffb 	b	100e1724 <errata_print_msg+0x14>
    100e173c:	aa0203e3 	mov	x3, x2
    100e1740:	b5000062 	cbnz	x2, 100e174c <errata_print_msg+0x3c>
    100e1744:	52800a21 	mov	w1, #0x51                  	// #81
    100e1748:	17fffff7 	b	100e1724 <errata_print_msg+0x14>
    100e174c:	7100041f 	cmp	w0, #0x1
    100e1750:	540000a0 	b.eq	100e1764 <errata_print_msg+0x54>  // b.none
    100e1754:	7100081f 	cmp	w0, #0x2
    100e1758:	54000180 	b.eq	100e1788 <errata_print_msg+0x78>  // b.none
    100e175c:	a8c17bfd 	ldp	x29, x30, [sp], #16
    100e1760:	d65f03c0 	ret
    100e1764:	aa0103e2 	mov	x2, x1
    100e1768:	f0000024 	adrp	x4, 100e8000 <__TEXT_END__>
    100e176c:	91151084 	add	x4, x4, #0x544
    100e1770:	f0000021 	adrp	x1, 100e8000 <__TEXT_END__>
    100e1774:	91153021 	add	x1, x1, #0x54c
    100e1778:	f0000020 	adrp	x0, 100e8000 <__TEXT_END__>
    100e177c:	91154400 	add	x0, x0, #0x551
    100e1780:	a8c17bfd 	ldp	x29, x30, [sp], #16
    100e1784:	14000a04 	b	100e3f94 <tf_log>
    100e1788:	aa0103e2 	mov	x2, x1
    100e178c:	f0000024 	adrp	x4, 100e8000 <__TEXT_END__>
    100e1790:	9115e084 	add	x4, x4, #0x578
    100e1794:	f0000021 	adrp	x1, 100e8000 <__TEXT_END__>
    100e1798:	91153021 	add	x1, x1, #0x54c
    100e179c:	f0000020 	adrp	x0, 100e8000 <__TEXT_END__>
    100e17a0:	91160400 	add	x0, x0, #0x581
    100e17a4:	17fffff7 	b	100e1780 <errata_print_msg+0x70>

00000000100e17a8 <psci_do_cpu_off>:
    100e17a8:	a9bc7bfd 	stp	x29, x30, [sp, #-64]!
    100e17ac:	910003fd 	mov	x29, sp
    100e17b0:	a90153f3 	stp	x19, x20, [sp, #16]
    100e17b4:	2a0003f4 	mov	w20, w0
    100e17b8:	f90013f5 	str	x21, [sp, #32]
    100e17bc:	94000f3b 	bl	100e54a8 <plat_my_core_pos>
    100e17c0:	b0000075 	adrp	x21, 100ee000 <__STACKS_START__+0x3f80>
    100e17c4:	f947c2a1 	ldr	x1, [x21, #3968]
    100e17c8:	b9003bff 	str	wzr, [sp, #56]
    100e17cc:	f9400821 	ldr	x1, [x1, #16]
    100e17d0:	b4000581 	cbz	x1, 100e1880 <psci_do_cpu_off+0xd8>
    100e17d4:	9100e3e2 	add	x2, sp, #0x38
    100e17d8:	52804041 	mov	w1, #0x202                 	// #514
    100e17dc:	790063e1 	strh	w1, [sp, #48]
    100e17e0:	2a1403e1 	mov	w1, w20
    100e17e4:	940001ff 	bl	100e1fe0 <psci_get_parent_pwr_domain_nodes>
    100e17e8:	2a1403e0 	mov	w0, w20
    100e17ec:	9100e3e1 	add	x1, sp, #0x38
    100e17f0:	940002c0 	bl	100e22f0 <psci_acquire_pwr_domain_locks>
    100e17f4:	b0000060 	adrp	x0, 100ee000 <__STACKS_START__+0x3f80>
    100e17f8:	f947c400 	ldr	x0, [x0, #3976]
    100e17fc:	b50004a0 	cbnz	x0, 100e1890 <psci_do_cpu_off+0xe8>
    100e1800:	9100c3e1 	add	x1, sp, #0x30
    100e1804:	2a1403e0 	mov	w0, w20
    100e1808:	94000235 	bl	100e20dc <psci_do_state_coordination>
    100e180c:	52800013 	mov	w19, #0x0                   	// #0
    100e1810:	9100c3e0 	add	x0, sp, #0x30
    100e1814:	9400027b 	bl	100e2200 <psci_find_max_off_lvl>
    100e1818:	940003cc 	bl	100e2748 <psci_do_pwrdown_sequence>
    100e181c:	f947c2a0 	ldr	x0, [x21, #3968]
    100e1820:	f9400801 	ldr	x1, [x0, #16]
    100e1824:	9100c3e0 	add	x0, sp, #0x30
    100e1828:	d63f0020 	blr	x1
    100e182c:	9100e3e1 	add	x1, sp, #0x38
    100e1830:	2a1403e0 	mov	w0, w20
    100e1834:	940002ca 	bl	100e235c <psci_release_pwr_domain_locks>
    100e1838:	350003d3 	cbnz	w19, 100e18b0 <psci_do_cpu_off+0x108>
    100e183c:	d53ed040 	mrs	x0, tpidr_el3
    100e1840:	d2800081 	mov	x1, #0x4                   	// #4
    100e1844:	91006000 	add	x0, x0, #0x18
    100e1848:	940011c5 	bl	100e5f5c <flush_dcache_range>
    100e184c:	d53ed040 	mrs	x0, tpidr_el3
    100e1850:	52800021 	mov	w1, #0x1                   	// #1
    100e1854:	b9001801 	str	w1, [x0, #24]
    100e1858:	d5033b9f 	dsb	ish
    100e185c:	d53ed040 	mrs	x0, tpidr_el3
    100e1860:	d2800081 	mov	x1, #0x4                   	// #4
    100e1864:	91006000 	add	x0, x0, #0x18
    100e1868:	940011d9 	bl	100e5fcc <inv_dcache_range>
    100e186c:	f947c2a0 	ldr	x0, [x21, #3968]
    100e1870:	f9402001 	ldr	x1, [x0, #64]
    100e1874:	b40001c1 	cbz	x1, 100e18ac <psci_do_cpu_off+0x104>
    100e1878:	9100c3e0 	add	x0, sp, #0x30
    100e187c:	d63f0020 	blr	x1
    100e1880:	f0000020 	adrp	x0, 100e8000 <__TEXT_END__>
    100e1884:	9116a000 	add	x0, x0, #0x5a8
    100e1888:	528006c1 	mov	w1, #0x36                  	// #54
    100e188c:	940012f6 	bl	100e6464 <__assert>
    100e1890:	f9400401 	ldr	x1, [x0, #8]
    100e1894:	b4fffb61 	cbz	x1, 100e1800 <psci_do_cpu_off+0x58>
    100e1898:	d2800000 	mov	x0, #0x0                   	// #0
    100e189c:	d63f0020 	blr	x1
    100e18a0:	2a0003f3 	mov	w19, w0
    100e18a4:	34fffae0 	cbz	w0, 100e1800 <psci_do_cpu_off+0x58>
    100e18a8:	17ffffe1 	b	100e182c <psci_do_cpu_off+0x84>
    100e18ac:	940010b0 	bl	100e5b6c <psci_power_down_wfi>
    100e18b0:	2a1303e0 	mov	w0, w19
    100e18b4:	a94153f3 	ldp	x19, x20, [sp, #16]
    100e18b8:	f94013f5 	ldr	x21, [sp, #32]
    100e18bc:	a8c47bfd 	ldp	x29, x30, [sp], #64
    100e18c0:	d65f03c0 	ret

00000000100e18c4 <psci_cpu_on_start>:
    100e18c4:	a9bc7bfd 	stp	x29, x30, [sp, #-64]!
    100e18c8:	910003fd 	mov	x29, sp
    100e18cc:	a90153f3 	stp	x19, x20, [sp, #16]
    100e18d0:	aa0003f4 	mov	x20, x0
    100e18d4:	a9025bf5 	stp	x21, x22, [sp, #32]
    100e18d8:	aa0103f6 	mov	x22, x1
    100e18dc:	a90363f7 	stp	x23, x24, [sp, #48]
    100e18e0:	97fffb4a 	bl	100e0608 <plat_core_pos_by_mpidr>
    100e18e4:	36f800a0 	tbz	w0, #31, 100e18f8 <psci_cpu_on_start+0x34>
    100e18e8:	52800861 	mov	w1, #0x43                  	// #67
    100e18ec:	f0000020 	adrp	x0, 100e8000 <__TEXT_END__>
    100e18f0:	9116f000 	add	x0, x0, #0x5bc
    100e18f4:	940012dc 	bl	100e6464 <__assert>
    100e18f8:	b5000076 	cbnz	x22, 100e1904 <psci_cpu_on_start+0x40>
    100e18fc:	52800881 	mov	w1, #0x44                  	// #68
    100e1900:	17fffffb 	b	100e18ec <psci_cpu_on_start+0x28>
    100e1904:	2a0003f3 	mov	w19, w0
    100e1908:	b0000077 	adrp	x23, 100ee000 <__STACKS_START__+0x3f80>
    100e190c:	f947c2e0 	ldr	x0, [x23, #3968]
    100e1910:	f9400401 	ldr	x1, [x0, #8]
    100e1914:	b4000061 	cbz	x1, 100e1920 <psci_cpu_on_start+0x5c>
    100e1918:	f9401400 	ldr	x0, [x0, #40]
    100e191c:	b5000060 	cbnz	x0, 100e1928 <psci_cpu_on_start+0x64>
    100e1920:	52800941 	mov	w1, #0x4a                  	// #74
    100e1924:	17fffff2 	b	100e18ec <psci_cpu_on_start+0x28>
    100e1928:	d2800195 	mov	x21, #0xc                   	// #12
    100e192c:	b0000062 	adrp	x2, 100ee000 <__STACKS_START__+0x3f80>
    100e1930:	913d0042 	add	x2, x2, #0xf40
    100e1934:	8b33d2b5 	add	x21, x21, w19, sxtw #4
    100e1938:	8b0202b5 	add	x21, x21, x2
    100e193c:	aa1503e0 	mov	x0, x21
    100e1940:	94001065 	bl	100e5ad4 <spin_lock>
    100e1944:	2a1303e0 	mov	w0, w19
    100e1948:	94001003 	bl	100e5954 <_cpu_data_by_index>
    100e194c:	d2800081 	mov	x1, #0x4                   	// #4
    100e1950:	91006000 	add	x0, x0, #0x18
    100e1954:	94001182 	bl	100e5f5c <flush_dcache_range>
    100e1958:	2a1303e0 	mov	w0, w19
    100e195c:	94000ffe 	bl	100e5954 <_cpu_data_by_index>
    100e1960:	b9401802 	ldr	w2, [x0, #24]
    100e1964:	340009e2 	cbz	w2, 100e1aa0 <psci_cpu_on_start+0x1dc>
    100e1968:	7100085f 	cmp	w2, #0x2
    100e196c:	540009e0 	b.eq	100e1aa8 <psci_cpu_on_start+0x1e4>  // b.none
    100e1970:	7100045f 	cmp	w2, #0x1
    100e1974:	54000060 	b.eq	100e1980 <psci_cpu_on_start+0xbc>  // b.none
    100e1978:	528005a1 	mov	w1, #0x2d                  	// #45
    100e197c:	17ffffdc 	b	100e18ec <psci_cpu_on_start+0x28>
    100e1980:	b0000060 	adrp	x0, 100ee000 <__STACKS_START__+0x3f80>
    100e1984:	f947c400 	ldr	x0, [x0, #3976]
    100e1988:	b40000a0 	cbz	x0, 100e199c <psci_cpu_on_start+0xd8>
    100e198c:	f9400001 	ldr	x1, [x0]
    100e1990:	b4000061 	cbz	x1, 100e199c <psci_cpu_on_start+0xd8>
    100e1994:	aa1403e0 	mov	x0, x20
    100e1998:	d63f0020 	blr	x1
    100e199c:	52800058 	mov	w24, #0x2                   	// #2
    100e19a0:	2a1303e0 	mov	w0, w19
    100e19a4:	94000fec 	bl	100e5954 <_cpu_data_by_index>
    100e19a8:	b9001818 	str	w24, [x0, #24]
    100e19ac:	2a1303e0 	mov	w0, w19
    100e19b0:	94000fe9 	bl	100e5954 <_cpu_data_by_index>
    100e19b4:	91006000 	add	x0, x0, #0x18
    100e19b8:	d2800081 	mov	x1, #0x4                   	// #4
    100e19bc:	94001168 	bl	100e5f5c <flush_dcache_range>
    100e19c0:	2a1303e0 	mov	w0, w19
    100e19c4:	94000fe4 	bl	100e5954 <_cpu_data_by_index>
    100e19c8:	b9401800 	ldr	w0, [x0, #24]
    100e19cc:	6b18001f 	cmp	w0, w24
    100e19d0:	54000280 	b.eq	100e1a20 <psci_cpu_on_start+0x15c>  // b.none
    100e19d4:	7100041f 	cmp	w0, #0x1
    100e19d8:	54000060 	b.eq	100e19e4 <psci_cpu_on_start+0x120>  // b.none
    100e19dc:	52800fe1 	mov	w1, #0x7f                  	// #127
    100e19e0:	17ffffc3 	b	100e18ec <psci_cpu_on_start+0x28>
    100e19e4:	2a1303e0 	mov	w0, w19
    100e19e8:	94000fdb 	bl	100e5954 <_cpu_data_by_index>
    100e19ec:	b9001818 	str	w24, [x0, #24]
    100e19f0:	2a1303e0 	mov	w0, w19
    100e19f4:	94000fd8 	bl	100e5954 <_cpu_data_by_index>
    100e19f8:	91006000 	add	x0, x0, #0x18
    100e19fc:	d2800081 	mov	x1, #0x4                   	// #4
    100e1a00:	94001157 	bl	100e5f5c <flush_dcache_range>
    100e1a04:	2a1303e0 	mov	w0, w19
    100e1a08:	94000fd3 	bl	100e5954 <_cpu_data_by_index>
    100e1a0c:	b9401800 	ldr	w0, [x0, #24]
    100e1a10:	7100081f 	cmp	w0, #0x2
    100e1a14:	54000060 	b.eq	100e1a20 <psci_cpu_on_start+0x15c>  // b.none
    100e1a18:	52801081 	mov	w1, #0x84                  	// #132
    100e1a1c:	17ffffb4 	b	100e18ec <psci_cpu_on_start+0x28>
    100e1a20:	f947c2e0 	ldr	x0, [x23, #3968]
    100e1a24:	f9400401 	ldr	x1, [x0, #8]
    100e1a28:	aa1403e0 	mov	x0, x20
    100e1a2c:	d63f0020 	blr	x1
    100e1a30:	7100001f 	cmp	w0, #0x0
    100e1a34:	2a0003f4 	mov	w20, w0
    100e1a38:	3a461804 	ccmn	w0, #0x6, #0x4, ne  // ne = any
    100e1a3c:	54000060 	b.eq	100e1a48 <psci_cpu_on_start+0x184>  // b.none
    100e1a40:	52801221 	mov	w1, #0x91                  	// #145
    100e1a44:	17ffffaa 	b	100e18ec <psci_cpu_on_start+0x28>
    100e1a48:	35000180 	cbnz	w0, 100e1a78 <psci_cpu_on_start+0x1b4>
    100e1a4c:	aa1603e1 	mov	x1, x22
    100e1a50:	2a1303e0 	mov	w0, w19
    100e1a54:	97fffe40 	bl	100e1354 <cm_init_context_by_index>
    100e1a58:	aa1503e0 	mov	x0, x21
    100e1a5c:	94001026 	bl	100e5af4 <spin_unlock>
    100e1a60:	2a1403e0 	mov	w0, w20
    100e1a64:	a94153f3 	ldp	x19, x20, [sp, #16]
    100e1a68:	a9425bf5 	ldp	x21, x22, [sp, #32]
    100e1a6c:	a94363f7 	ldp	x23, x24, [sp, #48]
    100e1a70:	a8c47bfd 	ldp	x29, x30, [sp], #64
    100e1a74:	d65f03c0 	ret
    100e1a78:	2a1303e0 	mov	w0, w19
    100e1a7c:	94000fb6 	bl	100e5954 <_cpu_data_by_index>
    100e1a80:	52800021 	mov	w1, #0x1                   	// #1
    100e1a84:	b9001801 	str	w1, [x0, #24]
    100e1a88:	2a1303e0 	mov	w0, w19
    100e1a8c:	94000fb2 	bl	100e5954 <_cpu_data_by_index>
    100e1a90:	91006000 	add	x0, x0, #0x18
    100e1a94:	d2800081 	mov	x1, #0x4                   	// #4
    100e1a98:	94001131 	bl	100e5f5c <flush_dcache_range>
    100e1a9c:	17ffffef 	b	100e1a58 <psci_cpu_on_start+0x194>
    100e1aa0:	12800074 	mov	w20, #0xfffffffc            	// #-4
    100e1aa4:	17ffffed 	b	100e1a58 <psci_cpu_on_start+0x194>
    100e1aa8:	12800094 	mov	w20, #0xfffffffb            	// #-5
    100e1aac:	17ffffeb 	b	100e1a58 <psci_cpu_on_start+0x194>

00000000100e1ab0 <psci_cpu_on_finish>:
    100e1ab0:	a9bd7bfd 	stp	x29, x30, [sp, #-48]!
    100e1ab4:	910003fd 	mov	x29, sp
    100e1ab8:	a90153f3 	stp	x19, x20, [sp, #16]
    100e1abc:	2a0003f3 	mov	w19, w0
    100e1ac0:	aa0103f4 	mov	x20, x1
    100e1ac4:	a9025bf5 	stp	x21, x22, [sp, #32]
    100e1ac8:	b0000075 	adrp	x21, 100ee000 <__STACKS_START__+0x3f80>
    100e1acc:	f947c2a0 	ldr	x0, [x21, #3968]
    100e1ad0:	f9401401 	ldr	x1, [x0, #40]
    100e1ad4:	aa1403e0 	mov	x0, x20
    100e1ad8:	d63f0020 	blr	x1
    100e1adc:	94001017 	bl	100e5b38 <psci_do_pwrup_cache_maintenance>
    100e1ae0:	f947c2a0 	ldr	x0, [x21, #3968]
    100e1ae4:	f9401801 	ldr	x1, [x0, #48]
    100e1ae8:	b4000061 	cbz	x1, 100e1af4 <psci_cpu_on_finish+0x44>
    100e1aec:	aa1403e0 	mov	x0, x20
    100e1af0:	d63f0020 	blr	x1
    100e1af4:	d2800194 	mov	x20, #0xc                   	// #12
    100e1af8:	b0000075 	adrp	x21, 100ee000 <__STACKS_START__+0x3f80>
    100e1afc:	913d02b5 	add	x21, x21, #0xf40
    100e1b00:	8b33d294 	add	x20, x20, w19, sxtw #4
    100e1b04:	8b150294 	add	x20, x20, x21
    100e1b08:	94000487 	bl	100e2d24 <psci_arch_setup>
    100e1b0c:	aa1403e0 	mov	x0, x20
    100e1b10:	94000ff1 	bl	100e5ad4 <spin_lock>
    100e1b14:	aa1403e0 	mov	x0, x20
    100e1b18:	94000ff7 	bl	100e5af4 <spin_unlock>
    100e1b1c:	d53ed040 	mrs	x0, tpidr_el3
    100e1b20:	b9401800 	ldr	w0, [x0, #24]
    100e1b24:	7100081f 	cmp	w0, #0x2
    100e1b28:	540000a0 	b.eq	100e1b3c <psci_cpu_on_finish+0x8c>  // b.none
    100e1b2c:	f0000020 	adrp	x0, 100e8000 <__TEXT_END__>
    100e1b30:	9116f000 	add	x0, x0, #0x5bc
    100e1b34:	52801a21 	mov	w1, #0xd1                  	// #209
    100e1b38:	9400124b 	bl	100e6464 <__assert>
    100e1b3c:	b0000060 	adrp	x0, 100ee000 <__STACKS_START__+0x3f80>
    100e1b40:	f947c400 	ldr	x0, [x0, #3976]
    100e1b44:	b40000a0 	cbz	x0, 100e1b58 <psci_cpu_on_finish+0xa8>
    100e1b48:	f9400c01 	ldr	x1, [x0, #24]
    100e1b4c:	b4000061 	cbz	x1, 100e1b58 <psci_cpu_on_finish+0xa8>
    100e1b50:	d2800000 	mov	x0, #0x0                   	// #0
    100e1b54:	d63f0020 	blr	x1
    100e1b58:	90000054 	adrp	x20, 100e9000 <non_el3_sys_regs+0x74>
    100e1b5c:	910d4294 	add	x20, x20, #0x350
    100e1b60:	90000056 	adrp	x22, 100e9000 <non_el3_sys_regs+0x74>
    100e1b64:	910d42d6 	add	x22, x22, #0x350
    100e1b68:	eb16029f 	cmp	x20, x22
    100e1b6c:	54000163 	b.cc	100e1b98 <psci_cpu_on_finish+0xe8>  // b.lo, b.ul, b.last
    100e1b70:	d53800a1 	mrs	x1, mpidr_el1
    100e1b74:	937c7e73 	sbfiz	x19, x19, #4, #32
    100e1b78:	92409c21 	and	x1, x1, #0xffffffffff
    100e1b7c:	9260dc21 	and	x1, x1, #0xffffffff00ffffff
    100e1b80:	52800020 	mov	w0, #0x1                   	// #1
    100e1b84:	f8336aa1 	str	x1, [x21, x19]
    100e1b88:	a94153f3 	ldp	x19, x20, [sp, #16]
    100e1b8c:	a9425bf5 	ldp	x21, x22, [sp, #32]
    100e1b90:	a8c37bfd 	ldp	x29, x30, [sp], #48
    100e1b94:	17fffe8d 	b	100e15c8 <cm_prepare_el3_exit>
    100e1b98:	f8408681 	ldr	x1, [x20], #8
    100e1b9c:	d2800000 	mov	x0, #0x0                   	// #0
    100e1ba0:	d63f0020 	blr	x1
    100e1ba4:	17fffff1 	b	100e1b68 <psci_cpu_on_finish+0xb8>

00000000100e1ba8 <psci_cpu_suspend_start>:
    100e1ba8:	a9b87bfd 	stp	x29, x30, [sp, #-128]!
    100e1bac:	910003fd 	mov	x29, sp
    100e1bb0:	a90153f3 	stp	x19, x20, [sp, #16]
    100e1bb4:	2a0103f3 	mov	w19, w1
    100e1bb8:	a9025bf5 	stp	x21, x22, [sp, #32]
    100e1bbc:	aa0203f5 	mov	x21, x2
    100e1bc0:	a90363f7 	stp	x23, x24, [sp, #48]
    100e1bc4:	2a0303f7 	mov	w23, w3
    100e1bc8:	a9046bf9 	stp	x25, x26, [sp, #64]
    100e1bcc:	aa0003fa 	mov	x26, x0
    100e1bd0:	f9002bfb 	str	x27, [sp, #80]
    100e1bd4:	94000e35 	bl	100e54a8 <plat_my_core_pos>
    100e1bd8:	b0000074 	adrp	x20, 100ee000 <__STACKS_START__+0x3f80>
    100e1bdc:	f947c281 	ldr	x1, [x20, #3968]
    100e1be0:	b90073ff 	str	wzr, [sp, #112]
    100e1be4:	f9401022 	ldr	x2, [x1, #32]
    100e1be8:	b4000062 	cbz	x2, 100e1bf4 <psci_cpu_suspend_start+0x4c>
    100e1bec:	f9401c21 	ldr	x1, [x1, #56]
    100e1bf0:	b50000a1 	cbnz	x1, 100e1c04 <psci_cpu_suspend_start+0x5c>
    100e1bf4:	f0000020 	adrp	x0, 100e8000 <__TEXT_END__>
    100e1bf8:	91173c00 	add	x0, x0, #0x5cf
    100e1bfc:	528014e1 	mov	w1, #0xa7                  	// #167
    100e1c00:	94001219 	bl	100e6464 <__assert>
    100e1c04:	9101c3e2 	add	x2, sp, #0x70
    100e1c08:	2a0003f9 	mov	w25, w0
    100e1c0c:	2a1303e1 	mov	w1, w19
    100e1c10:	940000f4 	bl	100e1fe0 <psci_get_parent_pwr_domain_nodes>
    100e1c14:	9101c3e1 	add	x1, sp, #0x70
    100e1c18:	2a1303e0 	mov	w0, w19
    100e1c1c:	940001b5 	bl	100e22f0 <psci_acquire_pwr_domain_locks>
    100e1c20:	d538c100 	mrs	x0, isr_el1
    100e1c24:	b50006e0 	cbnz	x0, 100e1d00 <psci_cpu_suspend_start+0x158>
    100e1c28:	aa1503e1 	mov	x1, x21
    100e1c2c:	2a1303e0 	mov	w0, w19
    100e1c30:	9400012b 	bl	100e20dc <psci_do_state_coordination>
    100e1c34:	34000417 	cbz	w23, 100e1cb4 <psci_cpu_suspend_start+0x10c>
    100e1c38:	aa1503e0 	mov	x0, x21
    100e1c3c:	90000056 	adrp	x22, 100e9000 <non_el3_sys_regs+0x74>
    100e1c40:	910d42d6 	add	x22, x22, #0x350
    100e1c44:	9000005b 	adrp	x27, 100e9000 <non_el3_sys_regs+0x74>
    100e1c48:	910d437b 	add	x27, x27, #0x350
    100e1c4c:	9400016d 	bl	100e2200 <psci_find_max_off_lvl>
    100e1c50:	2a0003f8 	mov	w24, w0
    100e1c54:	eb1b02df 	cmp	x22, x27
    100e1c58:	540004c3 	b.cc	100e1cf0 <psci_cpu_suspend_start+0x148>  // b.lo, b.ul, b.last
    100e1c5c:	d53ed040 	mrs	x0, tpidr_el3
    100e1c60:	b9001c13 	str	w19, [x0, #28]
    100e1c64:	d53ed040 	mrs	x0, tpidr_el3
    100e1c68:	d2800081 	mov	x1, #0x4                   	// #4
    100e1c6c:	91007000 	add	x0, x0, #0x1c
    100e1c70:	940010bb 	bl	100e5f5c <flush_dcache_range>
    100e1c74:	b0000060 	adrp	x0, 100ee000 <__STACKS_START__+0x3f80>
    100e1c78:	f947c400 	ldr	x0, [x0, #3976]
    100e1c7c:	b40000a0 	cbz	x0, 100e1c90 <psci_cpu_suspend_start+0xe8>
    100e1c80:	f9400801 	ldr	x1, [x0, #16]
    100e1c84:	b4000061 	cbz	x1, 100e1c90 <psci_cpu_suspend_start+0xe8>
    100e1c88:	2a1803e0 	mov	w0, w24
    100e1c8c:	d63f0020 	blr	x1
    100e1c90:	f947c280 	ldr	x0, [x20, #3968]
    100e1c94:	f9400c01 	ldr	x1, [x0, #24]
    100e1c98:	b4000061 	cbz	x1, 100e1ca4 <psci_cpu_suspend_start+0xfc>
    100e1c9c:	aa1503e0 	mov	x0, x21
    100e1ca0:	d63f0020 	blr	x1
    100e1ca4:	aa1a03e0 	mov	x0, x26
    100e1ca8:	97fffdb6 	bl	100e1380 <cm_init_my_context>
    100e1cac:	2a1803e0 	mov	w0, w24
    100e1cb0:	940002a6 	bl	100e2748 <psci_do_pwrdown_sequence>
    100e1cb4:	f947c280 	ldr	x0, [x20, #3968]
    100e1cb8:	52800016 	mov	w22, #0x0                   	// #0
    100e1cbc:	f9401001 	ldr	x1, [x0, #32]
    100e1cc0:	aa1503e0 	mov	x0, x21
    100e1cc4:	d63f0020 	blr	x1
    100e1cc8:	9101c3e1 	add	x1, sp, #0x70
    100e1ccc:	2a1303e0 	mov	w0, w19
    100e1cd0:	940001a3 	bl	100e235c <psci_release_pwr_domain_locks>
    100e1cd4:	35000476 	cbnz	w22, 100e1d60 <psci_cpu_suspend_start+0x1b8>
    100e1cd8:	340001b7 	cbz	w23, 100e1d0c <psci_cpu_suspend_start+0x164>
    100e1cdc:	f947c280 	ldr	x0, [x20, #3968]
    100e1ce0:	f9402001 	ldr	x1, [x0, #64]
    100e1ce4:	b4000121 	cbz	x1, 100e1d08 <psci_cpu_suspend_start+0x160>
    100e1ce8:	aa1503e0 	mov	x0, x21
    100e1cec:	d63f0020 	blr	x1
    100e1cf0:	f84086c1 	ldr	x1, [x22], #8
    100e1cf4:	d2800000 	mov	x0, #0x0                   	// #0
    100e1cf8:	d63f0020 	blr	x1
    100e1cfc:	17ffffd6 	b	100e1c54 <psci_cpu_suspend_start+0xac>
    100e1d00:	52800036 	mov	w22, #0x1                   	// #1
    100e1d04:	17fffff1 	b	100e1cc8 <psci_cpu_suspend_start+0x120>
    100e1d08:	94000f99 	bl	100e5b6c <psci_power_down_wfi>
    100e1d0c:	d503207f 	wfi
    100e1d10:	9101e3e2 	add	x2, sp, #0x78
    100e1d14:	2a1303e1 	mov	w1, w19
    100e1d18:	2a1903e0 	mov	w0, w25
    100e1d1c:	b9007bff 	str	wzr, [sp, #120]
    100e1d20:	940000b0 	bl	100e1fe0 <psci_get_parent_pwr_domain_nodes>
    100e1d24:	9101e3e1 	add	x1, sp, #0x78
    100e1d28:	2a1303e0 	mov	w0, w19
    100e1d2c:	94000171 	bl	100e22f0 <psci_acquire_pwr_domain_locks>
    100e1d30:	9101a3e1 	add	x1, sp, #0x68
    100e1d34:	2a1303e0 	mov	w0, w19
    100e1d38:	9400008a 	bl	100e1f60 <psci_get_target_local_pwr_states>
    100e1d3c:	f947c280 	ldr	x0, [x20, #3968]
    100e1d40:	f9401c01 	ldr	x1, [x0, #56]
    100e1d44:	9101a3e0 	add	x0, sp, #0x68
    100e1d48:	d63f0020 	blr	x1
    100e1d4c:	2a1303e0 	mov	w0, w19
    100e1d50:	940000b6 	bl	100e2028 <psci_set_pwr_domains_to_run>
    100e1d54:	9101e3e1 	add	x1, sp, #0x78
    100e1d58:	2a1303e0 	mov	w0, w19
    100e1d5c:	94000180 	bl	100e235c <psci_release_pwr_domain_locks>
    100e1d60:	a94153f3 	ldp	x19, x20, [sp, #16]
    100e1d64:	a9425bf5 	ldp	x21, x22, [sp, #32]
    100e1d68:	a94363f7 	ldp	x23, x24, [sp, #48]
    100e1d6c:	a9446bf9 	ldp	x25, x26, [sp, #64]
    100e1d70:	f9402bfb 	ldr	x27, [sp, #80]
    100e1d74:	a8c87bfd 	ldp	x29, x30, [sp], #128
    100e1d78:	d65f03c0 	ret

00000000100e1d7c <psci_cpu_suspend_finish>:
    100e1d7c:	a9be7bfd 	stp	x29, x30, [sp, #-32]!
    100e1d80:	910003fd 	mov	x29, sp
    100e1d84:	a90153f3 	stp	x19, x20, [sp, #16]
    100e1d88:	d53ed040 	mrs	x0, tpidr_el3
    100e1d8c:	b9401800 	ldr	w0, [x0, #24]
    100e1d90:	350000a0 	cbnz	w0, 100e1da4 <psci_cpu_suspend_finish+0x28>
    100e1d94:	39400020 	ldrb	w0, [x1]
    100e1d98:	aa0103f3 	mov	x19, x1
    100e1d9c:	7100081f 	cmp	w0, #0x2
    100e1da0:	540000a0 	b.eq	100e1db4 <psci_cpu_suspend_finish+0x38>  // b.none
    100e1da4:	528023a1 	mov	w1, #0x11d                 	// #285
    100e1da8:	f0000020 	adrp	x0, 100e8000 <__TEXT_END__>
    100e1dac:	91173c00 	add	x0, x0, #0x5cf
    100e1db0:	940011ad 	bl	100e6464 <__assert>
    100e1db4:	b0000060 	adrp	x0, 100ee000 <__STACKS_START__+0x3f80>
    100e1db8:	f947c000 	ldr	x0, [x0, #3968]
    100e1dbc:	f9401c01 	ldr	x1, [x0, #56]
    100e1dc0:	aa1303e0 	mov	x0, x19
    100e1dc4:	d63f0020 	blr	x1
    100e1dc8:	94000f5c 	bl	100e5b38 <psci_do_pwrup_cache_maintenance>
    100e1dcc:	940009fb 	bl	100e45b8 <plat_get_syscnt_freq2>
    100e1dd0:	2a0003e0 	mov	w0, w0
    100e1dd4:	d51be000 	msr	cntfrq_el0, x0
    100e1dd8:	b0000074 	adrp	x20, 100ee000 <__STACKS_START__+0x3f80>
    100e1ddc:	f947c680 	ldr	x0, [x20, #3976]
    100e1de0:	b40001a0 	cbz	x0, 100e1e14 <psci_cpu_suspend_finish+0x98>
    100e1de4:	f9401000 	ldr	x0, [x0, #32]
    100e1de8:	b4000160 	cbz	x0, 100e1e14 <psci_cpu_suspend_finish+0x98>
    100e1dec:	aa1303e0 	mov	x0, x19
    100e1df0:	94000104 	bl	100e2200 <psci_find_max_off_lvl>
    100e1df4:	7100081f 	cmp	w0, #0x2
    100e1df8:	54000061 	b.ne	100e1e04 <psci_cpu_suspend_finish+0x88>  // b.any
    100e1dfc:	52802801 	mov	w1, #0x140                 	// #320
    100e1e00:	17ffffea 	b	100e1da8 <psci_cpu_suspend_finish+0x2c>
    100e1e04:	f947c681 	ldr	x1, [x20, #3976]
    100e1e08:	2a0003e0 	mov	w0, w0
    100e1e0c:	f9401021 	ldr	x1, [x1, #32]
    100e1e10:	d63f0020 	blr	x1
    100e1e14:	d53ed040 	mrs	x0, tpidr_el3
    100e1e18:	90000053 	adrp	x19, 100e9000 <non_el3_sys_regs+0x74>
    100e1e1c:	910d4273 	add	x19, x19, #0x350
    100e1e20:	90000054 	adrp	x20, 100e9000 <non_el3_sys_regs+0x74>
    100e1e24:	910d4294 	add	x20, x20, #0x350
    100e1e28:	52800041 	mov	w1, #0x2                   	// #2
    100e1e2c:	b9001c01 	str	w1, [x0, #28]
    100e1e30:	eb14027f 	cmp	x19, x20
    100e1e34:	540000a3 	b.cc	100e1e48 <psci_cpu_suspend_finish+0xcc>  // b.lo, b.ul, b.last
    100e1e38:	a94153f3 	ldp	x19, x20, [sp, #16]
    100e1e3c:	52800020 	mov	w0, #0x1                   	// #1
    100e1e40:	a8c27bfd 	ldp	x29, x30, [sp], #32
    100e1e44:	17fffde1 	b	100e15c8 <cm_prepare_el3_exit>
    100e1e48:	f8408661 	ldr	x1, [x19], #8
    100e1e4c:	d2800000 	mov	x0, #0x0                   	// #0
    100e1e50:	d63f0020 	blr	x1
    100e1e54:	17fffff7 	b	100e1e30 <psci_cpu_suspend_finish+0xb4>

00000000100e1e58 <psci_validate_power_state>:
    100e1e58:	52bf9fc2 	mov	w2, #0xfcfe0000            	// #-50462720
    100e1e5c:	6a02001f 	tst	w0, w2
    100e1e60:	540001a1 	b.ne	100e1e94 <psci_validate_power_state+0x3c>  // b.any
    100e1e64:	b0000062 	adrp	x2, 100ee000 <__STACKS_START__+0x3f80>
    100e1e68:	f947c042 	ldr	x2, [x2, #3968]
    100e1e6c:	f9402c42 	ldr	x2, [x2, #88]
    100e1e70:	b50000e2 	cbnz	x2, 100e1e8c <psci_validate_power_state+0x34>
    100e1e74:	a9bf7bfd 	stp	x29, x30, [sp, #-16]!
    100e1e78:	f0000020 	adrp	x0, 100e8000 <__TEXT_END__>
    100e1e7c:	91179c00 	add	x0, x0, #0x5e7
    100e1e80:	910003fd 	mov	x29, sp
    100e1e84:	52801041 	mov	w1, #0x82                  	// #130
    100e1e88:	94001177 	bl	100e6464 <__assert>
    100e1e8c:	aa0203f0 	mov	x16, x2
    100e1e90:	d61f0200 	br	x16
    100e1e94:	12800020 	mov	w0, #0xfffffffe            	// #-2
    100e1e98:	d65f03c0 	ret

00000000100e1e9c <psci_query_sys_suspend_pwrstate>:
    100e1e9c:	b0000061 	adrp	x1, 100ee000 <__STACKS_START__+0x3f80>
    100e1ea0:	f947c021 	ldr	x1, [x1, #3968]
    100e1ea4:	f9403421 	ldr	x1, [x1, #104]
    100e1ea8:	b50000e1 	cbnz	x1, 100e1ec4 <psci_query_sys_suspend_pwrstate+0x28>
    100e1eac:	a9bf7bfd 	stp	x29, x30, [sp, #-16]!
    100e1eb0:	f0000020 	adrp	x0, 100e8000 <__TEXT_END__>
    100e1eb4:	91179c00 	add	x0, x0, #0x5e7
    100e1eb8:	910003fd 	mov	x29, sp
    100e1ebc:	52801241 	mov	w1, #0x92                  	// #146
    100e1ec0:	94001169 	bl	100e6464 <__assert>
    100e1ec4:	aa0103f0 	mov	x16, x1
    100e1ec8:	d61f0200 	br	x16

00000000100e1ecc <psci_is_last_on_cpu>:
    100e1ecc:	a9be7bfd 	stp	x29, x30, [sp, #-32]!
    100e1ed0:	910003fd 	mov	x29, sp
    100e1ed4:	a90153f3 	stp	x19, x20, [sp, #16]
    100e1ed8:	94000d74 	bl	100e54a8 <plat_my_core_pos>
    100e1edc:	2a0003f4 	mov	w20, w0
    100e1ee0:	52800013 	mov	w19, #0x0                   	// #0
    100e1ee4:	6b13029f 	cmp	w20, w19
    100e1ee8:	540001e1 	b.ne	100e1f24 <psci_is_last_on_cpu+0x58>  // b.any
    100e1eec:	d53ed040 	mrs	x0, tpidr_el3
    100e1ef0:	b9401800 	ldr	w0, [x0, #24]
    100e1ef4:	35000100 	cbnz	w0, 100e1f14 <psci_is_last_on_cpu+0x48>
    100e1ef8:	11000673 	add	w19, w19, #0x1
    100e1efc:	7100127f 	cmp	w19, #0x4
    100e1f00:	54ffff21 	b.ne	100e1ee4 <psci_is_last_on_cpu+0x18>  // b.any
    100e1f04:	52800020 	mov	w0, #0x1                   	// #1
    100e1f08:	a94153f3 	ldp	x19, x20, [sp, #16]
    100e1f0c:	a8c27bfd 	ldp	x29, x30, [sp], #32
    100e1f10:	d65f03c0 	ret
    100e1f14:	f0000020 	adrp	x0, 100e8000 <__TEXT_END__>
    100e1f18:	91179c00 	add	x0, x0, #0x5e7
    100e1f1c:	528014e1 	mov	w1, #0xa7                  	// #167
    100e1f20:	94001151 	bl	100e6464 <__assert>
    100e1f24:	2a1303e0 	mov	w0, w19
    100e1f28:	94000e8b 	bl	100e5954 <_cpu_data_by_index>
    100e1f2c:	b9401800 	ldr	w0, [x0, #24]
    100e1f30:	7100041f 	cmp	w0, #0x1
    100e1f34:	54fffe20 	b.eq	100e1ef8 <psci_is_last_on_cpu+0x2c>  // b.none
    100e1f38:	52800000 	mov	w0, #0x0                   	// #0
    100e1f3c:	17fffff3 	b	100e1f08 <psci_is_last_on_cpu+0x3c>

00000000100e1f40 <psci_init_req_local_pwr_states>:
    100e1f40:	b0000062 	adrp	x2, 100ee000 <__STACKS_START__+0x3f80>
    100e1f44:	91060041 	add	x1, x2, #0x180
    100e1f48:	52800040 	mov	w0, #0x2                   	// #2
    100e1f4c:	39060040 	strb	w0, [x2, #384]
    100e1f50:	39000420 	strb	w0, [x1, #1]
    100e1f54:	39000820 	strb	w0, [x1, #2]
    100e1f58:	39000c20 	strb	w0, [x1, #3]
    100e1f5c:	d65f03c0 	ret

00000000100e1f60 <psci_get_target_local_pwr_states>:
    100e1f60:	a9be7bfd 	stp	x29, x30, [sp, #-32]!
    100e1f64:	910003fd 	mov	x29, sp
    100e1f68:	a90153f3 	stp	x19, x20, [sp, #16]
    100e1f6c:	2a0003f4 	mov	w20, w0
    100e1f70:	aa0103f3 	mov	x19, x1
    100e1f74:	d53ed040 	mrs	x0, tpidr_el3
    100e1f78:	39408000 	ldrb	w0, [x0, #32]
    100e1f7c:	39000020 	strb	w0, [x1]
    100e1f80:	94000d4a 	bl	100e54a8 <plat_my_core_pos>
    100e1f84:	d37c7c00 	ubfiz	x0, x0, #4, #32
    100e1f88:	b0000061 	adrp	x1, 100ee000 <__STACKS_START__+0x3f80>
    100e1f8c:	913d0021 	add	x1, x1, #0xf40
    100e1f90:	8b000021 	add	x1, x1, x0
    100e1f94:	f0000080 	adrp	x0, 100f4000 <psci_locks>
    100e1f98:	91002000 	add	x0, x0, #0x8
    100e1f9c:	52800023 	mov	w3, #0x1                   	// #1
    100e1fa0:	b9400822 	ldr	w2, [x1, #8]
    100e1fa4:	6b14007f 	cmp	w3, w20
    100e1fa8:	540000e9 	b.ls	100e1fc4 <psci_get_target_local_pwr_states+0x64>  // b.plast
    100e1fac:	7100047f 	cmp	w3, #0x1
    100e1fb0:	54000048 	b.hi	100e1fb8 <psci_get_target_local_pwr_states+0x58>  // b.pmore
    100e1fb4:	38234a7f 	strb	wzr, [x19, w3, uxtw]
    100e1fb8:	a94153f3 	ldp	x19, x20, [sp, #16]
    100e1fbc:	a8c27bfd 	ldp	x29, x30, [sp], #32
    100e1fc0:	d65f03c0 	ret
    100e1fc4:	d37c7c42 	ubfiz	x2, x2, #4, #32
    100e1fc8:	8b020002 	add	x2, x0, x2
    100e1fcc:	39403041 	ldrb	w1, [x2, #12]
    100e1fd0:	38234a61 	strb	w1, [x19, w3, uxtw]
    100e1fd4:	11000463 	add	w3, w3, #0x1
    100e1fd8:	b9400842 	ldr	w2, [x2, #8]
    100e1fdc:	17fffff2 	b	100e1fa4 <psci_get_target_local_pwr_states+0x44>

00000000100e1fe0 <psci_get_parent_pwr_domain_nodes>:
    100e1fe0:	d37c7c03 	ubfiz	x3, x0, #4, #32
    100e1fe4:	b0000060 	adrp	x0, 100ee000 <__STACKS_START__+0x3f80>
    100e1fe8:	913d0000 	add	x0, x0, #0xf40
    100e1fec:	f0000084 	adrp	x4, 100f4000 <psci_locks>
    100e1ff0:	91002084 	add	x4, x4, #0x8
    100e1ff4:	8b030000 	add	x0, x0, x3
    100e1ff8:	d1001042 	sub	x2, x2, #0x4
    100e1ffc:	d2800003 	mov	x3, #0x0                   	// #0
    100e2000:	b9400800 	ldr	w0, [x0, #8]
    100e2004:	91000463 	add	x3, x3, #0x1
    100e2008:	6b03003f 	cmp	w1, w3
    100e200c:	54000042 	b.cs	100e2014 <psci_get_parent_pwr_domain_nodes+0x34>  // b.hs, b.nlast
    100e2010:	d65f03c0 	ret
    100e2014:	b8237840 	str	w0, [x2, x3, lsl #2]
    100e2018:	d37c7c00 	ubfiz	x0, x0, #4, #32
    100e201c:	8b000080 	add	x0, x4, x0
    100e2020:	b9400800 	ldr	w0, [x0, #8]
    100e2024:	17fffff8 	b	100e2004 <psci_get_parent_pwr_domain_nodes+0x24>

00000000100e2028 <psci_set_pwr_domains_to_run>:
    100e2028:	a9be7bfd 	stp	x29, x30, [sp, #-32]!
    100e202c:	910003fd 	mov	x29, sp
    100e2030:	f9000bf3 	str	x19, [sp, #16]
    100e2034:	2a0003f3 	mov	w19, w0
    100e2038:	94000d1c 	bl	100e54a8 <plat_my_core_pos>
    100e203c:	d37c7c02 	ubfiz	x2, x0, #4, #32
    100e2040:	90000061 	adrp	x1, 100ee000 <__STACKS_START__+0x3f80>
    100e2044:	913d0021 	add	x1, x1, #0xf40
    100e2048:	8b020021 	add	x1, x1, x2
    100e204c:	d0000083 	adrp	x3, 100f4000 <psci_locks>
    100e2050:	91002063 	add	x3, x3, #0x8
    100e2054:	90000064 	adrp	x4, 100ee000 <__STACKS_START__+0x3f80>
    100e2058:	91060084 	add	x4, x4, #0x180
    100e205c:	2a0003e6 	mov	w6, w0
    100e2060:	b9400821 	ldr	w1, [x1, #8]
    100e2064:	52800022 	mov	w2, #0x1                   	// #1
    100e2068:	6b13005f 	cmp	w2, w19
    100e206c:	54000169 	b.ls	100e2098 <psci_set_pwr_domains_to_run+0x70>  // b.plast
    100e2070:	d53ed040 	mrs	x0, tpidr_el3
    100e2074:	b900181f 	str	wzr, [x0, #24]
    100e2078:	d53ed040 	mrs	x0, tpidr_el3
    100e207c:	3900801f 	strb	wzr, [x0, #32]
    100e2080:	d53ed040 	mrs	x0, tpidr_el3
    100e2084:	f9400bf3 	ldr	x19, [sp, #16]
    100e2088:	91006000 	add	x0, x0, #0x18
    100e208c:	a8c27bfd 	ldp	x29, x30, [sp], #32
    100e2090:	d2800181 	mov	x1, #0xc                   	// #12
    100e2094:	14000fb2 	b	100e5f5c <flush_dcache_range>
    100e2098:	2a0103e5 	mov	w5, w1
    100e209c:	d37c7c21 	ubfiz	x1, x1, #4, #32
    100e20a0:	8b010061 	add	x1, x3, x1
    100e20a4:	3900303f 	strb	wzr, [x1, #12]
    100e20a8:	350000a2 	cbnz	w2, 100e20bc <psci_set_pwr_domains_to_run+0x94>
    100e20ac:	d0000020 	adrp	x0, 100e8000 <__TEXT_END__>
    100e20b0:	91179c00 	add	x0, x0, #0x5e7
    100e20b4:	52801a21 	mov	w1, #0xd1                  	// #209
    100e20b8:	940010eb 	bl	100e6464 <__assert>
    100e20bc:	7100045f 	cmp	w2, #0x1
    100e20c0:	7a430802 	ccmp	w0, #0x3, #0x2, eq  // eq = none
    100e20c4:	54000048 	b.hi	100e20cc <psci_set_pwr_domains_to_run+0xa4>  // b.pmore
    100e20c8:	3826689f 	strb	wzr, [x4, x6]
    100e20cc:	8b051061 	add	x1, x3, x5, lsl #4
    100e20d0:	11000442 	add	w2, w2, #0x1
    100e20d4:	b9400821 	ldr	w1, [x1, #8]
    100e20d8:	17ffffe4 	b	100e2068 <psci_set_pwr_domains_to_run+0x40>

00000000100e20dc <psci_do_state_coordination>:
    100e20dc:	a9bb7bfd 	stp	x29, x30, [sp, #-80]!
    100e20e0:	910003fd 	mov	x29, sp
    100e20e4:	a90153f3 	stp	x19, x20, [sp, #16]
    100e20e8:	2a0003f4 	mov	w20, w0
    100e20ec:	aa0103f3 	mov	x19, x1
    100e20f0:	a9025bf5 	stp	x21, x22, [sp, #32]
    100e20f4:	a90363f7 	stp	x23, x24, [sp, #48]
    100e20f8:	a9046bf9 	stp	x25, x26, [sp, #64]
    100e20fc:	94000ceb 	bl	100e54a8 <plat_my_core_pos>
    100e2100:	7100069f 	cmp	w20, #0x1
    100e2104:	540000a9 	b.ls	100e2118 <psci_do_state_coordination+0x3c>  // b.plast
    100e2108:	d0000020 	adrp	x0, 100e8000 <__TEXT_END__>
    100e210c:	91179c00 	add	x0, x0, #0x5e7
    100e2110:	52803541 	mov	w1, #0x1aa                 	// #426
    100e2114:	940010d4 	bl	100e6464 <__assert>
    100e2118:	2a0003f5 	mov	w21, w0
    100e211c:	90000060 	adrp	x0, 100ee000 <__STACKS_START__+0x3f80>
    100e2120:	913d0016 	add	x22, x0, #0xf40
    100e2124:	90000077 	adrp	x23, 100ee000 <__STACKS_START__+0x3f80>
    100e2128:	910602f7 	add	x23, x23, #0x180
    100e212c:	d37c7ea0 	ubfiz	x0, x21, #4, #32
    100e2130:	8b0002c0 	add	x0, x22, x0
    100e2134:	d0000098 	adrp	x24, 100f4000 <psci_locks>
    100e2138:	91002318 	add	x24, x24, #0x8
    100e213c:	2a1503fa 	mov	w26, w21
    100e2140:	b9400801 	ldr	w1, [x0, #8]
    100e2144:	52800020 	mov	w0, #0x1                   	// #1
    100e2148:	6b14001f 	cmp	w0, w20
    100e214c:	54000228 	b.hi	100e2190 <psci_do_state_coordination+0xb4>  // b.pmore
    100e2150:	71000ebf 	cmp	w21, #0x3
    100e2154:	54000068 	b.hi	100e2160 <psci_do_state_coordination+0x84>  // b.pmore
    100e2158:	39400660 	ldrb	w0, [x19, #1]
    100e215c:	383a6ae0 	strb	w0, [x23, x26]
    100e2160:	d37c7c21 	ubfiz	x1, x1, #4, #32
    100e2164:	8b010319 	add	x25, x24, x1
    100e2168:	b8616b00 	ldr	w0, [x24, x1]
    100e216c:	b9400722 	ldr	w2, [x25, #4]
    100e2170:	7100101f 	cmp	w0, #0x4
    100e2174:	8b2042e1 	add	x1, x23, w0, uxtw
    100e2178:	52800020 	mov	w0, #0x1                   	// #1
    100e217c:	9a9f3021 	csel	x1, x1, xzr, cc  // cc = lo, ul, last
    100e2180:	97fff801 	bl	100e0184 <plat_get_target_pwr_state>
    100e2184:	39000660 	strb	w0, [x19, #1]
    100e2188:	72001c1f 	tst	w0, #0xff
    100e218c:	54000261 	b.ne	100e21d8 <psci_do_state_coordination+0xfc>  // b.any
    100e2190:	39400261 	ldrb	w1, [x19]
    100e2194:	d53ed040 	mrs	x0, tpidr_el3
    100e2198:	39008001 	strb	w1, [x0, #32]
    100e219c:	d53ed040 	mrs	x0, tpidr_el3
    100e21a0:	91008000 	add	x0, x0, #0x20
    100e21a4:	d2800021 	mov	x1, #0x1                   	// #1
    100e21a8:	94000f6d 	bl	100e5f5c <flush_dcache_range>
    100e21ac:	94000cbf 	bl	100e54a8 <plat_my_core_pos>
    100e21b0:	d37c7c00 	ubfiz	x0, x0, #4, #32
    100e21b4:	8b0002c0 	add	x0, x22, x0
    100e21b8:	b9400800 	ldr	w0, [x0, #8]
    100e21bc:	35000154 	cbnz	w20, 100e21e4 <psci_do_state_coordination+0x108>
    100e21c0:	a94153f3 	ldp	x19, x20, [sp, #16]
    100e21c4:	a9425bf5 	ldp	x21, x22, [sp, #32]
    100e21c8:	a94363f7 	ldp	x23, x24, [sp, #48]
    100e21cc:	a9446bf9 	ldp	x25, x26, [sp, #64]
    100e21d0:	a8c57bfd 	ldp	x29, x30, [sp], #80
    100e21d4:	d65f03c0 	ret
    100e21d8:	b9400b21 	ldr	w1, [x25, #8]
    100e21dc:	52800040 	mov	w0, #0x2                   	// #2
    100e21e0:	17ffffda 	b	100e2148 <psci_do_state_coordination+0x6c>
    100e21e4:	d37c7c01 	ubfiz	x1, x0, #4, #32
    100e21e8:	d0000080 	adrp	x0, 100f4000 <psci_locks>
    100e21ec:	91002000 	add	x0, x0, #0x8
    100e21f0:	39400662 	ldrb	w2, [x19, #1]
    100e21f4:	8b010000 	add	x0, x0, x1
    100e21f8:	39003002 	strb	w2, [x0, #12]
    100e21fc:	17fffff1 	b	100e21c0 <psci_do_state_coordination+0xe4>

00000000100e2200 <psci_find_max_off_lvl>:
    100e2200:	39400401 	ldrb	w1, [x0, #1]
    100e2204:	7100083f 	cmp	w1, #0x2
    100e2208:	540000e0 	b.eq	100e2224 <psci_find_max_off_lvl+0x24>  // b.none
    100e220c:	39400001 	ldrb	w1, [x0]
    100e2210:	52800040 	mov	w0, #0x2                   	// #2
    100e2214:	6b00003f 	cmp	w1, w0
    100e2218:	54000041 	b.ne	100e2220 <psci_find_max_off_lvl+0x20>  // b.any
    100e221c:	52800000 	mov	w0, #0x0                   	// #0
    100e2220:	d65f03c0 	ret
    100e2224:	52800020 	mov	w0, #0x1                   	// #1
    100e2228:	17fffffe 	b	100e2220 <psci_find_max_off_lvl+0x20>

00000000100e222c <psci_find_target_suspend_lvl>:
    100e222c:	39400401 	ldrb	w1, [x0, #1]
    100e2230:	350000c1 	cbnz	w1, 100e2248 <psci_find_target_suspend_lvl+0x1c>
    100e2234:	39400001 	ldrb	w1, [x0]
    100e2238:	52800040 	mov	w0, #0x2                   	// #2
    100e223c:	34000041 	cbz	w1, 100e2244 <psci_find_target_suspend_lvl+0x18>
    100e2240:	52800000 	mov	w0, #0x0                   	// #0
    100e2244:	d65f03c0 	ret
    100e2248:	52800020 	mov	w0, #0x1                   	// #1
    100e224c:	17fffffe 	b	100e2244 <psci_find_target_suspend_lvl+0x18>

00000000100e2250 <psci_validate_suspend_req>:
    100e2250:	aa0003e3 	mov	x3, x0
    100e2254:	2a0103e5 	mov	w5, w1
    100e2258:	a9bf7bfd 	stp	x29, x30, [sp, #-16]!
    100e225c:	910003fd 	mov	x29, sp
    100e2260:	97fffff3 	bl	100e222c <psci_find_target_suspend_lvl>
    100e2264:	7100081f 	cmp	w0, #0x2
    100e2268:	54000300 	b.eq	100e22c8 <psci_validate_suspend_req+0x78>  // b.none
    100e226c:	2a0003e2 	mov	w2, w0
    100e2270:	93407c00 	sxtw	x0, w0
    100e2274:	52800001 	mov	w1, #0x0                   	// #0
    100e2278:	36f801a0 	tbz	w0, #31, 100e22ac <psci_validate_suspend_req+0x5c>
    100e227c:	aa0303e0 	mov	x0, x3
    100e2280:	97ffffe0 	bl	100e2200 <psci_find_max_off_lvl>
    100e2284:	6b00005f 	cmp	w2, w0
    100e2288:	52800041 	mov	w1, #0x2                   	// #2
    100e228c:	1a811042 	csel	w2, w2, w1, ne  // ne = any
    100e2290:	350002c5 	cbnz	w5, 100e22e8 <psci_validate_suspend_req+0x98>
    100e2294:	6b01001f 	cmp	w0, w1
    100e2298:	12800020 	mov	w0, #0xfffffffe            	// #-2
    100e229c:	7a410044 	ccmp	w2, w1, #0x4, eq  // eq = none
    100e22a0:	1a8013e0 	csel	w0, wzr, w0, ne  // ne = any
    100e22a4:	a8c17bfd 	ldp	x29, x30, [sp], #16
    100e22a8:	d65f03c0 	ret
    100e22ac:	38606864 	ldrb	w4, [x3, x0]
    100e22b0:	34000104 	cbz	w4, 100e22d0 <psci_validate_suspend_req+0x80>
    100e22b4:	7100049f 	cmp	w4, #0x1
    100e22b8:	54000108 	b.hi	100e22d8 <psci_validate_suspend_req+0x88>  // b.pmore
    100e22bc:	52800024 	mov	w4, #0x1                   	// #1
    100e22c0:	6b04003f 	cmp	w1, w4
    100e22c4:	540000c9 	b.ls	100e22dc <psci_validate_suspend_req+0x8c>  // b.plast
    100e22c8:	12800020 	mov	w0, #0xfffffffe            	// #-2
    100e22cc:	17fffff6 	b	100e22a4 <psci_validate_suspend_req+0x54>
    100e22d0:	52800004 	mov	w4, #0x0                   	// #0
    100e22d4:	17fffffb 	b	100e22c0 <psci_validate_suspend_req+0x70>
    100e22d8:	52800044 	mov	w4, #0x2                   	// #2
    100e22dc:	d1000400 	sub	x0, x0, #0x1
    100e22e0:	2a0403e1 	mov	w1, w4
    100e22e4:	17ffffe5 	b	100e2278 <psci_validate_suspend_req+0x28>
    100e22e8:	52800000 	mov	w0, #0x0                   	// #0
    100e22ec:	17ffffee 	b	100e22a4 <psci_validate_suspend_req+0x54>

00000000100e22f0 <psci_acquire_pwr_domain_locks>:
    100e22f0:	a9bc7bfd 	stp	x29, x30, [sp, #-64]!
    100e22f4:	910003fd 	mov	x29, sp
    100e22f8:	a90153f3 	stp	x19, x20, [sp, #16]
    100e22fc:	2a0003f4 	mov	w20, w0
    100e2300:	52800033 	mov	w19, #0x1                   	// #1
    100e2304:	a9025bf5 	stp	x21, x22, [sp, #32]
    100e2308:	d0000096 	adrp	x22, 100f4000 <psci_locks>
    100e230c:	910002d6 	add	x22, x22, #0x0
    100e2310:	aa0103f5 	mov	x21, x1
    100e2314:	f9001bf7 	str	x23, [sp, #48]
    100e2318:	d0000097 	adrp	x23, 100f4000 <psci_locks>
    100e231c:	910022f7 	add	x23, x23, #0x8
    100e2320:	6b14027f 	cmp	w19, w20
    100e2324:	540000c9 	b.ls	100e233c <psci_acquire_pwr_domain_locks+0x4c>  // b.plast
    100e2328:	a94153f3 	ldp	x19, x20, [sp, #16]
    100e232c:	a9425bf5 	ldp	x21, x22, [sp, #32]
    100e2330:	f9401bf7 	ldr	x23, [sp, #48]
    100e2334:	a8c47bfd 	ldp	x29, x30, [sp], #64
    100e2338:	d65f03c0 	ret
    100e233c:	51000660 	sub	w0, w19, #0x1
    100e2340:	11000673 	add	w19, w19, #0x1
    100e2344:	b8607aa0 	ldr	w0, [x21, x0, lsl #2]
    100e2348:	8b0012e0 	add	x0, x23, x0, lsl #4
    100e234c:	39403800 	ldrb	w0, [x0, #14]
    100e2350:	8b000ec0 	add	x0, x22, x0, lsl #3
    100e2354:	940003ef 	bl	100e3310 <bakery_lock_get>
    100e2358:	17fffff2 	b	100e2320 <psci_acquire_pwr_domain_locks+0x30>

00000000100e235c <psci_release_pwr_domain_locks>:
    100e235c:	a9bd7bfd 	stp	x29, x30, [sp, #-48]!
    100e2360:	910003fd 	mov	x29, sp
    100e2364:	a90153f3 	stp	x19, x20, [sp, #16]
    100e2368:	2a0003f3 	mov	w19, w0
    100e236c:	aa0103f4 	mov	x20, x1
    100e2370:	a9025bf5 	stp	x21, x22, [sp, #32]
    100e2374:	d0000095 	adrp	x21, 100f4000 <psci_locks>
    100e2378:	910002b5 	add	x21, x21, #0x0
    100e237c:	d0000096 	adrp	x22, 100f4000 <psci_locks>
    100e2380:	910022d6 	add	x22, x22, #0x8
    100e2384:	350000b3 	cbnz	w19, 100e2398 <psci_release_pwr_domain_locks+0x3c>
    100e2388:	a94153f3 	ldp	x19, x20, [sp, #16]
    100e238c:	a9425bf5 	ldp	x21, x22, [sp, #32]
    100e2390:	a8c37bfd 	ldp	x29, x30, [sp], #48
    100e2394:	d65f03c0 	ret
    100e2398:	51000673 	sub	w19, w19, #0x1
    100e239c:	b8735a80 	ldr	w0, [x20, w19, uxtw #2]
    100e23a0:	8b0012c0 	add	x0, x22, x0, lsl #4
    100e23a4:	39403800 	ldrb	w0, [x0, #14]
    100e23a8:	8b000ea0 	add	x0, x21, x0, lsl #3
    100e23ac:	94000414 	bl	100e33fc <bakery_lock_release>
    100e23b0:	17fffff5 	b	100e2384 <psci_release_pwr_domain_locks+0x28>

00000000100e23b4 <psci_validate_mpidr>:
    100e23b4:	a9bf7bfd 	stp	x29, x30, [sp, #-16]!
    100e23b8:	910003fd 	mov	x29, sp
    100e23bc:	97fff893 	bl	100e0608 <plat_core_pos_by_mpidr>
    100e23c0:	7100001f 	cmp	w0, #0x0
    100e23c4:	a8c17bfd 	ldp	x29, x30, [sp], #16
    100e23c8:	12800020 	mov	w0, #0xfffffffe            	// #-2
    100e23cc:	1a9fb000 	csel	w0, w0, wzr, lt  // lt = tstop
    100e23d0:	d65f03c0 	ret

00000000100e23d4 <psci_validate_entry_point>:
    100e23d4:	a9bb7bfd 	stp	x29, x30, [sp, #-80]!
    100e23d8:	910003fd 	mov	x29, sp
    100e23dc:	a90153f3 	stp	x19, x20, [sp, #16]
    100e23e0:	aa0003f4 	mov	x20, x0
    100e23e4:	90000060 	adrp	x0, 100ee000 <__STACKS_START__+0x3f80>
    100e23e8:	f947c000 	ldr	x0, [x0, #3968]
    100e23ec:	aa0103f3 	mov	x19, x1
    100e23f0:	a9025bf5 	stp	x21, x22, [sp, #32]
    100e23f4:	f9403001 	ldr	x1, [x0, #96]
    100e23f8:	a90363f7 	stp	x23, x24, [sp, #48]
    100e23fc:	aa0203f8 	mov	x24, x2
    100e2400:	f90023f9 	str	x25, [sp, #64]
    100e2404:	b5000361 	cbnz	x1, 100e2470 <psci_validate_entry_point+0x9c>
    100e2408:	d53e1117 	mrs	x23, scr_el3
    100e240c:	d5381000 	mrs	x0, sctlr_el1
    100e2410:	927802f9 	and	x25, x23, #0x100
    100e2414:	37400437 	tbnz	w23, #8, 100e2498 <psci_validate_entry_point+0xc4>
    100e2418:	f2670001 	ands	x1, x0, #0x2000000
    100e241c:	53196415 	ubfx	w21, w0, #25, #1
    100e2420:	d2800076 	mov	x22, #0x3                   	// #3
    100e2424:	52802021 	mov	w1, #0x101                 	// #257
    100e2428:	72a00b01 	movk	w1, #0x58, lsl #16
    100e242c:	9a9f16c0 	csinc	x0, x22, xzr, ne  // ne = any
    100e2430:	29000281 	stp	w1, w0, [x20]
    100e2434:	91006280 	add	x0, x20, #0x18
    100e2438:	f9000693 	str	x19, [x20, #8]
    100e243c:	d2800801 	mov	x1, #0x40                  	// #64
    100e2440:	94000f30 	bl	100e6100 <zeromem>
    100e2444:	f9000e98 	str	x24, [x20, #24]
    100e2448:	365002d7 	tbz	w23, #10, 100e24a0 <psci_validate_entry_point+0xcc>
    100e244c:	37000193 	tbnz	w19, #0, 100e247c <psci_validate_entry_point+0xa8>
    100e2450:	f100033f 	cmp	x25, #0x0
    100e2454:	52807821 	mov	w1, #0x3c1                 	// #961
    100e2458:	1a9f07e0 	cset	w0, ne  // ne = any
    100e245c:	11000400 	add	w0, w0, #0x1
    100e2460:	2a000820 	orr	w0, w1, w0, lsl #2
    100e2464:	b9001280 	str	w0, [x20, #16]
    100e2468:	52800000 	mov	w0, #0x0                   	// #0
    100e246c:	14000005 	b	100e2480 <psci_validate_entry_point+0xac>
    100e2470:	aa1303e0 	mov	x0, x19
    100e2474:	d63f0020 	blr	x1
    100e2478:	34fffc80 	cbz	w0, 100e2408 <psci_validate_entry_point+0x34>
    100e247c:	12800100 	mov	w0, #0xfffffff7            	// #-9
    100e2480:	a94153f3 	ldp	x19, x20, [sp, #16]
    100e2484:	a9425bf5 	ldp	x21, x22, [sp, #32]
    100e2488:	a94363f7 	ldp	x23, x24, [sp, #48]
    100e248c:	f94023f9 	ldr	x25, [sp, #64]
    100e2490:	a8c57bfd 	ldp	x29, x30, [sp], #80
    100e2494:	d65f03c0 	ret
    100e2498:	d53c1000 	mrs	x0, sctlr_el2
    100e249c:	17ffffdf 	b	100e2418 <psci_validate_entry_point+0x44>
    100e24a0:	52800140 	mov	w0, #0xa                   	// #10
    100e24a4:	f100033f 	cmp	x25, #0x0
    100e24a8:	1a8002d6 	csel	w22, w22, w0, eq  // eq = none
    100e24ac:	531b0273 	ubfiz	w19, w19, #5, #1
    100e24b0:	52803a00 	mov	w0, #0x1d0                 	// #464
    100e24b4:	2a160273 	orr	w19, w19, w22
    100e24b8:	2a152400 	orr	w0, w0, w21, lsl #9
    100e24bc:	2a000273 	orr	w19, w19, w0
    100e24c0:	b9001293 	str	w19, [x20, #16]
    100e24c4:	17ffffe9 	b	100e2468 <psci_validate_entry_point+0x94>

00000000100e24c8 <psci_warmboot_entrypoint>:
    100e24c8:	a9bd7bfd 	stp	x29, x30, [sp, #-48]!
    100e24cc:	910003fd 	mov	x29, sp
    100e24d0:	a90153f3 	stp	x19, x20, [sp, #16]
    100e24d4:	94000bf5 	bl	100e54a8 <plat_my_core_pos>
    100e24d8:	2a0003f4 	mov	w20, w0
    100e24dc:	790043ff 	strh	wzr, [sp, #32]
    100e24e0:	b9002bff 	str	wzr, [sp, #40]
    100e24e4:	d53ed040 	mrs	x0, tpidr_el3
    100e24e8:	b9401800 	ldr	w0, [x0, #24]
    100e24ec:	7100041f 	cmp	w0, #0x1
    100e24f0:	54000121 	b.ne	100e2514 <psci_warmboot_entrypoint+0x4c>  // b.any
    100e24f4:	d0000020 	adrp	x0, 100e8000 <__TEXT_END__>
    100e24f8:	9117f800 	add	x0, x0, #0x5fe
    100e24fc:	940006a6 	bl	100e3f94 <tf_log>
    100e2500:	d0000020 	adrp	x0, 100e8000 <__TEXT_END__>
    100e2504:	911af400 	add	x0, x0, #0x6bd
    100e2508:	9400079c 	bl	100e4378 <backtrace>
    100e250c:	94000739 	bl	100e41f0 <console_flush>
    100e2510:	94000e82 	bl	100e5f18 <do_panic>
    100e2514:	d53ed040 	mrs	x0, tpidr_el3
    100e2518:	b9401c13 	ldr	w19, [x0, #28]
    100e251c:	71000a7f 	cmp	w19, #0x2
    100e2520:	540000e0 	b.eq	100e253c <psci_warmboot_entrypoint+0x74>  // b.none
    100e2524:	7100067f 	cmp	w19, #0x1
    100e2528:	540000c9 	b.ls	100e2540 <psci_warmboot_entrypoint+0x78>  // b.plast
    100e252c:	d0000020 	adrp	x0, 100e8000 <__TEXT_END__>
    100e2530:	91179c00 	add	x0, x0, #0x5e7
    100e2534:	52801881 	mov	w1, #0xc4                  	// #196
    100e2538:	94000fcb 	bl	100e6464 <__assert>
    100e253c:	52800033 	mov	w19, #0x1                   	// #1
    100e2540:	9100a3e2 	add	x2, sp, #0x28
    100e2544:	2a1303e1 	mov	w1, w19
    100e2548:	2a1403e0 	mov	w0, w20
    100e254c:	97fffea5 	bl	100e1fe0 <psci_get_parent_pwr_domain_nodes>
    100e2550:	9100a3e1 	add	x1, sp, #0x28
    100e2554:	2a1303e0 	mov	w0, w19
    100e2558:	97ffff66 	bl	100e22f0 <psci_acquire_pwr_domain_locks>
    100e255c:	910083e1 	add	x1, sp, #0x20
    100e2560:	2a1303e0 	mov	w0, w19
    100e2564:	97fffe7f 	bl	100e1f60 <psci_get_target_local_pwr_states>
    100e2568:	d53ed040 	mrs	x0, tpidr_el3
    100e256c:	b9401800 	ldr	w0, [x0, #24]
    100e2570:	910083e1 	add	x1, sp, #0x20
    100e2574:	7100081f 	cmp	w0, #0x2
    100e2578:	2a1403e0 	mov	w0, w20
    100e257c:	54000141 	b.ne	100e25a4 <psci_warmboot_entrypoint+0xdc>  // b.any
    100e2580:	97fffd4c 	bl	100e1ab0 <psci_cpu_on_finish>
    100e2584:	2a1303e0 	mov	w0, w19
    100e2588:	97fffea8 	bl	100e2028 <psci_set_pwr_domains_to_run>
    100e258c:	9100a3e1 	add	x1, sp, #0x28
    100e2590:	2a1303e0 	mov	w0, w19
    100e2594:	97ffff72 	bl	100e235c <psci_release_pwr_domain_locks>
    100e2598:	a94153f3 	ldp	x19, x20, [sp, #16]
    100e259c:	a8c37bfd 	ldp	x29, x30, [sp], #48
    100e25a0:	d65f03c0 	ret
    100e25a4:	97fffdf6 	bl	100e1d7c <psci_cpu_suspend_finish>
    100e25a8:	17fffff7 	b	100e2584 <psci_warmboot_entrypoint+0xbc>

00000000100e25ac <psci_register_spd_pm_hook>:
    100e25ac:	b50000e0 	cbnz	x0, 100e25c8 <psci_register_spd_pm_hook+0x1c>
    100e25b0:	a9bf7bfd 	stp	x29, x30, [sp, #-16]!
    100e25b4:	d0000020 	adrp	x0, 100e8000 <__TEXT_END__>
    100e25b8:	91179c00 	add	x0, x0, #0x5e7
    100e25bc:	910003fd 	mov	x29, sp
    100e25c0:	52806a41 	mov	w1, #0x352                 	// #850
    100e25c4:	94000fa8 	bl	100e6464 <__assert>
    100e25c8:	90000061 	adrp	x1, 100ee000 <__STACKS_START__+0x3f80>
    100e25cc:	f907c420 	str	x0, [x1, #3976]
    100e25d0:	f9401401 	ldr	x1, [x0, #40]
    100e25d4:	b40000a1 	cbz	x1, 100e25e8 <psci_register_spd_pm_hook+0x3c>
    100e25d8:	90000062 	adrp	x2, 100ee000 <__STACKS_START__+0x3f80>
    100e25dc:	b94f9041 	ldr	w1, [x2, #3984]
    100e25e0:	321b0021 	orr	w1, w1, #0x20
    100e25e4:	b90f9041 	str	w1, [x2, #3984]
    100e25e8:	f9401800 	ldr	x0, [x0, #48]
    100e25ec:	b40000a0 	cbz	x0, 100e2600 <psci_register_spd_pm_hook+0x54>
    100e25f0:	90000061 	adrp	x1, 100ee000 <__STACKS_START__+0x3f80>
    100e25f4:	b94f9020 	ldr	w0, [x1, #3984]
    100e25f8:	321a0400 	orr	w0, w0, #0xc0
    100e25fc:	b90f9020 	str	w0, [x1, #3984]
    100e2600:	d65f03c0 	ret

00000000100e2604 <psci_spd_migrate_info>:
    100e2604:	90000061 	adrp	x1, 100ee000 <__STACKS_START__+0x3f80>
    100e2608:	f947c421 	ldr	x1, [x1, #3976]
    100e260c:	b40001a1 	cbz	x1, 100e2640 <psci_spd_migrate_info+0x3c>
    100e2610:	f9401821 	ldr	x1, [x1, #48]
    100e2614:	b4000161 	cbz	x1, 100e2640 <psci_spd_migrate_info+0x3c>
    100e2618:	a9bf7bfd 	stp	x29, x30, [sp, #-16]!
    100e261c:	910003fd 	mov	x29, sp
    100e2620:	d63f0020 	blr	x1
    100e2624:	11000401 	add	w1, w0, #0x1
    100e2628:	71000c3f 	cmp	w1, #0x3
    100e262c:	540000e9 	b.ls	100e2648 <psci_spd_migrate_info+0x44>  // b.plast
    100e2630:	d0000020 	adrp	x0, 100e8000 <__TEXT_END__>
    100e2634:	91179c00 	add	x0, x0, #0x5e7
    100e2638:	52806da1 	mov	w1, #0x36d                 	// #877
    100e263c:	94000f8a 	bl	100e6464 <__assert>
    100e2640:	12800000 	mov	w0, #0xffffffff            	// #-1
    100e2644:	d65f03c0 	ret
    100e2648:	a8c17bfd 	ldp	x29, x30, [sp], #16
    100e264c:	d65f03c0 	ret

00000000100e2650 <psci_print_power_domain_map>:
    100e2650:	a9bb7bfd 	stp	x29, x30, [sp, #-80]!
    100e2654:	d0000020 	adrp	x0, 100e8000 <__TEXT_END__>
    100e2658:	91187800 	add	x0, x0, #0x61e
    100e265c:	910003fd 	mov	x29, sp
    100e2660:	a90153f3 	stp	x19, x20, [sp, #16]
    100e2664:	a9025bf5 	stp	x21, x22, [sp, #32]
    100e2668:	a90363f7 	stp	x23, x24, [sp, #48]
    100e266c:	f90023f9 	str	x25, [sp, #64]
    100e2670:	94000649 	bl	100e3f94 <tf_log>
    100e2674:	d0000081 	adrp	x1, 100f4000 <psci_locks>
    100e2678:	91002021 	add	x1, x1, #0x8
    100e267c:	39403024 	ldrb	w4, [x1, #12]
    100e2680:	34000324 	cbz	w4, 100e26e4 <psci_print_power_domain_map+0x94>
    100e2684:	7100049f 	cmp	w4, #0x1
    100e2688:	1a9f97e0 	cset	w0, hi  // hi = pmore
    100e268c:	11000400 	add	w0, w0, #0x1
    100e2690:	d0000035 	adrp	x21, 100e8000 <__TEXT_END__>
    100e2694:	911b62b5 	add	x21, x21, #0x6d8
    100e2698:	b9400822 	ldr	w2, [x1, #8]
    100e269c:	90000073 	adrp	x19, 100ee000 <__STACKS_START__+0x3f80>
    100e26a0:	913d0273 	add	x19, x19, #0xf40
    100e26a4:	39403421 	ldrb	w1, [x1, #13]
    100e26a8:	f8607aa3 	ldr	x3, [x21, x0, lsl #3]
    100e26ac:	d0000036 	adrp	x22, 100e8000 <__TEXT_END__>
    100e26b0:	9119ced6 	add	x22, x22, #0x673
    100e26b4:	d0000020 	adrp	x0, 100e8000 <__TEXT_END__>
    100e26b8:	9118dc00 	add	x0, x0, #0x637
    100e26bc:	52800014 	mov	w20, #0x0                   	// #0
    100e26c0:	94000635 	bl	100e3f94 <tf_log>
    100e26c4:	7100129f 	cmp	w20, #0x4
    100e26c8:	54000121 	b.ne	100e26ec <psci_print_power_domain_map+0x9c>  // b.any
    100e26cc:	a94153f3 	ldp	x19, x20, [sp, #16]
    100e26d0:	a9425bf5 	ldp	x21, x22, [sp, #32]
    100e26d4:	a94363f7 	ldp	x23, x24, [sp, #48]
    100e26d8:	f94023f9 	ldr	x25, [sp, #64]
    100e26dc:	a8c57bfd 	ldp	x29, x30, [sp], #80
    100e26e0:	d65f03c0 	ret
    100e26e4:	d2800000 	mov	x0, #0x0                   	// #0
    100e26e8:	17ffffea 	b	100e2690 <psci_print_power_domain_map+0x40>
    100e26ec:	2a1403e0 	mov	w0, w20
    100e26f0:	94000c99 	bl	100e5954 <_cpu_data_by_index>
    100e26f4:	39408000 	ldrb	w0, [x0, #32]
    100e26f8:	34000240 	cbz	w0, 100e2740 <psci_print_power_domain_map+0xf0>
    100e26fc:	7100041f 	cmp	w0, #0x1
    100e2700:	1a9f97e0 	cset	w0, hi  // hi = pmore
    100e2704:	11000400 	add	w0, w0, #0x1
    100e2708:	b9400a78 	ldr	w24, [x19, #8]
    100e270c:	91004273 	add	x19, x19, #0x10
    100e2710:	f85f0277 	ldur	x23, [x19, #-16]
    100e2714:	f8607ab9 	ldr	x25, [x21, x0, lsl #3]
    100e2718:	2a1403e0 	mov	w0, w20
    100e271c:	94000c8e 	bl	100e5954 <_cpu_data_by_index>
    100e2720:	39408004 	ldrb	w4, [x0, #32]
    100e2724:	aa1903e3 	mov	x3, x25
    100e2728:	2a1803e2 	mov	w2, w24
    100e272c:	aa1703e1 	mov	x1, x23
    100e2730:	aa1603e0 	mov	x0, x22
    100e2734:	11000694 	add	w20, w20, #0x1
    100e2738:	94000617 	bl	100e3f94 <tf_log>
    100e273c:	17ffffe2 	b	100e26c4 <psci_print_power_domain_map+0x74>
    100e2740:	d2800000 	mov	x0, #0x0                   	// #0
    100e2744:	17fffff1 	b	100e2708 <psci_print_power_domain_map+0xb8>

00000000100e2748 <psci_do_pwrdown_sequence>:
    100e2748:	14000ced 	b	100e5afc <psci_do_pwrdown_cache_maintenance>

00000000100e274c <psci_cpu_on>:
    100e274c:	a9b77bfd 	stp	x29, x30, [sp, #-144]!
    100e2750:	910003fd 	mov	x29, sp
    100e2754:	a90153f3 	stp	x19, x20, [sp, #16]
    100e2758:	aa0003f3 	mov	x19, x0
    100e275c:	aa0103f4 	mov	x20, x1
    100e2760:	f90013f5 	str	x21, [sp, #32]
    100e2764:	aa0203f5 	mov	x21, x2
    100e2768:	97ffff13 	bl	100e23b4 <psci_validate_mpidr>
    100e276c:	350001a0 	cbnz	w0, 100e27a0 <psci_cpu_on+0x54>
    100e2770:	aa1503e2 	mov	x2, x21
    100e2774:	aa1403e1 	mov	x1, x20
    100e2778:	9100e3e0 	add	x0, sp, #0x38
    100e277c:	97ffff16 	bl	100e23d4 <psci_validate_entry_point>
    100e2780:	35000080 	cbnz	w0, 100e2790 <psci_cpu_on+0x44>
    100e2784:	9100e3e1 	add	x1, sp, #0x38
    100e2788:	aa1303e0 	mov	x0, x19
    100e278c:	97fffc4e 	bl	100e18c4 <psci_cpu_on_start>
    100e2790:	a94153f3 	ldp	x19, x20, [sp, #16]
    100e2794:	f94013f5 	ldr	x21, [sp, #32]
    100e2798:	a8c97bfd 	ldp	x29, x30, [sp], #144
    100e279c:	d65f03c0 	ret
    100e27a0:	12800020 	mov	w0, #0xfffffffe            	// #-2
    100e27a4:	17fffffb 	b	100e2790 <psci_cpu_on+0x44>

00000000100e27a8 <psci_cpu_suspend>:
    100e27a8:	a9b67bfd 	stp	x29, x30, [sp, #-160]!
    100e27ac:	910003fd 	mov	x29, sp
    100e27b0:	a90153f3 	stp	x19, x20, [sp, #16]
    100e27b4:	2a0003f3 	mov	w19, w0
    100e27b8:	a9025bf5 	stp	x21, x22, [sp, #32]
    100e27bc:	aa0103f6 	mov	x22, x1
    100e27c0:	910103e1 	add	x1, sp, #0x40
    100e27c4:	f9001bf7 	str	x23, [sp, #48]
    100e27c8:	aa0203f7 	mov	x23, x2
    100e27cc:	790083ff 	strh	wzr, [sp, #64]
    100e27d0:	97fffda2 	bl	100e1e58 <psci_validate_power_state>
    100e27d4:	340001c0 	cbz	w0, 100e280c <psci_cpu_suspend+0x64>
    100e27d8:	3100081f 	cmn	w0, #0x2
    100e27dc:	54000101 	b.ne	100e27fc <psci_cpu_suspend+0x54>  // b.any
    100e27e0:	12800034 	mov	w20, #0xfffffffe            	// #-2
    100e27e4:	2a1403e0 	mov	w0, w20
    100e27e8:	a94153f3 	ldp	x19, x20, [sp, #16]
    100e27ec:	a9425bf5 	ldp	x21, x22, [sp, #32]
    100e27f0:	f9401bf7 	ldr	x23, [sp, #48]
    100e27f4:	a8ca7bfd 	ldp	x29, x30, [sp], #160
    100e27f8:	d65f03c0 	ret
    100e27fc:	52800861 	mov	w1, #0x43                  	// #67
    100e2800:	d0000020 	adrp	x0, 100e8000 <__TEXT_END__>
    100e2804:	911bc000 	add	x0, x0, #0x6f0
    100e2808:	94000f17 	bl	100e6464 <__assert>
    100e280c:	d3504273 	ubfx	x19, x19, #16, #1
    100e2810:	910103e0 	add	x0, sp, #0x40
    100e2814:	2a1303e1 	mov	w1, w19
    100e2818:	97fffe8e 	bl	100e2250 <psci_validate_suspend_req>
    100e281c:	2a0003f4 	mov	w20, w0
    100e2820:	34000060 	cbz	w0, 100e282c <psci_cpu_suspend+0x84>
    100e2824:	528009a1 	mov	w1, #0x4d                  	// #77
    100e2828:	17fffff6 	b	100e2800 <psci_cpu_suspend+0x58>
    100e282c:	910103e0 	add	x0, sp, #0x40
    100e2830:	97fffe7f 	bl	100e222c <psci_find_target_suspend_lvl>
    100e2834:	2a0003f5 	mov	w21, w0
    100e2838:	7100081f 	cmp	w0, #0x2
    100e283c:	54000121 	b.ne	100e2860 <psci_cpu_suspend+0xb8>  // b.any
    100e2840:	d0000020 	adrp	x0, 100e8000 <__TEXT_END__>
    100e2844:	911c1400 	add	x0, x0, #0x705
    100e2848:	940005d3 	bl	100e3f94 <tf_log>
    100e284c:	d0000020 	adrp	x0, 100e8000 <__TEXT_END__>
    100e2850:	911e1000 	add	x0, x0, #0x784
    100e2854:	940006c9 	bl	100e4378 <backtrace>
    100e2858:	94000666 	bl	100e41f0 <console_flush>
    100e285c:	94000daf 	bl	100e5f18 <do_panic>
    100e2860:	2a000260 	orr	w0, w19, w0
    100e2864:	35000180 	cbnz	w0, 100e2894 <psci_cpu_suspend+0xec>
    100e2868:	90000060 	adrp	x0, 100ee000 <__STACKS_START__+0x3f80>
    100e286c:	f947c000 	ldr	x0, [x0, #3968]
    100e2870:	f9400001 	ldr	x1, [x0]
    100e2874:	b4fffb61 	cbz	x1, 100e27e0 <psci_cpu_suspend+0x38>
    100e2878:	394103e0 	ldrb	w0, [sp, #64]
    100e287c:	d53ed042 	mrs	x2, tpidr_el3
    100e2880:	39008040 	strb	w0, [x2, #32]
    100e2884:	d63f0020 	blr	x1
    100e2888:	d53ed040 	mrs	x0, tpidr_el3
    100e288c:	3900801f 	strb	wzr, [x0, #32]
    100e2890:	17ffffd5 	b	100e27e4 <psci_cpu_suspend+0x3c>
    100e2894:	350000f3 	cbnz	w19, 100e28b0 <psci_cpu_suspend+0x108>
    100e2898:	2a1303e3 	mov	w3, w19
    100e289c:	910103e2 	add	x2, sp, #0x40
    100e28a0:	2a1503e1 	mov	w1, w21
    100e28a4:	910123e0 	add	x0, sp, #0x48
    100e28a8:	97fffcc0 	bl	100e1ba8 <psci_cpu_suspend_start>
    100e28ac:	17ffffce 	b	100e27e4 <psci_cpu_suspend+0x3c>
    100e28b0:	aa1703e2 	mov	x2, x23
    100e28b4:	aa1603e1 	mov	x1, x22
    100e28b8:	910123e0 	add	x0, sp, #0x48
    100e28bc:	97fffec6 	bl	100e23d4 <psci_validate_entry_point>
    100e28c0:	34fffec0 	cbz	w0, 100e2898 <psci_cpu_suspend+0xf0>
    100e28c4:	2a0003f4 	mov	w20, w0
    100e28c8:	17ffffc7 	b	100e27e4 <psci_cpu_suspend+0x3c>

00000000100e28cc <psci_system_suspend>:
    100e28cc:	a9b87bfd 	stp	x29, x30, [sp, #-128]!
    100e28d0:	910003fd 	mov	x29, sp
    100e28d4:	a90153f3 	stp	x19, x20, [sp, #16]
    100e28d8:	aa0003f3 	mov	x19, x0
    100e28dc:	aa0103f4 	mov	x20, x1
    100e28e0:	97fffd7b 	bl	100e1ecc <psci_is_last_on_cpu>
    100e28e4:	350000c0 	cbnz	w0, 100e28fc <psci_system_suspend+0x30>
    100e28e8:	12800053 	mov	w19, #0xfffffffd            	// #-3
    100e28ec:	2a1303e0 	mov	w0, w19
    100e28f0:	a94153f3 	ldp	x19, x20, [sp, #16]
    100e28f4:	a8c87bfd 	ldp	x29, x30, [sp], #128
    100e28f8:	d65f03c0 	ret
    100e28fc:	aa1303e1 	mov	x1, x19
    100e2900:	aa1403e2 	mov	x2, x20
    100e2904:	9100a3e0 	add	x0, sp, #0x28
    100e2908:	97fffeb3 	bl	100e23d4 <psci_validate_entry_point>
    100e290c:	2a0003f3 	mov	w19, w0
    100e2910:	35fffee0 	cbnz	w0, 100e28ec <psci_system_suspend+0x20>
    100e2914:	910083e0 	add	x0, sp, #0x20
    100e2918:	97fffd61 	bl	100e1e9c <psci_query_sys_suspend_pwrstate>
    100e291c:	910083e0 	add	x0, sp, #0x20
    100e2920:	97fffe43 	bl	100e222c <psci_find_target_suspend_lvl>
    100e2924:	34fffe20 	cbz	w0, 100e28e8 <psci_system_suspend+0x1c>
    100e2928:	910083e0 	add	x0, sp, #0x20
    100e292c:	52800021 	mov	w1, #0x1                   	// #1
    100e2930:	97fffe48 	bl	100e2250 <psci_validate_suspend_req>
    100e2934:	2a0003f3 	mov	w19, w0
    100e2938:	340000a0 	cbz	w0, 100e294c <psci_system_suspend+0x80>
    100e293c:	52801681 	mov	w1, #0xb4                  	// #180
    100e2940:	d0000020 	adrp	x0, 100e8000 <__TEXT_END__>
    100e2944:	911bc000 	add	x0, x0, #0x6f0
    100e2948:	94000ec7 	bl	100e6464 <__assert>
    100e294c:	394087e0 	ldrb	w0, [sp, #33]
    100e2950:	7100081f 	cmp	w0, #0x2
    100e2954:	54000060 	b.eq	100e2960 <psci_system_suspend+0x94>  // b.none
    100e2958:	528016c1 	mov	w1, #0xb6                  	// #182
    100e295c:	17fffff9 	b	100e2940 <psci_system_suspend+0x74>
    100e2960:	52800023 	mov	w3, #0x1                   	// #1
    100e2964:	910083e2 	add	x2, sp, #0x20
    100e2968:	2a0303e1 	mov	w1, w3
    100e296c:	9100a3e0 	add	x0, sp, #0x28
    100e2970:	97fffc8e 	bl	100e1ba8 <psci_cpu_suspend_start>
    100e2974:	17ffffde 	b	100e28ec <psci_system_suspend+0x20>

00000000100e2978 <psci_cpu_off>:
    100e2978:	a9bf7bfd 	stp	x29, x30, [sp, #-16]!
    100e297c:	52800020 	mov	w0, #0x1                   	// #1
    100e2980:	910003fd 	mov	x29, sp
    100e2984:	97fffb89 	bl	100e17a8 <psci_do_cpu_off>
    100e2988:	31000c1f 	cmn	w0, #0x3
    100e298c:	540000a0 	b.eq	100e29a0 <psci_cpu_off+0x28>  // b.none
    100e2990:	d0000020 	adrp	x0, 100e8000 <__TEXT_END__>
    100e2994:	911bc000 	add	x0, x0, #0x6f0
    100e2998:	52801ac1 	mov	w1, #0xd6                  	// #214
    100e299c:	94000eb2 	bl	100e6464 <__assert>
    100e29a0:	a8c17bfd 	ldp	x29, x30, [sp], #16
    100e29a4:	d65f03c0 	ret

00000000100e29a8 <psci_affinity_info>:
    100e29a8:	340000e1 	cbz	w1, 100e29c4 <psci_affinity_info+0x1c>
    100e29ac:	12800020 	mov	w0, #0xfffffffe            	// #-2
    100e29b0:	d65f03c0 	ret
    100e29b4:	12800020 	mov	w0, #0xfffffffe            	// #-2
    100e29b8:	f9400bf3 	ldr	x19, [sp, #16]
    100e29bc:	a8c27bfd 	ldp	x29, x30, [sp], #32
    100e29c0:	d65f03c0 	ret
    100e29c4:	a9be7bfd 	stp	x29, x30, [sp, #-32]!
    100e29c8:	910003fd 	mov	x29, sp
    100e29cc:	f9000bf3 	str	x19, [sp, #16]
    100e29d0:	97fff70e 	bl	100e0608 <plat_core_pos_by_mpidr>
    100e29d4:	2a0003f3 	mov	w19, w0
    100e29d8:	3100041f 	cmn	w0, #0x1
    100e29dc:	54fffec0 	b.eq	100e29b4 <psci_affinity_info+0xc>  // b.none
    100e29e0:	94000bdd 	bl	100e5954 <_cpu_data_by_index>
    100e29e4:	91006000 	add	x0, x0, #0x18
    100e29e8:	d2800081 	mov	x1, #0x4                   	// #4
    100e29ec:	94000d5c 	bl	100e5f5c <flush_dcache_range>
    100e29f0:	2a1303e0 	mov	w0, w19
    100e29f4:	94000bd8 	bl	100e5954 <_cpu_data_by_index>
    100e29f8:	b9401800 	ldr	w0, [x0, #24]
    100e29fc:	17ffffef 	b	100e29b8 <psci_affinity_info+0x10>

00000000100e2a00 <psci_migrate>:
    100e2a00:	a9bd7bfd 	stp	x29, x30, [sp, #-48]!
    100e2a04:	910003fd 	mov	x29, sp
    100e2a08:	f9000bf3 	str	x19, [sp, #16]
    100e2a0c:	aa0003f3 	mov	x19, x0
    100e2a10:	9100a3e0 	add	x0, sp, #0x28
    100e2a14:	97fffefc 	bl	100e2604 <psci_spd_migrate_info>
    100e2a18:	340000e0 	cbz	w0, 100e2a34 <psci_migrate+0x34>
    100e2a1c:	7100041f 	cmp	w0, #0x1
    100e2a20:	12800040 	mov	w0, #0xfffffffd            	// #-3
    100e2a24:	5a9f0000 	csinv	w0, w0, wzr, eq  // eq = none
    100e2a28:	f9400bf3 	ldr	x19, [sp, #16]
    100e2a2c:	a8c37bfd 	ldp	x29, x30, [sp], #48
    100e2a30:	d65f03c0 	ret
    100e2a34:	d53800a0 	mrs	x0, mpidr_el1
    100e2a38:	f94017e1 	ldr	x1, [sp, #40]
    100e2a3c:	eb00003f 	cmp	x1, x0
    100e2a40:	540002a1 	b.ne	100e2a94 <psci_migrate+0x94>  // b.any
    100e2a44:	aa1303e0 	mov	x0, x19
    100e2a48:	97fffe5b 	bl	100e23b4 <psci_validate_mpidr>
    100e2a4c:	35000280 	cbnz	w0, 100e2a9c <psci_migrate+0x9c>
    100e2a50:	90000060 	adrp	x0, 100ee000 <__STACKS_START__+0x3f80>
    100e2a54:	f947c400 	ldr	x0, [x0, #3976]
    100e2a58:	b4000060 	cbz	x0, 100e2a64 <psci_migrate+0x64>
    100e2a5c:	f9401402 	ldr	x2, [x0, #40]
    100e2a60:	b50000a2 	cbnz	x2, 100e2a74 <psci_migrate+0x74>
    100e2a64:	52802281 	mov	w1, #0x114                 	// #276
    100e2a68:	d0000020 	adrp	x0, 100e8000 <__TEXT_END__>
    100e2a6c:	911bc000 	add	x0, x0, #0x6f0
    100e2a70:	94000e7d 	bl	100e6464 <__assert>
    100e2a74:	d53800a0 	mrs	x0, mpidr_el1
    100e2a78:	aa1303e1 	mov	x1, x19
    100e2a7c:	d63f0040 	blr	x2
    100e2a80:	7100001f 	cmp	w0, #0x0
    100e2a84:	3a461804 	ccmn	w0, #0x6, #0x4, ne  // ne = any
    100e2a88:	54fffd00 	b.eq	100e2a28 <psci_migrate+0x28>  // b.none
    100e2a8c:	528022e1 	mov	w1, #0x117                 	// #279
    100e2a90:	17fffff6 	b	100e2a68 <psci_migrate+0x68>
    100e2a94:	128000c0 	mov	w0, #0xfffffff9            	// #-7
    100e2a98:	17ffffe4 	b	100e2a28 <psci_migrate+0x28>
    100e2a9c:	12800020 	mov	w0, #0xfffffffe            	// #-2
    100e2aa0:	17ffffe2 	b	100e2a28 <psci_migrate+0x28>

00000000100e2aa4 <psci_migrate_info_type>:
    100e2aa4:	a9be7bfd 	stp	x29, x30, [sp, #-32]!
    100e2aa8:	910003fd 	mov	x29, sp
    100e2aac:	910063e0 	add	x0, sp, #0x18
    100e2ab0:	97fffed5 	bl	100e2604 <psci_spd_migrate_info>
    100e2ab4:	a8c27bfd 	ldp	x29, x30, [sp], #32
    100e2ab8:	d65f03c0 	ret

00000000100e2abc <psci_migrate_info_up_cpu>:
    100e2abc:	a9be7bfd 	stp	x29, x30, [sp, #-32]!
    100e2ac0:	910003fd 	mov	x29, sp
    100e2ac4:	910063e0 	add	x0, sp, #0x18
    100e2ac8:	97fffecf 	bl	100e2604 <psci_spd_migrate_info>
    100e2acc:	f9400fe1 	ldr	x1, [sp, #24]
    100e2ad0:	7100041f 	cmp	w0, #0x1
    100e2ad4:	a8c27bfd 	ldp	x29, x30, [sp], #32
    100e2ad8:	92800020 	mov	x0, #0xfffffffffffffffe    	// #-2
    100e2adc:	9a809020 	csel	x0, x1, x0, ls  // ls = plast
    100e2ae0:	d65f03c0 	ret

00000000100e2ae4 <psci_node_hw_state>:
    100e2ae4:	a9be7bfd 	stp	x29, x30, [sp, #-32]!
    100e2ae8:	910003fd 	mov	x29, sp
    100e2aec:	a90153f3 	stp	x19, x20, [sp, #16]
    100e2af0:	aa0003f4 	mov	x20, x0
    100e2af4:	2a0103f3 	mov	w19, w1
    100e2af8:	97fffe2f 	bl	100e23b4 <psci_validate_mpidr>
    100e2afc:	350002a0 	cbnz	w0, 100e2b50 <psci_node_hw_state+0x6c>
    100e2b00:	7100067f 	cmp	w19, #0x1
    100e2b04:	54000268 	b.hi	100e2b50 <psci_node_hw_state+0x6c>  // b.pmore
    100e2b08:	90000060 	adrp	x0, 100ee000 <__STACKS_START__+0x3f80>
    100e2b0c:	f947c000 	ldr	x0, [x0, #3968]
    100e2b10:	f9404002 	ldr	x2, [x0, #128]
    100e2b14:	b50000a2 	cbnz	x2, 100e2b28 <psci_node_hw_state+0x44>
    100e2b18:	528028a1 	mov	w1, #0x145                 	// #325
    100e2b1c:	d0000020 	adrp	x0, 100e8000 <__TEXT_END__>
    100e2b20:	911bc000 	add	x0, x0, #0x6f0
    100e2b24:	94000e50 	bl	100e6464 <__assert>
    100e2b28:	2a1303e1 	mov	w1, w19
    100e2b2c:	aa1403e0 	mov	x0, x20
    100e2b30:	d63f0040 	blr	x2
    100e2b34:	11000401 	add	w1, w0, #0x1
    100e2b38:	71000c3f 	cmp	w1, #0x3
    100e2b3c:	540000c9 	b.ls	100e2b54 <psci_node_hw_state+0x70>  // b.plast
    100e2b40:	3100081f 	cmn	w0, #0x2
    100e2b44:	54000060 	b.eq	100e2b50 <psci_node_hw_state+0x6c>  // b.none
    100e2b48:	528028e1 	mov	w1, #0x147                 	// #327
    100e2b4c:	17fffff4 	b	100e2b1c <psci_node_hw_state+0x38>
    100e2b50:	12800020 	mov	w0, #0xfffffffe            	// #-2
    100e2b54:	a94153f3 	ldp	x19, x20, [sp, #16]
    100e2b58:	a8c27bfd 	ldp	x29, x30, [sp], #32
    100e2b5c:	d65f03c0 	ret

00000000100e2b60 <psci_features>:
    100e2b60:	90000061 	adrp	x1, 100ee000 <__STACKS_START__+0x3f80>
    100e2b64:	b94f9021 	ldr	w1, [x1, #3984]
    100e2b68:	52b00002 	mov	w2, #0x80000000            	// #-2147483648
    100e2b6c:	6b02001f 	cmp	w0, w2
    100e2b70:	54000240 	b.eq	100e2bb8 <psci_features+0x58>  // b.none
    100e2b74:	36f00080 	tbz	w0, #30, 100e2b84 <psci_features+0x24>
    100e2b78:	528c1742 	mov	w2, #0x60ba                	// #24762
    100e2b7c:	72a002e2 	movk	w2, #0x17, lsl #16
    100e2b80:	0a020021 	and	w1, w1, w2
    100e2b84:	d3587402 	ubfx	x2, x0, #24, #6
    100e2b88:	7100105f 	cmp	w2, #0x4
    100e2b8c:	540001a1 	b.ne	100e2bc0 <psci_features+0x60>  // b.any
    100e2b90:	d3505c04 	ubfx	x4, x0, #16, #8
    100e2b94:	531f7c02 	lsr	w2, w0, #31
    100e2b98:	36f80140 	tbz	w0, #31, 100e2bc0 <psci_features+0x60>
    100e2b9c:	121b2803 	and	w3, w0, #0xffe0
    100e2ba0:	2a040063 	orr	w3, w3, w4
    100e2ba4:	350000e3 	cbnz	w3, 100e2bc0 <psci_features+0x60>
    100e2ba8:	1ac02040 	lsl	w0, w2, w0
    100e2bac:	6a01001f 	tst	w0, w1
    100e2bb0:	5a9f13e0 	csetm	w0, eq  // eq = none
    100e2bb4:	d65f03c0 	ret
    100e2bb8:	52800000 	mov	w0, #0x0                   	// #0
    100e2bbc:	17fffffe 	b	100e2bb4 <psci_features+0x54>
    100e2bc0:	12800000 	mov	w0, #0xffffffff            	// #-1
    100e2bc4:	17fffffc 	b	100e2bb4 <psci_features+0x54>

00000000100e2bc8 <psci_smc_handler>:
    100e2bc8:	36000a67 	tbz	w7, #0, 100e2d14 <psci_smc_handler+0x14c>
    100e2bcc:	2a0003e4 	mov	w4, w0
    100e2bd0:	90000065 	adrp	x5, 100ee000 <__STACKS_START__+0x3f80>
    100e2bd4:	b94f90a5 	ldr	w5, [x5, #3984]
    100e2bd8:	aa0103e0 	mov	x0, x1
    100e2bdc:	aa0203e1 	mov	x1, x2
    100e2be0:	aa0303e2 	mov	x2, x3
    100e2be4:	52800023 	mov	w3, #0x1                   	// #1
    100e2be8:	1ac42063 	lsl	w3, w3, w4
    100e2bec:	6a05007f 	tst	w3, w5
    100e2bf0:	54000920 	b.eq	100e2d14 <psci_smc_handler+0x14c>  // b.none
    100e2bf4:	a9bf7bfd 	stp	x29, x30, [sp, #-16]!
    100e2bf8:	910003fd 	mov	x29, sp
    100e2bfc:	37f00784 	tbnz	w4, #30, 100e2cec <psci_smc_handler+0x124>
    100e2c00:	52af8003 	mov	w3, #0x7c000000            	// #2080374784
    100e2c04:	0b030083 	add	w3, w4, w3
    100e2c08:	7100507f 	cmp	w3, #0x14
    100e2c0c:	54000628 	b.hi	100e2cd0 <psci_smc_handler+0x108>  // b.pmore
    100e2c10:	d0000025 	adrp	x5, 100e8000 <__TEXT_END__>
    100e2c14:	911d60a5 	add	x5, x5, #0x758
    100e2c18:	386348a3 	ldrb	w3, [x5, w3, uxtw]
    100e2c1c:	10000065 	adr	x5, 100e2c28 <psci_smc_handler+0x60>
    100e2c20:	8b2388a3 	add	x3, x5, w3, sxtb #2
    100e2c24:	d61f0060 	br	x3
    100e2c28:	97ffff54 	bl	100e2978 <psci_cpu_off>
    100e2c2c:	93407c00 	sxtw	x0, w0
    100e2c30:	1400002d 	b	100e2ce4 <psci_smc_handler+0x11c>
    100e2c34:	2a0203e2 	mov	w2, w2
    100e2c38:	2a0103e1 	mov	w1, w1
    100e2c3c:	97fffedb 	bl	100e27a8 <psci_cpu_suspend>
    100e2c40:	17fffffb 	b	100e2c2c <psci_smc_handler+0x64>
    100e2c44:	2a0203e2 	mov	w2, w2
    100e2c48:	2a0103e1 	mov	w1, w1
    100e2c4c:	2a0003e0 	mov	w0, w0
    100e2c50:	97fffebf 	bl	100e274c <psci_cpu_on>
    100e2c54:	17fffff6 	b	100e2c2c <psci_smc_handler+0x64>
    100e2c58:	2a0003e0 	mov	w0, w0
    100e2c5c:	97ffff53 	bl	100e29a8 <psci_affinity_info>
    100e2c60:	17fffff3 	b	100e2c2c <psci_smc_handler+0x64>
    100e2c64:	2a0003e0 	mov	w0, w0
    100e2c68:	97ffff66 	bl	100e2a00 <psci_migrate>
    100e2c6c:	17fffff0 	b	100e2c2c <psci_smc_handler+0x64>
    100e2c70:	97ffff8d 	bl	100e2aa4 <psci_migrate_info_type>
    100e2c74:	17ffffee 	b	100e2c2c <psci_smc_handler+0x64>
    100e2c78:	a8c17bfd 	ldp	x29, x30, [sp], #16
    100e2c7c:	17ffff90 	b	100e2abc <psci_migrate_info_up_cpu>
    100e2c80:	2a0003e0 	mov	w0, w0
    100e2c84:	97ffff98 	bl	100e2ae4 <psci_node_hw_state>
    100e2c88:	17ffffe9 	b	100e2c2c <psci_smc_handler+0x64>
    100e2c8c:	2a0103e1 	mov	w1, w1
    100e2c90:	2a0003e0 	mov	w0, w0
    100e2c94:	97ffff0e 	bl	100e28cc <psci_system_suspend>
    100e2c98:	17ffffe5 	b	100e2c2c <psci_smc_handler+0x64>
    100e2c9c:	9400010b 	bl	100e30c8 <psci_system_off>
    100e2ca0:	94000121 	bl	100e3124 <psci_system_reset>
    100e2ca4:	97ffffaf 	bl	100e2b60 <psci_features>
    100e2ca8:	17ffffe1 	b	100e2c2c <psci_smc_handler+0x64>
    100e2cac:	a8c17bfd 	ldp	x29, x30, [sp], #16
    100e2cb0:	14000163 	b	100e323c <psci_mem_protect>
    100e2cb4:	2a0103e1 	mov	w1, w1
    100e2cb8:	2a0003e0 	mov	w0, w0
    100e2cbc:	a8c17bfd 	ldp	x29, x30, [sp], #16
    100e2cc0:	1400017f 	b	100e32bc <psci_mem_chk_range>
    100e2cc4:	2a0103e1 	mov	w1, w1
    100e2cc8:	a8c17bfd 	ldp	x29, x30, [sp], #16
    100e2ccc:	1400012d 	b	100e3180 <psci_system_reset2>
    100e2cd0:	2a0403e1 	mov	w1, w4
    100e2cd4:	d0000020 	adrp	x0, 100e8000 <__TEXT_END__>
    100e2cd8:	911ce000 	add	x0, x0, #0x738
    100e2cdc:	940004ae 	bl	100e3f94 <tf_log>
    100e2ce0:	92800000 	mov	x0, #0xffffffffffffffff    	// #-1
    100e2ce4:	a8c17bfd 	ldp	x29, x30, [sp], #16
    100e2ce8:	d65f03c0 	ret
    100e2cec:	12b88003 	mov	w3, #0x3bffffff            	// #1006632959
    100e2cf0:	0b030083 	add	w3, w4, w3
    100e2cf4:	71004c7f 	cmp	w3, #0x13
    100e2cf8:	54fffec8 	b.hi	100e2cd0 <psci_smc_handler+0x108>  // b.pmore
    100e2cfc:	d0000025 	adrp	x5, 100e8000 <__TEXT_END__>
    100e2d00:	911dc0a5 	add	x5, x5, #0x770
    100e2d04:	386348a3 	ldrb	w3, [x5, w3, uxtw]
    100e2d08:	10000065 	adr	x5, 100e2d14 <psci_smc_handler+0x14c>
    100e2d0c:	8b2388a3 	add	x3, x5, w3, sxtb #2
    100e2d10:	d61f0060 	br	x3
    100e2d14:	92800000 	mov	x0, #0xffffffffffffffff    	// #-1
    100e2d18:	d65f03c0 	ret
    100e2d1c:	320083e0 	mov	w0, #0x10001               	// #65537
    100e2d20:	17fffff1 	b	100e2ce4 <psci_smc_handler+0x11c>

00000000100e2d24 <psci_arch_setup>:
    100e2d24:	a9bf7bfd 	stp	x29, x30, [sp, #-16]!
    100e2d28:	910003fd 	mov	x29, sp
    100e2d2c:	94000623 	bl	100e45b8 <plat_get_syscnt_freq2>
    100e2d30:	2a0003e0 	mov	w0, w0
    100e2d34:	d51be000 	msr	cntfrq_el0, x0
    100e2d38:	94000b27 	bl	100e59d4 <init_cpu_ops>
    100e2d3c:	a8c17bfd 	ldp	x29, x30, [sp], #16
    100e2d40:	14000b57 	b	100e5a9c <print_errata_status>

00000000100e2d44 <psci_setup>:
    100e2d44:	a9b77bfd 	stp	x29, x30, [sp, #-144]!
    100e2d48:	910003fd 	mov	x29, sp
    100e2d4c:	a90153f3 	stp	x19, x20, [sp, #16]
    100e2d50:	a9025bf5 	stp	x21, x22, [sp, #32]
    100e2d54:	a90363f7 	stp	x23, x24, [sp, #48]
    100e2d58:	a9046bf9 	stp	x25, x26, [sp, #64]
    100e2d5c:	a90573fb 	stp	x27, x28, [sp, #80]
    100e2d60:	b4000160 	cbz	x0, 100e2d8c <psci_setup+0x48>
    100e2d64:	aa0003f4 	mov	x20, x0
    100e2d68:	79400000 	ldrh	w0, [x0]
    100e2d6c:	7104181f 	cmp	w0, #0x106
    100e2d70:	540000e1 	b.ne	100e2d8c <psci_setup+0x48>  // b.any
    100e2d74:	f9400280 	ldr	x0, [x20]
    100e2d78:	9270bc00 	and	x0, x0, #0xffffffffffff0000
    100e2d7c:	f144001f 	cmp	x0, #0x100, lsl #12
    100e2d80:	54000061 	b.ne	100e2d8c <psci_setup+0x48>  // b.any
    100e2d84:	f9400680 	ldr	x0, [x20, #8]
    100e2d88:	b50000a0 	cbnz	x0, 100e2d9c <psci_setup+0x58>
    100e2d8c:	52801821 	mov	w1, #0xc1                  	// #193
    100e2d90:	d0000020 	adrp	x0, 100e8000 <__TEXT_END__>
    100e2d94:	911e5400 	add	x0, x0, #0x795
    100e2d98:	94000db3 	bl	100e6464 <__assert>
    100e2d9c:	97ffffe2 	bl	100e2d24 <psci_arch_setup>
    100e2da0:	9000007a 	adrp	x26, 100ee000 <__STACKS_START__+0x3f80>
    100e2da4:	913d035a 	add	x26, x26, #0xf40
    100e2da8:	97fff615 	bl	100e05fc <plat_get_power_domain_tree_desc>
    100e2dac:	52800025 	mov	w5, #0x1                   	// #1
    100e2db0:	90000075 	adrp	x21, 100ee000 <__STACKS_START__+0x3f80>
    100e2db4:	910642b5 	add	x21, x21, #0x190
    100e2db8:	aa0003e4 	mov	x4, x0
    100e2dbc:	2a0503e7 	mov	w7, w5
    100e2dc0:	52800046 	mov	w6, #0x2                   	// #2
    100e2dc4:	52800003 	mov	w3, #0x0                   	// #0
    100e2dc8:	52800001 	mov	w1, #0x0                   	// #0
    100e2dcc:	93407c76 	sxtw	x22, w3
    100e2dd0:	52800018 	mov	w24, #0x0                   	// #0
    100e2dd4:	5280001c 	mov	w28, #0x0                   	// #0
    100e2dd8:	14000012 	b	100e2e20 <psci_setup+0xdc>
    100e2ddc:	710006df 	cmp	w22, #0x1
    100e2de0:	5400006d 	b.le	100e2dec <psci_setup+0xa8>
    100e2de4:	52801161 	mov	w1, #0x8b                  	// #139
    100e2de8:	17ffffea 	b	100e2d90 <psci_setup+0x4c>
    100e2dec:	38766899 	ldrb	w25, [x4, x22]
    100e2df0:	2a1803f7 	mov	w23, w24
    100e2df4:	5100045b 	sub	w27, w2, #0x1
    100e2df8:	2b180321 	adds	w1, w25, w24
    100e2dfc:	1a9f37e0 	cset	w0, cs  // cs = hs, nlast
    100e2e00:	6b0102ff 	cmp	w23, w1
    100e2e04:	54000543 	b.cc	100e2eac <psci_setup+0x168>  // b.lo, b.ul, b.last
    100e2e08:	7100001f 	cmp	w0, #0x0
    100e2e0c:	0b19039c 	add	w28, w28, w25
    100e2e10:	1a9f0321 	csel	w1, w25, wzr, eq  // eq = none
    100e2e14:	910006d6 	add	x22, x22, #0x1
    100e2e18:	0b180021 	add	w1, w1, w24
    100e2e1c:	2a0103f8 	mov	w24, w1
    100e2e20:	4b0302c0 	sub	w0, w22, w3
    100e2e24:	2a1603e2 	mov	w2, w22
    100e2e28:	6b05001f 	cmp	w0, w5
    100e2e2c:	54fffd83 	b.cc	100e2ddc <psci_setup+0x98>  // b.lo, b.ul, b.last
    100e2e30:	710004df 	cmp	w6, #0x1
    100e2e34:	52800007 	mov	w7, #0x0                   	// #0
    100e2e38:	54000901 	b.ne	100e2f58 <psci_setup+0x214>  // b.any
    100e2e3c:	7100103f 	cmp	w1, #0x4
    100e2e40:	54000941 	b.ne	100e2f68 <psci_setup+0x224>  // b.any
    100e2e44:	d0000095 	adrp	x21, 100f4000 <psci_locks>
    100e2e48:	910022b5 	add	x21, x21, #0x8
    100e2e4c:	52800016 	mov	w22, #0x0                   	// #0
    100e2e50:	52800013 	mov	w19, #0x0                   	// #0
    100e2e54:	7100127f 	cmp	w19, #0x4
    100e2e58:	540008c1 	b.ne	100e2f70 <psci_setup+0x22c>  // b.any
    100e2e5c:	d53800b3 	mrs	x19, mpidr_el1
    100e2e60:	94000992 	bl	100e54a8 <plat_my_core_pos>
    100e2e64:	d37c7c00 	ubfiz	x0, x0, #4, #32
    100e2e68:	90000062 	adrp	x2, 100ee000 <__STACKS_START__+0x3f80>
    100e2e6c:	913d0042 	add	x2, x2, #0xf40
    100e2e70:	92409e61 	and	x1, x19, #0xffffffffff
    100e2e74:	90000073 	adrp	x19, 100ee000 <__STACKS_START__+0x3f80>
    100e2e78:	913e0275 	add	x21, x19, #0xf80
    100e2e7c:	9260dc21 	and	x1, x1, #0xffffffff00ffffff
    100e2e80:	f8206841 	str	x1, [x2, x0]
    100e2e84:	97fffc2f 	bl	100e1f40 <psci_init_req_local_pwr_states>
    100e2e88:	52800020 	mov	w0, #0x1                   	// #1
    100e2e8c:	97fffc67 	bl	100e2028 <psci_set_pwr_domains_to_run>
    100e2e90:	f9400680 	ldr	x0, [x20, #8]
    100e2e94:	aa1503e1 	mov	x1, x21
    100e2e98:	97fff5d2 	bl	100e05e0 <plat_setup_psci_ops>
    100e2e9c:	f947c260 	ldr	x0, [x19, #3968]
    100e2ea0:	b50008a0 	cbnz	x0, 100e2fb4 <psci_setup+0x270>
    100e2ea4:	52801ba1 	mov	w1, #0xdd                  	// #221
    100e2ea8:	17ffffba 	b	100e2d90 <psci_setup+0x4c>
    100e2eac:	12001ef3 	and	w19, w23, #0xff
    100e2eb0:	340001c7 	cbz	w7, 100e2ee8 <psci_setup+0x1a4>
    100e2eb4:	d0000081 	adrp	x1, 100f4000 <psci_locks>
    100e2eb8:	91002021 	add	x1, x1, #0x8
    100e2ebc:	8b33d033 	add	x19, x1, w19, sxtw #4
    100e2ec0:	52800020 	mov	w0, #0x1                   	// #1
    100e2ec4:	39003660 	strb	w0, [x19, #13]
    100e2ec8:	d37c1ee0 	ubfiz	x0, x23, #4, #8
    100e2ecc:	8b010001 	add	x1, x0, x1
    100e2ed0:	52800040 	mov	w0, #0x2                   	// #2
    100e2ed4:	39003837 	strb	w23, [x1, #14]
    100e2ed8:	b9000a7b 	str	w27, [x19, #8]
    100e2edc:	39003260 	strb	w0, [x19, #12]
    100e2ee0:	110006f7 	add	w23, w23, #0x1
    100e2ee4:	17ffffc5 	b	100e2df8 <psci_setup+0xb4>
    100e2ee8:	8b33d341 	add	x1, x26, w19, sxtw #4
    100e2eec:	937c7e60 	sbfiz	x0, x19, #4, #32
    100e2ef0:	f90037e4 	str	x4, [sp, #104]
    100e2ef4:	290e1fe6 	stp	w6, w7, [sp, #112]
    100e2ef8:	b900083b 	str	w27, [x1, #8]
    100e2efc:	92800001 	mov	x1, #0xffffffffffffffff    	// #-1
    100e2f00:	f8206b41 	str	x1, [x26, x0]
    100e2f04:	2a1303e0 	mov	w0, w19
    100e2f08:	290f0fe5 	stp	w5, w3, [sp, #120]
    100e2f0c:	94000a92 	bl	100e5954 <_cpu_data_by_index>
    100e2f10:	aa0003e1 	mov	x1, x0
    100e2f14:	91006000 	add	x0, x0, #0x18
    100e2f18:	52800022 	mov	w2, #0x1                   	// #1
    100e2f1c:	b9001822 	str	w2, [x1, #24]
    100e2f20:	52800041 	mov	w1, #0x2                   	// #2
    100e2f24:	b9000401 	str	w1, [x0, #4]
    100e2f28:	39002001 	strb	w1, [x0, #8]
    100e2f2c:	d2800181 	mov	x1, #0xc                   	// #12
    100e2f30:	94000c0b 	bl	100e5f5c <flush_dcache_range>
    100e2f34:	52804a01 	mov	w1, #0x250                 	// #592
    100e2f38:	2a1303e0 	mov	w0, w19
    100e2f3c:	52800022 	mov	w2, #0x1                   	// #1
    100e2f40:	9ba15661 	umaddl	x1, w19, w1, x21
    100e2f44:	97fff7eb 	bl	100e0ef0 <cm_set_context_by_index>
    100e2f48:	294e1fe6 	ldp	w6, w7, [sp, #112]
    100e2f4c:	294f0fe5 	ldp	w5, w3, [sp, #120]
    100e2f50:	f94037e4 	ldr	x4, [sp, #104]
    100e2f54:	17ffffe3 	b	100e2ee0 <psci_setup+0x19c>
    100e2f58:	2a1603e3 	mov	w3, w22
    100e2f5c:	2a1c03e5 	mov	w5, w28
    100e2f60:	52800026 	mov	w6, #0x1                   	// #1
    100e2f64:	17ffff9a 	b	100e2dcc <psci_setup+0x88>
    100e2f68:	52801461 	mov	w1, #0xa3                  	// #163
    100e2f6c:	17ffff89 	b	100e2d90 <psci_setup+0x4c>
    100e2f70:	2a1303e0 	mov	w0, w19
    100e2f74:	52800021 	mov	w1, #0x1                   	// #1
    100e2f78:	910223e2 	add	x2, sp, #0x88
    100e2f7c:	97fffc19 	bl	100e1fe0 <psci_get_parent_pwr_domain_nodes>
    100e2f80:	b9408be1 	ldr	w1, [sp, #136]
    100e2f84:	6b16003f 	cmp	w1, w22
    100e2f88:	2a0103e0 	mov	w0, w1
    100e2f8c:	54000060 	b.eq	100e2f98 <psci_setup+0x254>  // b.none
    100e2f90:	d37cec02 	lsl	x2, x0, #4
    100e2f94:	b8226ab3 	str	w19, [x21, x2]
    100e2f98:	8b0012a0 	add	x0, x21, x0, lsl #4
    100e2f9c:	11000673 	add	w19, w19, #0x1
    100e2fa0:	2a0103f6 	mov	w22, w1
    100e2fa4:	b9400402 	ldr	w2, [x0, #4]
    100e2fa8:	11000442 	add	w2, w2, #0x1
    100e2fac:	b9000402 	str	w2, [x0, #4]
    100e2fb0:	17ffffa9 	b	100e2e54 <psci_setup+0x110>
    100e2fb4:	aa1503e0 	mov	x0, x21
    100e2fb8:	d2800101 	mov	x1, #0x8                   	// #8
    100e2fbc:	94000be8 	bl	100e5f5c <flush_dcache_range>
    100e2fc0:	f947c261 	ldr	x1, [x19, #3968]
    100e2fc4:	52808223 	mov	w3, #0x411                 	// #1041
    100e2fc8:	90000060 	adrp	x0, 100ee000 <__STACKS_START__+0x3f80>
    100e2fcc:	f9400822 	ldr	x2, [x1, #16]
    100e2fd0:	f100005f 	cmp	x2, #0x0
    100e2fd4:	528082a2 	mov	w2, #0x415                 	// #1045
    100e2fd8:	1a831042 	csel	w2, w2, w3, ne  // ne = any
    100e2fdc:	b90f9002 	str	w2, [x0, #3984]
    100e2fe0:	f9400423 	ldr	x3, [x1, #8]
    100e2fe4:	b40000a3 	cbz	x3, 100e2ff8 <psci_setup+0x2b4>
    100e2fe8:	f9401423 	ldr	x3, [x1, #40]
    100e2fec:	b4000063 	cbz	x3, 100e2ff8 <psci_setup+0x2b4>
    100e2ff0:	321d0042 	orr	w2, w2, #0x8
    100e2ff4:	b90f9002 	str	w2, [x0, #3984]
    100e2ff8:	f9401022 	ldr	x2, [x1, #32]
    100e2ffc:	b4000162 	cbz	x2, 100e3028 <psci_setup+0x2e4>
    100e3000:	f9401c22 	ldr	x2, [x1, #56]
    100e3004:	b4000122 	cbz	x2, 100e3028 <psci_setup+0x2e4>
    100e3008:	f9403424 	ldr	x4, [x1, #104]
    100e300c:	52880045 	mov	w5, #0x4002                	// #16386
    100e3010:	b94f9002 	ldr	w2, [x0, #3984]
    100e3014:	f100009f 	cmp	x4, #0x0
    100e3018:	321f0043 	orr	w3, w2, #0x2
    100e301c:	2a050042 	orr	w2, w2, w5
    100e3020:	1a831042 	csel	w2, w2, w3, ne  // ne = any
    100e3024:	b90f9002 	str	w2, [x0, #3984]
    100e3028:	f9402422 	ldr	x2, [x1, #72]
    100e302c:	b4000082 	cbz	x2, 100e303c <psci_setup+0x2f8>
    100e3030:	b94f9002 	ldr	w2, [x0, #3984]
    100e3034:	32180042 	orr	w2, w2, #0x100
    100e3038:	b90f9002 	str	w2, [x0, #3984]
    100e303c:	f9402822 	ldr	x2, [x1, #80]
    100e3040:	b4000082 	cbz	x2, 100e3050 <psci_setup+0x30c>
    100e3044:	b94f9002 	ldr	w2, [x0, #3984]
    100e3048:	32170042 	orr	w2, w2, #0x200
    100e304c:	b90f9002 	str	w2, [x0, #3984]
    100e3050:	f9404022 	ldr	x2, [x1, #128]
    100e3054:	b4000082 	cbz	x2, 100e3064 <psci_setup+0x320>
    100e3058:	b94f9002 	ldr	w2, [x0, #3984]
    100e305c:	32130042 	orr	w2, w2, #0x2000
    100e3060:	b90f9002 	str	w2, [x0, #3984]
    100e3064:	f9404822 	ldr	x2, [x1, #144]
    100e3068:	b40000c2 	cbz	x2, 100e3080 <psci_setup+0x33c>
    100e306c:	f9404c22 	ldr	x2, [x1, #152]
    100e3070:	b4000082 	cbz	x2, 100e3080 <psci_setup+0x33c>
    100e3074:	b94f9002 	ldr	w2, [x0, #3984]
    100e3078:	320d0042 	orr	w2, w2, #0x80000
    100e307c:	b90f9002 	str	w2, [x0, #3984]
    100e3080:	f9404422 	ldr	x2, [x1, #136]
    100e3084:	b4000082 	cbz	x2, 100e3094 <psci_setup+0x350>
    100e3088:	b94f9002 	ldr	w2, [x0, #3984]
    100e308c:	320c0042 	orr	w2, w2, #0x100000
    100e3090:	b90f9002 	str	w2, [x0, #3984]
    100e3094:	f9405021 	ldr	x1, [x1, #160]
    100e3098:	b4000081 	cbz	x1, 100e30a8 <psci_setup+0x364>
    100e309c:	b94f9001 	ldr	w1, [x0, #3984]
    100e30a0:	320e0021 	orr	w1, w1, #0x40000
    100e30a4:	b90f9001 	str	w1, [x0, #3984]
    100e30a8:	52800000 	mov	w0, #0x0                   	// #0
    100e30ac:	a94153f3 	ldp	x19, x20, [sp, #16]
    100e30b0:	a9425bf5 	ldp	x21, x22, [sp, #32]
    100e30b4:	a94363f7 	ldp	x23, x24, [sp, #48]
    100e30b8:	a9446bf9 	ldp	x25, x26, [sp, #64]
    100e30bc:	a94573fb 	ldp	x27, x28, [sp, #80]
    100e30c0:	a8c97bfd 	ldp	x29, x30, [sp], #144
    100e30c4:	d65f03c0 	ret

00000000100e30c8 <psci_system_off>:
    100e30c8:	a9be7bfd 	stp	x29, x30, [sp, #-32]!
    100e30cc:	910003fd 	mov	x29, sp
    100e30d0:	f9000bf3 	str	x19, [sp, #16]
    100e30d4:	97fffd5f 	bl	100e2650 <psci_print_power_domain_map>
    100e30d8:	f0000040 	adrp	x0, 100ee000 <__STACKS_START__+0x3f80>
    100e30dc:	f947c001 	ldr	x1, [x0, #3968]
    100e30e0:	f9402421 	ldr	x1, [x1, #72]
    100e30e4:	b50000a1 	cbnz	x1, 100e30f8 <psci_system_off+0x30>
    100e30e8:	b0000020 	adrp	x0, 100e8000 <__TEXT_END__>
    100e30ec:	911eac00 	add	x0, x0, #0x7ab
    100e30f0:	528002a1 	mov	w1, #0x15                  	// #21
    100e30f4:	94000cdc 	bl	100e6464 <__assert>
    100e30f8:	aa0003f3 	mov	x19, x0
    100e30fc:	f0000040 	adrp	x0, 100ee000 <__STACKS_START__+0x3f80>
    100e3100:	f947c400 	ldr	x0, [x0, #3976]
    100e3104:	b4000080 	cbz	x0, 100e3114 <psci_system_off+0x4c>
    100e3108:	f9401c00 	ldr	x0, [x0, #56]
    100e310c:	b4000040 	cbz	x0, 100e3114 <psci_system_off+0x4c>
    100e3110:	d63f0000 	blr	x0
    100e3114:	94000437 	bl	100e41f0 <console_flush>
    100e3118:	f947c260 	ldr	x0, [x19, #3968]
    100e311c:	f9402400 	ldr	x0, [x0, #72]
    100e3120:	d63f0000 	blr	x0

00000000100e3124 <psci_system_reset>:
    100e3124:	a9be7bfd 	stp	x29, x30, [sp, #-32]!
    100e3128:	910003fd 	mov	x29, sp
    100e312c:	f9000bf3 	str	x19, [sp, #16]
    100e3130:	97fffd48 	bl	100e2650 <psci_print_power_domain_map>
    100e3134:	f0000040 	adrp	x0, 100ee000 <__STACKS_START__+0x3f80>
    100e3138:	f947c001 	ldr	x1, [x0, #3968]
    100e313c:	f9402821 	ldr	x1, [x1, #80]
    100e3140:	b50000a1 	cbnz	x1, 100e3154 <psci_system_reset+0x30>
    100e3144:	b0000020 	adrp	x0, 100e8000 <__TEXT_END__>
    100e3148:	911eac00 	add	x0, x0, #0x7ab
    100e314c:	52800501 	mov	w1, #0x28                  	// #40
    100e3150:	94000cc5 	bl	100e6464 <__assert>
    100e3154:	aa0003f3 	mov	x19, x0
    100e3158:	f0000040 	adrp	x0, 100ee000 <__STACKS_START__+0x3f80>
    100e315c:	f947c400 	ldr	x0, [x0, #3976]
    100e3160:	b4000080 	cbz	x0, 100e3170 <psci_system_reset+0x4c>
    100e3164:	f9402000 	ldr	x0, [x0, #64]
    100e3168:	b4000040 	cbz	x0, 100e3170 <psci_system_reset+0x4c>
    100e316c:	d63f0000 	blr	x0
    100e3170:	94000420 	bl	100e41f0 <console_flush>
    100e3174:	f947c260 	ldr	x0, [x19, #3968]
    100e3178:	f9402800 	ldr	x0, [x0, #80]
    100e317c:	d63f0000 	blr	x0

00000000100e3180 <psci_system_reset2>:
    100e3180:	a9bd7bfd 	stp	x29, x30, [sp, #-48]!
    100e3184:	910003fd 	mov	x29, sp
    100e3188:	a90153f3 	stp	x19, x20, [sp, #16]
    100e318c:	2a0003f3 	mov	w19, w0
    100e3190:	a9025bf5 	stp	x21, x22, [sp, #32]
    100e3194:	aa0103f5 	mov	x21, x1
    100e3198:	97fffd2e 	bl	100e2650 <psci_print_power_domain_map>
    100e319c:	f0000042 	adrp	x2, 100ee000 <__STACKS_START__+0x3f80>
    100e31a0:	f947c040 	ldr	x0, [x2, #3968]
    100e31a4:	f9405001 	ldr	x1, [x0, #160]
    100e31a8:	b50000a1 	cbnz	x1, 100e31bc <psci_system_reset2+0x3c>
    100e31ac:	b0000020 	adrp	x0, 100e8000 <__TEXT_END__>
    100e31b0:	911eac00 	add	x0, x0, #0x7ab
    100e31b4:	528007a1 	mov	w1, #0x3d                  	// #61
    100e31b8:	94000cab 	bl	100e6464 <__assert>
    100e31bc:	aa0203f4 	mov	x20, x2
    100e31c0:	531f7e76 	lsr	w22, w19, #31
    100e31c4:	36f80213 	tbz	w19, #31, 100e3204 <psci_system_reset2+0x84>
    100e31c8:	f0000040 	adrp	x0, 100ee000 <__STACKS_START__+0x3f80>
    100e31cc:	f947c400 	ldr	x0, [x0, #3976]
    100e31d0:	b50002a0 	cbnz	x0, 100e3224 <psci_system_reset2+0xa4>
    100e31d4:	94000407 	bl	100e41f0 <console_flush>
    100e31d8:	f947c280 	ldr	x0, [x20, #3968]
    100e31dc:	aa1503e2 	mov	x2, x21
    100e31e0:	2a1303e1 	mov	w1, w19
    100e31e4:	f9405003 	ldr	x3, [x0, #160]
    100e31e8:	2a1603e0 	mov	w0, w22
    100e31ec:	d63f0060 	blr	x3
    100e31f0:	93407c00 	sxtw	x0, w0
    100e31f4:	a94153f3 	ldp	x19, x20, [sp, #16]
    100e31f8:	a9425bf5 	ldp	x21, x22, [sp, #32]
    100e31fc:	a8c37bfd 	ldp	x29, x30, [sp], #48
    100e3200:	d65f03c0 	ret
    100e3204:	35000193 	cbnz	w19, 100e3234 <psci_system_reset2+0xb4>
    100e3208:	f9404c02 	ldr	x2, [x0, #152]
    100e320c:	b4fffde2 	cbz	x2, 100e31c8 <psci_system_reset2+0x48>
    100e3210:	52800000 	mov	w0, #0x0                   	// #0
    100e3214:	d63f0040 	blr	x2
    100e3218:	36fffd80 	tbz	w0, #31, 100e31c8 <psci_system_reset2+0x48>
    100e321c:	92800000 	mov	x0, #0xffffffffffffffff    	// #-1
    100e3220:	17fffff5 	b	100e31f4 <psci_system_reset2+0x74>
    100e3224:	f9402000 	ldr	x0, [x0, #64]
    100e3228:	b4fffd60 	cbz	x0, 100e31d4 <psci_system_reset2+0x54>
    100e322c:	d63f0000 	blr	x0
    100e3230:	17ffffe9 	b	100e31d4 <psci_system_reset2+0x54>
    100e3234:	92800020 	mov	x0, #0xfffffffffffffffe    	// #-2
    100e3238:	17ffffef 	b	100e31f4 <psci_system_reset2+0x74>

00000000100e323c <psci_mem_protect>:
    100e323c:	a9bd7bfd 	stp	x29, x30, [sp, #-48]!
    100e3240:	910003fd 	mov	x29, sp
    100e3244:	a90153f3 	stp	x19, x20, [sp, #16]
    100e3248:	2a0003f3 	mov	w19, w0
    100e324c:	f0000054 	adrp	x20, 100ee000 <__STACKS_START__+0x3f80>
    100e3250:	f947c280 	ldr	x0, [x20, #3968]
    100e3254:	f9404801 	ldr	x1, [x0, #144]
    100e3258:	b50000a1 	cbnz	x1, 100e326c <psci_mem_protect+0x30>
    100e325c:	52800241 	mov	w1, #0x12                  	// #18
    100e3260:	b0000020 	adrp	x0, 100e8000 <__TEXT_END__>
    100e3264:	911f1800 	add	x0, x0, #0x7c6
    100e3268:	94000c7f 	bl	100e6464 <__assert>
    100e326c:	f9404c00 	ldr	x0, [x0, #152]
    100e3270:	b5000060 	cbnz	x0, 100e327c <psci_mem_protect+0x40>
    100e3274:	52800261 	mov	w1, #0x13                  	// #19
    100e3278:	17fffffa 	b	100e3260 <psci_mem_protect+0x24>
    100e327c:	9100b3e0 	add	x0, sp, #0x2c
    100e3280:	d63f0020 	blr	x1
    100e3284:	36f800a0 	tbz	w0, #31, 100e3298 <psci_mem_protect+0x5c>
    100e3288:	92800000 	mov	x0, #0xffffffffffffffff    	// #-1
    100e328c:	a94153f3 	ldp	x19, x20, [sp, #16]
    100e3290:	a8c37bfd 	ldp	x29, x30, [sp], #48
    100e3294:	d65f03c0 	ret
    100e3298:	f947c280 	ldr	x0, [x20, #3968]
    100e329c:	f9404c01 	ldr	x1, [x0, #152]
    100e32a0:	2a1303e0 	mov	w0, w19
    100e32a4:	d63f0020 	blr	x1
    100e32a8:	37ffff00 	tbnz	w0, #31, 100e3288 <psci_mem_protect+0x4c>
    100e32ac:	b9402fe0 	ldr	w0, [sp, #44]
    100e32b0:	7100001f 	cmp	w0, #0x0
    100e32b4:	9a9f07e0 	cset	x0, ne  // ne = any
    100e32b8:	17fffff5 	b	100e328c <psci_mem_protect+0x50>

00000000100e32bc <psci_mem_chk_range>:
    100e32bc:	a9bf7bfd 	stp	x29, x30, [sp, #-16]!
    100e32c0:	910003fd 	mov	x29, sp
    100e32c4:	f0000044 	adrp	x4, 100ee000 <__STACKS_START__+0x3f80>
    100e32c8:	f947c084 	ldr	x4, [x4, #3968]
    100e32cc:	f9404484 	ldr	x4, [x4, #136]
    100e32d0:	b50000a4 	cbnz	x4, 100e32e4 <psci_mem_chk_range+0x28>
    100e32d4:	b0000020 	adrp	x0, 100e8000 <__TEXT_END__>
    100e32d8:	911f1800 	add	x0, x0, #0x7c6
    100e32dc:	52800421 	mov	w1, #0x21                  	// #33
    100e32e0:	94000c61 	bl	100e6464 <__assert>
    100e32e4:	b5000081 	cbnz	x1, 100e32f4 <psci_mem_chk_range+0x38>
    100e32e8:	92800040 	mov	x0, #0xfffffffffffffffd    	// #-3
    100e32ec:	a8c17bfd 	ldp	x29, x30, [sp], #16
    100e32f0:	d65f03c0 	ret
    100e32f4:	cb0103e2 	neg	x2, x1
    100e32f8:	eb00005f 	cmp	x2, x0
    100e32fc:	54ffff63 	b.cc	100e32e8 <psci_mem_chk_range+0x2c>  // b.lo, b.ul, b.last
    100e3300:	d63f0080 	blr	x4
    100e3304:	37ffff20 	tbnz	w0, #31, 100e32e8 <psci_mem_chk_range+0x2c>
    100e3308:	d2800000 	mov	x0, #0x0                   	// #0
    100e330c:	17fffff8 	b	100e32ec <psci_mem_chk_range+0x30>

00000000100e3310 <bakery_lock_get>:
    100e3310:	a9be7bfd 	stp	x29, x30, [sp, #-32]!
    100e3314:	910003fd 	mov	x29, sp
    100e3318:	f9000bf3 	str	x19, [sp, #16]
    100e331c:	aa0003f3 	mov	x19, x0
    100e3320:	94000862 	bl	100e54a8 <plat_my_core_pos>
    100e3324:	b50000b3 	cbnz	x19, 100e3338 <bakery_lock_get+0x28>
    100e3328:	52800c81 	mov	w1, #0x64                  	// #100
    100e332c:	b0000020 	adrp	x0, 100e8000 <__TEXT_END__>
    100e3330:	911f8800 	add	x0, x0, #0x7e2
    100e3334:	94000c4c 	bl	100e6464 <__assert>
    100e3338:	71000c1f 	cmp	w0, #0x3
    100e333c:	54ffff68 	b.hi	100e3328 <bakery_lock_get+0x18>  // b.pmore
    100e3340:	d37f7c05 	ubfiz	x5, x0, #1, #32
    100e3344:	78656a61 	ldrh	w1, [x19, x5]
    100e3348:	d3413c21 	ubfx	x1, x1, #1, #15
    100e334c:	34000061 	cbz	w1, 100e3358 <bakery_lock_get+0x48>
    100e3350:	52800641 	mov	w1, #0x32                  	// #50
    100e3354:	17fffff6 	b	100e332c <bakery_lock_get+0x1c>
    100e3358:	52800022 	mov	w2, #0x1                   	// #1
    100e335c:	52800003 	mov	w3, #0x0                   	// #0
    100e3360:	78256a62 	strh	w2, [x19, x5]
    100e3364:	52800002 	mov	w2, #0x0                   	// #0
    100e3368:	2a0303e4 	mov	w4, w3
    100e336c:	11000463 	add	w3, w3, #0x1
    100e3370:	78647a64 	ldrh	w4, [x19, x4, lsl #1]
    100e3374:	d3413c84 	ubfx	x4, x4, #1, #15
    100e3378:	6b04005f 	cmp	w2, w4
    100e337c:	1a842042 	csel	w2, w2, w4, cs  // cs = hs, nlast
    100e3380:	7100107f 	cmp	w3, #0x4
    100e3384:	54ffff21 	b.ne	100e3368 <bakery_lock_get+0x58>  // b.any
    100e3388:	11000442 	add	w2, w2, #0x1
    100e338c:	531f3843 	ubfiz	w3, w2, #1, #15
    100e3390:	2a022002 	orr	w2, w0, w2, lsl #8
    100e3394:	78256a63 	strh	w3, [x19, x5]
    100e3398:	6b01001f 	cmp	w0, w1
    100e339c:	54000220 	b.eq	100e33e0 <bakery_lock_get+0xd0>  // b.none
    100e33a0:	d37f7c25 	ubfiz	x5, x1, #1, #32
    100e33a4:	78656a64 	ldrh	w4, [x19, x5]
    100e33a8:	8b050266 	add	x6, x19, x5
    100e33ac:	12003c83 	and	w3, w4, #0xffff
    100e33b0:	3707ffa4 	tbnz	w4, #0, 100e33a4 <bakery_lock_get+0x94>
    100e33b4:	53017c64 	lsr	w4, w3, #1
    100e33b8:	6b4307ff 	cmp	wzr, w3, lsr #1
    100e33bc:	54000120 	b.eq	100e33e0 <bakery_lock_get+0xd0>  // b.none
    100e33c0:	2a042023 	orr	w3, w1, w4, lsl #8
    100e33c4:	6b03005f 	cmp	w2, w3
    100e33c8:	540000c9 	b.ls	100e33e0 <bakery_lock_get+0xd0>  // b.plast
    100e33cc:	d503205f 	wfe
    100e33d0:	794000c3 	ldrh	w3, [x6]
    100e33d4:	d3413c63 	ubfx	x3, x3, #1, #15
    100e33d8:	6b03009f 	cmp	w4, w3
    100e33dc:	54ffff80 	b.eq	100e33cc <bakery_lock_get+0xbc>  // b.none
    100e33e0:	11000421 	add	w1, w1, #0x1
    100e33e4:	7100103f 	cmp	w1, #0x4
    100e33e8:	54fffd81 	b.ne	100e3398 <bakery_lock_get+0x88>  // b.any
    100e33ec:	d5033dbf 	dmb	ld
    100e33f0:	f9400bf3 	ldr	x19, [sp, #16]
    100e33f4:	a8c27bfd 	ldp	x29, x30, [sp], #32
    100e33f8:	d65f03c0 	ret

00000000100e33fc <bakery_lock_release>:
    100e33fc:	a9be7bfd 	stp	x29, x30, [sp, #-32]!
    100e3400:	910003fd 	mov	x29, sp
    100e3404:	f9000bf3 	str	x19, [sp, #16]
    100e3408:	aa0003f3 	mov	x19, x0
    100e340c:	94000827 	bl	100e54a8 <plat_my_core_pos>
    100e3410:	b50000b3 	cbnz	x19, 100e3424 <bakery_lock_release+0x28>
    100e3414:	52801301 	mov	w1, #0x98                  	// #152
    100e3418:	b0000020 	adrp	x0, 100e8000 <__TEXT_END__>
    100e341c:	911f8800 	add	x0, x0, #0x7e2
    100e3420:	94000c11 	bl	100e6464 <__assert>
    100e3424:	71000c1f 	cmp	w0, #0x3
    100e3428:	54ffff68 	b.hi	100e3414 <bakery_lock_release+0x18>  // b.pmore
    100e342c:	d37f7c01 	ubfiz	x1, x0, #1, #32
    100e3430:	78616a60 	ldrh	w0, [x19, x1]
    100e3434:	f27f381f 	tst	x0, #0xfffe
    100e3438:	54000061 	b.ne	100e3444 <bakery_lock_release+0x48>  // b.any
    100e343c:	52801321 	mov	w1, #0x99                  	// #153
    100e3440:	17fffff6 	b	100e3418 <bakery_lock_release+0x1c>
    100e3444:	d5033ebf 	dmb	st
    100e3448:	78216a7f 	strh	wzr, [x19, x1]
    100e344c:	d5033f9f 	dsb	sy
    100e3450:	d503209f 	sev
    100e3454:	f9400bf3 	ldr	x19, [sp, #16]
    100e3458:	a8c27bfd 	ldp	x29, x30, [sp], #32
    100e345c:	d65f03c0 	ret

00000000100e3460 <spe_supported>:
    100e3460:	d5380500 	mrs	x0, id_aa64dfr0_el1
    100e3464:	d3608c00 	ubfx	x0, x0, #32, #4
    100e3468:	f100041f 	cmp	x0, #0x1
    100e346c:	1a9f17e0 	cset	w0, eq  // eq = none
    100e3470:	d65f03c0 	ret

00000000100e3474 <spe_drain_buffers_hook>:
    100e3474:	a9bf7bfd 	stp	x29, x30, [sp, #-16]!
    100e3478:	910003fd 	mov	x29, sp
    100e347c:	97fffff9 	bl	100e3460 <spe_supported>
    100e3480:	72001c1f 	tst	w0, #0xff
    100e3484:	540000c0 	b.eq	100e349c <spe_drain_buffers_hook+0x28>  // b.none
    100e3488:	d503223f 	psb	csync
    100e348c:	d503379f 	dsb	nsh
    100e3490:	d2800000 	mov	x0, #0x0                   	// #0
    100e3494:	a8c17bfd 	ldp	x29, x30, [sp], #16
    100e3498:	d65f03c0 	ret
    100e349c:	92800000 	mov	x0, #0xffffffffffffffff    	// #-1
    100e34a0:	17fffffd 	b	100e3494 <spe_drain_buffers_hook+0x20>

00000000100e34a4 <spe_enable>:
    100e34a4:	12001c01 	and	w1, w0, #0xff
    100e34a8:	a9bf7bfd 	stp	x29, x30, [sp, #-16]!
    100e34ac:	910003fd 	mov	x29, sp
    100e34b0:	97ffffec 	bl	100e3460 <spe_supported>
    100e34b4:	72001c1f 	tst	w0, #0xff
    100e34b8:	54000140 	b.eq	100e34e0 <spe_enable+0x3c>  // b.none
    100e34bc:	340000c1 	cbz	w1, 100e34d4 <spe_enable+0x30>
    100e34c0:	d53c1120 	mrs	x0, mdcr_el2
    100e34c4:	92407c00 	and	x0, x0, #0xffffffff
    100e34c8:	9271f800 	and	x0, x0, #0xffffffffffffbfff
    100e34cc:	b2740400 	orr	x0, x0, #0x3000
    100e34d0:	d51c1120 	msr	mdcr_el2, x0
    100e34d4:	d53e1320 	mrs	x0, mdcr_el3
    100e34d8:	b2740400 	orr	x0, x0, #0x3000
    100e34dc:	d51e1320 	msr	mdcr_el3, x0
    100e34e0:	a8c17bfd 	ldp	x29, x30, [sp], #16
    100e34e4:	d65f03c0 	ret

00000000100e34e8 <sve_supported>:
    100e34e8:	d5380400 	mrs	x0, id_aa64pfr0_el1
    100e34ec:	d3608c00 	ubfx	x0, x0, #32, #4
    100e34f0:	f100041f 	cmp	x0, #0x1
    100e34f4:	1a9f17e0 	cset	w0, eq  // eq = none
    100e34f8:	d65f03c0 	ret

00000000100e34fc <disable_sve_hook>:
    100e34fc:	a9bf7bfd 	stp	x29, x30, [sp, #-16]!
    100e3500:	910003fd 	mov	x29, sp
    100e3504:	97fffff9 	bl	100e34e8 <sve_supported>
    100e3508:	72001c1f 	tst	w0, #0xff
    100e350c:	54000120 	b.eq	100e3530 <disable_sve_hook+0x34>  // b.none
    100e3510:	d53e1140 	mrs	x0, cptr_el3
    100e3514:	1280a001 	mov	w1, #0xfffffaff            	// #-1281
    100e3518:	8a010000 	and	x0, x0, x1
    100e351c:	b2760000 	orr	x0, x0, #0x400
    100e3520:	d51e1140 	msr	cptr_el3, x0
    100e3524:	d2800000 	mov	x0, #0x0                   	// #0
    100e3528:	a8c17bfd 	ldp	x29, x30, [sp], #16
    100e352c:	d65f03c0 	ret
    100e3530:	92800000 	mov	x0, #0xffffffffffffffff    	// #-1
    100e3534:	17fffffd 	b	100e3528 <disable_sve_hook+0x2c>

00000000100e3538 <enable_sve_hook>:
    100e3538:	a9bf7bfd 	stp	x29, x30, [sp, #-16]!
    100e353c:	910003fd 	mov	x29, sp
    100e3540:	97ffffea 	bl	100e34e8 <sve_supported>
    100e3544:	72001c1f 	tst	w0, #0xff
    100e3548:	54000120 	b.eq	100e356c <enable_sve_hook+0x34>  // b.none
    100e354c:	d53e1140 	mrs	x0, cptr_el3
    100e3550:	1280a001 	mov	w1, #0xfffffaff            	// #-1281
    100e3554:	8a010000 	and	x0, x0, x1
    100e3558:	b2780000 	orr	x0, x0, #0x100
    100e355c:	d51e1140 	msr	cptr_el3, x0
    100e3560:	d2800000 	mov	x0, #0x0                   	// #0
    100e3564:	a8c17bfd 	ldp	x29, x30, [sp], #16
    100e3568:	d65f03c0 	ret
    100e356c:	92800000 	mov	x0, #0xffffffffffffffff    	// #-1
    100e3570:	17fffffd 	b	100e3564 <enable_sve_hook+0x2c>

00000000100e3574 <sve_enable>:
    100e3574:	12001c02 	and	w2, w0, #0xff
    100e3578:	a9bf7bfd 	stp	x29, x30, [sp, #-16]!
    100e357c:	910003fd 	mov	x29, sp
    100e3580:	97ffffda 	bl	100e34e8 <sve_supported>
    100e3584:	72001c1f 	tst	w0, #0xff
    100e3588:	540001a0 	b.eq	100e35bc <sve_enable+0x48>  // b.none
    100e358c:	d53e1140 	mrs	x0, cptr_el3
    100e3590:	b2780000 	orr	x0, x0, #0x100
    100e3594:	d51e1140 	msr	cptr_el3, x0
    100e3598:	d5033fdf 	isb
    100e359c:	d28001e1 	mov	x1, #0xf                   	// #15
    100e35a0:	d51e1201 	msr	zcr_el3, x1
    100e35a4:	340000c2 	cbz	w2, 100e35bc <sve_enable+0x48>
    100e35a8:	d53c1140 	mrs	x0, cptr_el2
    100e35ac:	92407c00 	and	x0, x0, #0xffffffff
    100e35b0:	9277f800 	and	x0, x0, #0xfffffffffffffeff
    100e35b4:	d51c1140 	msr	cptr_el2, x0
    100e35b8:	d51c1201 	msr	zcr_el2, x1
    100e35bc:	a8c17bfd 	ldp	x29, x30, [sp], #16
    100e35c0:	d65f03c0 	ret

00000000100e35c4 <opteed_init_optee_ep_state>:
    100e35c4:	a9bc7bfd 	stp	x29, x30, [sp, #-64]!
    100e35c8:	910003fd 	mov	x29, sp
    100e35cc:	a90153f3 	stp	x19, x20, [sp, #16]
    100e35d0:	a9025bf5 	stp	x21, x22, [sp, #32]
    100e35d4:	a90363f7 	stp	x23, x24, [sp, #48]
    100e35d8:	b50000a6 	cbnz	x6, 100e35ec <opteed_init_optee_ep_state+0x28>
    100e35dc:	528003c1 	mov	w1, #0x1e                  	// #30
    100e35e0:	b0000020 	adrp	x0, 100e8000 <__TEXT_END__>
    100e35e4:	91202800 	add	x0, x0, #0x80a
    100e35e8:	94000b9f 	bl	100e6464 <__assert>
    100e35ec:	aa0003f3 	mov	x19, x0
    100e35f0:	b5000060 	cbnz	x0, 100e35fc <opteed_init_optee_ep_state+0x38>
    100e35f4:	528003e1 	mov	w1, #0x1f                  	// #31
    100e35f8:	17fffffa 	b	100e35e0 <opteed_init_optee_ep_state+0x1c>
    100e35fc:	aa0203f4 	mov	x20, x2
    100e3600:	b5000062 	cbnz	x2, 100e360c <opteed_init_optee_ep_state+0x48>
    100e3604:	52800401 	mov	w1, #0x20                  	// #32
    100e3608:	17fffff6 	b	100e35e0 <opteed_init_optee_ep_state+0x1c>
    100e360c:	2a0103f8 	mov	w24, w1
    100e3610:	aa0303f7 	mov	x23, x3
    100e3614:	aa0403f6 	mov	x22, x4
    100e3618:	aa0503f5 	mov	x21, x5
    100e361c:	aa0603e0 	mov	x0, x6
    100e3620:	d53800a1 	mrs	x1, mpidr_el1
    100e3624:	f90004c1 	str	x1, [x6, #8]
    100e3628:	52800001 	mov	w1, #0x0                   	// #0
    100e362c:	b802041f 	str	wzr, [x0], #32
    100e3630:	97fff616 	bl	100e0e88 <cm_set_context>
    100e3634:	d53e1000 	mrs	x0, sctlr_el3
    100e3638:	528000c1 	mov	w1, #0x6                   	// #6
    100e363c:	f267001f 	tst	x0, #0x2000000
    100e3640:	52800080 	mov	w0, #0x4                   	// #4
    100e3644:	1a810000 	csel	w0, w0, w1, eq  // eq = none
    100e3648:	7100031f 	cmp	w24, #0x0
    100e364c:	52802021 	mov	w1, #0x101                 	// #257
    100e3650:	72a00b01 	movk	w1, #0x58, lsl #16
    100e3654:	29000261 	stp	w1, w0, [x19]
    100e3658:	52803a61 	mov	w1, #0x1d3                 	// #467
    100e365c:	528078a0 	mov	w0, #0x3c5                 	// #965
    100e3660:	1a810000 	csel	w0, w0, w1, eq  // eq = none
    100e3664:	f9000674 	str	x20, [x19, #8]
    100e3668:	b9001260 	str	w0, [x19, #16]
    100e366c:	d2800801 	mov	x1, #0x40                  	// #64
    100e3670:	91006260 	add	x0, x19, #0x18
    100e3674:	94000aa3 	bl	100e6100 <zeromem>
    100e3678:	a901da77 	stp	x23, x22, [x19, #24]
    100e367c:	f9001675 	str	x21, [x19, #40]
    100e3680:	a94153f3 	ldp	x19, x20, [sp, #16]
    100e3684:	a9425bf5 	ldp	x21, x22, [sp, #32]
    100e3688:	a94363f7 	ldp	x23, x24, [sp, #48]
    100e368c:	a8c47bfd 	ldp	x29, x30, [sp], #64
    100e3690:	d65f03c0 	ret

00000000100e3694 <opteed_synchronous_sp_entry>:
    100e3694:	a9be7bfd 	stp	x29, x30, [sp, #-32]!
    100e3698:	910003fd 	mov	x29, sp
    100e369c:	f9000bf3 	str	x19, [sp, #16]
    100e36a0:	b50000a0 	cbnz	x0, 100e36b4 <opteed_synchronous_sp_entry+0x20>
    100e36a4:	52800941 	mov	w1, #0x4a                  	// #74
    100e36a8:	b0000020 	adrp	x0, 100e8000 <__TEXT_END__>
    100e36ac:	91202800 	add	x0, x0, #0x80a
    100e36b0:	94000b6d 	bl	100e6464 <__assert>
    100e36b4:	aa0003f3 	mov	x19, x0
    100e36b8:	f9400800 	ldr	x0, [x0, #16]
    100e36bc:	b4000060 	cbz	x0, 100e36c8 <opteed_synchronous_sp_entry+0x34>
    100e36c0:	52800961 	mov	w1, #0x4b                  	// #75
    100e36c4:	17fffff9 	b	100e36a8 <opteed_synchronous_sp_entry+0x14>
    100e36c8:	52800000 	mov	w0, #0x0                   	// #0
    100e36cc:	97fff5e4 	bl	100e0e5c <cm_get_context>
    100e36d0:	91008261 	add	x1, x19, #0x20
    100e36d4:	eb00003f 	cmp	x1, x0
    100e36d8:	54000060 	b.eq	100e36e4 <opteed_synchronous_sp_entry+0x50>  // b.none
    100e36dc:	528009c1 	mov	w1, #0x4e                  	// #78
    100e36e0:	17fffff2 	b	100e36a8 <opteed_synchronous_sp_entry+0x14>
    100e36e4:	52800000 	mov	w0, #0x0                   	// #0
    100e36e8:	97fff755 	bl	100e143c <cm_el1_sysregs_context_restore>
    100e36ec:	52800000 	mov	w0, #0x0                   	// #0
    100e36f0:	97fff7a3 	bl	100e157c <cm_set_next_eret_context>
    100e36f4:	91004260 	add	x0, x19, #0x10
    100e36f8:	940009c9 	bl	100e5e1c <opteed_enter_sp>
    100e36fc:	f9000a7f 	str	xzr, [x19, #16]
    100e3700:	f9400bf3 	ldr	x19, [sp, #16]
    100e3704:	a8c27bfd 	ldp	x29, x30, [sp], #32
    100e3708:	d65f03c0 	ret

00000000100e370c <opteed_synchronous_sp_exit>:
    100e370c:	a9be7bfd 	stp	x29, x30, [sp, #-32]!
    100e3710:	910003fd 	mov	x29, sp
    100e3714:	a90153f3 	stp	x19, x20, [sp, #16]
    100e3718:	b50000a0 	cbnz	x0, 100e372c <opteed_synchronous_sp_exit+0x20>
    100e371c:	52800ca1 	mov	w1, #0x65                  	// #101
    100e3720:	b0000020 	adrp	x0, 100e8000 <__TEXT_END__>
    100e3724:	91202800 	add	x0, x0, #0x80a
    100e3728:	94000b4f 	bl	100e6464 <__assert>
    100e372c:	aa0003f3 	mov	x19, x0
    100e3730:	aa0103f4 	mov	x20, x1
    100e3734:	52800000 	mov	w0, #0x0                   	// #0
    100e3738:	97fff5c9 	bl	100e0e5c <cm_get_context>
    100e373c:	91008261 	add	x1, x19, #0x20
    100e3740:	eb00003f 	cmp	x1, x0
    100e3744:	54000060 	b.eq	100e3750 <opteed_synchronous_sp_exit+0x44>  // b.none
    100e3748:	52800ce1 	mov	w1, #0x67                  	// #103
    100e374c:	17fffff5 	b	100e3720 <opteed_synchronous_sp_exit+0x14>
    100e3750:	52800000 	mov	w0, #0x0                   	// #0
    100e3754:	97fff716 	bl	100e13ac <cm_el1_sysregs_context_save>
    100e3758:	f9400a60 	ldr	x0, [x19, #16]
    100e375c:	b5000060 	cbnz	x0, 100e3768 <opteed_synchronous_sp_exit+0x5c>
    100e3760:	52800d41 	mov	w1, #0x6a                  	// #106
    100e3764:	17ffffef 	b	100e3720 <opteed_synchronous_sp_exit+0x14>
    100e3768:	aa1403e1 	mov	x1, x20
    100e376c:	940009b6 	bl	100e5e44 <opteed_exit_sp>

00000000100e3770 <opteed_smc_handler>:
    100e3770:	a9ba7bfd 	stp	x29, x30, [sp, #-96]!
    100e3774:	910003fd 	mov	x29, sp
    100e3778:	a90153f3 	stp	x19, x20, [sp, #16]
    100e377c:	52804e13 	mov	w19, #0x270                 	// #624
    100e3780:	2a0003f4 	mov	w20, w0
    100e3784:	a9025bf5 	stp	x21, x22, [sp, #32]
    100e3788:	aa0103f5 	mov	x21, x1
    100e378c:	aa0203f6 	mov	x22, x2
    100e3790:	a90363f7 	stp	x23, x24, [sp, #48]
    100e3794:	aa0303f7 	mov	x23, x3
    100e3798:	aa0603f8 	mov	x24, x6
    100e379c:	a9046bf9 	stp	x25, x26, [sp, #64]
    100e37a0:	aa0403fa 	mov	x26, x4
    100e37a4:	a90573fb 	stp	x27, x28, [sp, #80]
    100e37a8:	aa0703fc 	mov	x28, x7
    100e37ac:	9400073f 	bl	100e54a8 <plat_my_core_pos>
    100e37b0:	f0000044 	adrp	x4, 100ee000 <__STACKS_START__+0x3f80>
    100e37b4:	913ec099 	add	x25, x4, #0xfb0
    100e37b8:	9bb37c13 	umull	x19, w0, w19
    100e37bc:	2a0003fb 	mov	w27, w0
    100e37c0:	3600067c 	tbz	w28, #0, 100e388c <opteed_smc_handler+0x11c>
    100e37c4:	52800020 	mov	w0, #0x1                   	// #1
    100e37c8:	97fff5a5 	bl	100e0e5c <cm_get_context>
    100e37cc:	eb00031f 	cmp	x24, x0
    100e37d0:	540000a0 	b.eq	100e37e4 <opteed_smc_handler+0x74>  // b.none
    100e37d4:	52801b01 	mov	w1, #0xd8                  	// #216
    100e37d8:	b0000020 	adrp	x0, 100e8000 <__TEXT_END__>
    100e37dc:	9120b800 	add	x0, x0, #0x82e
    100e37e0:	94000b21 	bl	100e6464 <__assert>
    100e37e4:	91008273 	add	x19, x19, #0x20
    100e37e8:	52800020 	mov	w0, #0x1                   	// #1
    100e37ec:	8b130333 	add	x19, x25, x19
    100e37f0:	97fff6ef 	bl	100e13ac <cm_el1_sysregs_context_save>
    100e37f4:	52800000 	mov	w0, #0x0                   	// #0
    100e37f8:	97fff599 	bl	100e0e5c <cm_get_context>
    100e37fc:	eb00027f 	cmp	x19, x0
    100e3800:	54000060 	b.eq	100e380c <opteed_smc_handler+0x9c>  // b.none
    100e3804:	52801d01 	mov	w1, #0xe8                  	// #232
    100e3808:	17fffff4 	b	100e37d8 <opteed_smc_handler+0x68>
    100e380c:	f0000040 	adrp	x0, 100ee000 <__STACKS_START__+0x3f80>
    100e3810:	f947d001 	ldr	x1, [x0, #4000]
    100e3814:	36f80054 	tbz	w20, #31, 100e381c <opteed_smc_handler+0xac>
    100e3818:	91001021 	add	x1, x1, #0x4
    100e381c:	52800000 	mov	w0, #0x0                   	// #0
    100e3820:	97fff72b 	bl	100e14cc <cm_set_elr_el3>
    100e3824:	52800000 	mov	w0, #0x0                   	// #0
    100e3828:	97fff705 	bl	100e143c <cm_el1_sysregs_context_restore>
    100e382c:	52800000 	mov	w0, #0x0                   	// #0
    100e3830:	97fff753 	bl	100e157c <cm_set_next_eret_context>
    100e3834:	2a1b03e4 	mov	w4, w27
    100e3838:	d2804e01 	mov	x1, #0x270                 	// #624
    100e383c:	f9401300 	ldr	x0, [x24, #32]
    100e3840:	d503201f 	nop
    100e3844:	9b016484 	madd	x4, x4, x1, x25
    100e3848:	f9002080 	str	x0, [x4, #64]
    100e384c:	f9401700 	ldr	x0, [x24, #40]
    100e3850:	f9002480 	str	x0, [x4, #72]
    100e3854:	f9401b00 	ldr	x0, [x24, #48]
    100e3858:	f9002880 	str	x0, [x4, #80]
    100e385c:	f9401f00 	ldr	x0, [x24, #56]
    100e3860:	a9025494 	stp	x20, x21, [x4, #32]
    100e3864:	a9035c96 	stp	x22, x23, [x4, #48]
    100e3868:	f9002c80 	str	x0, [x4, #88]
    100e386c:	aa1303e0 	mov	x0, x19
    100e3870:	a94153f3 	ldp	x19, x20, [sp, #16]
    100e3874:	a9425bf5 	ldp	x21, x22, [sp, #32]
    100e3878:	a94363f7 	ldp	x23, x24, [sp, #48]
    100e387c:	a9446bf9 	ldp	x25, x26, [sp, #64]
    100e3880:	a94573fb 	ldp	x27, x28, [sp, #80]
    100e3884:	a8c67bfd 	ldp	x29, x30, [sp], #96
    100e3888:	d65f03c0 	ret
    100e388c:	52a84000 	mov	w0, #0x42000000            	// #1107296256
    100e3890:	0b000294 	add	w20, w20, w0
    100e3894:	8b130333 	add	x19, x25, x19
    100e3898:	7100229f 	cmp	w20, #0x8
    100e389c:	540003c8 	b.hi	100e3914 <opteed_smc_handler+0x1a4>  // b.pmore
    100e38a0:	b0000020 	adrp	x0, 100e8000 <__TEXT_END__>
    100e38a4:	91214000 	add	x0, x0, #0x850
    100e38a8:	38744800 	ldrb	w0, [x0, w20, uxtw]
    100e38ac:	10000061 	adr	x1, 100e38b8 <opteed_smc_handler+0x148>
    100e38b0:	8b208820 	add	x0, x1, w0, sxtb #2
    100e38b4:	d61f0000 	br	x0
    100e38b8:	f0000040 	adrp	x0, 100ee000 <__STACKS_START__+0x3f80>
    100e38bc:	f947d001 	ldr	x1, [x0, #4000]
    100e38c0:	b4000061 	cbz	x1, 100e38cc <opteed_smc_handler+0x15c>
    100e38c4:	52802361 	mov	w1, #0x11b                 	// #283
    100e38c8:	17ffffc4 	b	100e37d8 <opteed_smc_handler+0x68>
    100e38cc:	f907d015 	str	x21, [x0, #4000]
    100e38d0:	b40002d5 	cbz	x21, 100e3928 <opteed_smc_handler+0x1b8>
    100e38d4:	2a1b03e4 	mov	w4, w27
    100e38d8:	d2804e1b 	mov	x27, #0x270                 	// #624
    100e38dc:	9b1b7c84 	mul	x4, x4, x27
    100e38e0:	b8646b20 	ldr	w0, [x25, x4]
    100e38e4:	121e7400 	and	w0, w0, #0xfffffffc
    100e38e8:	32000000 	orr	w0, w0, #0x1
    100e38ec:	b8246b20 	str	w0, [x25, x4]
    100e38f0:	b0000020 	adrp	x0, 100e8000 <__TEXT_END__>
    100e38f4:	91266000 	add	x0, x0, #0x998
    100e38f8:	97fffb2d 	bl	100e25ac <psci_register_spd_pm_hook>
    100e38fc:	90000001 	adrp	x1, 100e3000 <psci_setup+0x2bc>
    100e3900:	9128f021 	add	x1, x1, #0xa3c
    100e3904:	52800042 	mov	w2, #0x2                   	// #2
    100e3908:	52800000 	mov	w0, #0x0                   	// #0
    100e390c:	97fff52e 	bl	100e0dc4 <register_interrupt_type_handler>
    100e3910:	340000c0 	cbz	w0, 100e3928 <opteed_smc_handler+0x1b8>
    100e3914:	b0000020 	adrp	x0, 100e8000 <__TEXT_END__>
    100e3918:	9123c800 	add	x0, x0, #0x8f2
    100e391c:	94000297 	bl	100e4378 <backtrace>
    100e3920:	94000234 	bl	100e41f0 <console_flush>
    100e3924:	9400097d 	bl	100e5f18 <do_panic>
    100e3928:	aa1503e1 	mov	x1, x21
    100e392c:	aa1303e0 	mov	x0, x19
    100e3930:	97ffff77 	bl	100e370c <opteed_synchronous_sp_exit>
    100e3934:	52800000 	mov	w0, #0x0                   	// #0
    100e3938:	97fff549 	bl	100e0e5c <cm_get_context>
    100e393c:	eb00031f 	cmp	x24, x0
    100e3940:	54000060 	b.eq	100e394c <opteed_smc_handler+0x1dc>  // b.none
    100e3944:	52802d61 	mov	w1, #0x16b                 	// #363
    100e3948:	17ffffa4 	b	100e37d8 <opteed_smc_handler+0x68>
    100e394c:	52800000 	mov	w0, #0x0                   	// #0
    100e3950:	97fff697 	bl	100e13ac <cm_el1_sysregs_context_save>
    100e3954:	52800020 	mov	w0, #0x1                   	// #1
    100e3958:	97fff541 	bl	100e0e5c <cm_get_context>
    100e395c:	aa0003f3 	mov	x19, x0
    100e3960:	b5000060 	cbnz	x0, 100e396c <opteed_smc_handler+0x1fc>
    100e3964:	52802e01 	mov	w1, #0x170                 	// #368
    100e3968:	17ffff9c 	b	100e37d8 <opteed_smc_handler+0x68>
    100e396c:	52800020 	mov	w0, #0x1                   	// #1
    100e3970:	97fff6b3 	bl	100e143c <cm_el1_sysregs_context_restore>
    100e3974:	52800020 	mov	w0, #0x1                   	// #1
    100e3978:	97fff701 	bl	100e157c <cm_set_next_eret_context>
    100e397c:	a9005a75 	stp	x21, x22, [x19]
    100e3980:	a9016a77 	stp	x23, x26, [x19, #16]
    100e3984:	17ffffba 	b	100e386c <opteed_smc_handler+0xfc>
    100e3988:	52800020 	mov	w0, #0x1                   	// #1
    100e398c:	97fff534 	bl	100e0e5c <cm_get_context>
    100e3990:	aa0003f3 	mov	x19, x0
    100e3994:	b5000060 	cbnz	x0, 100e39a0 <opteed_smc_handler+0x230>
    100e3998:	52802fe1 	mov	w1, #0x17f                 	// #383
    100e399c:	17ffff8f 	b	100e37d8 <opteed_smc_handler+0x68>
    100e39a0:	52800020 	mov	w0, #0x1                   	// #1
    100e39a4:	97fff6a6 	bl	100e143c <cm_el1_sysregs_context_restore>
    100e39a8:	52800020 	mov	w0, #0x1                   	// #1
    100e39ac:	97fff6f4 	bl	100e157c <cm_set_next_eret_context>
    100e39b0:	17ffffaf 	b	100e386c <opteed_smc_handler+0xfc>

00000000100e39b4 <opteed_setup>:
    100e39b4:	a9be7bfd 	stp	x29, x30, [sp, #-32]!
    100e39b8:	910003fd 	mov	x29, sp
    100e39bc:	f9000bf3 	str	x19, [sp, #16]
    100e39c0:	940006ba 	bl	100e54a8 <plat_my_core_pos>
    100e39c4:	2a0003f3 	mov	w19, w0
    100e39c8:	52800000 	mov	w0, #0x0                   	// #0
    100e39cc:	97fff1ff 	bl	100e01c8 <bl31_plat_get_next_image_ep_info>
    100e39d0:	b50000c0 	cbnz	x0, 100e39e8 <opteed_setup+0x34>
    100e39d4:	b0000020 	adrp	x0, 100e8000 <__TEXT_END__>
    100e39d8:	91216400 	add	x0, x0, #0x859
    100e39dc:	9400016e 	bl	100e3f94 <tf_log>
    100e39e0:	52800020 	mov	w0, #0x1                   	// #1
    100e39e4:	14000013 	b	100e3a30 <opteed_setup+0x7c>
    100e39e8:	f9400402 	ldr	x2, [x0, #8]
    100e39ec:	b4ffffa2 	cbz	x2, 100e39e0 <opteed_setup+0x2c>
    100e39f0:	f0000044 	adrp	x4, 100ee000 <__STACKS_START__+0x3f80>
    100e39f4:	52804e06 	mov	w6, #0x270                 	// #624
    100e39f8:	f9400c01 	ldr	x1, [x0, #24]
    100e39fc:	b90fa881 	str	w1, [x4, #4008]
    100e3a00:	f0000044 	adrp	x4, 100ee000 <__STACKS_START__+0x3f80>
    100e3a04:	913ec084 	add	x4, x4, #0xfb0
    100e3a08:	f9401003 	ldr	x3, [x0, #32]
    100e3a0c:	d503201f 	nop
    100e3a10:	9ba61266 	umaddl	x6, w19, w6, x4
    100e3a14:	f9401404 	ldr	x4, [x0, #40]
    100e3a18:	f9401805 	ldr	x5, [x0, #48]
    100e3a1c:	97fffeea 	bl	100e35c4 <opteed_init_optee_ep_state>
    100e3a20:	90000000 	adrp	x0, 100e3000 <psci_setup+0x2bc>
    100e3a24:	912c1000 	add	x0, x0, #0xb04
    100e3a28:	97fff488 	bl	100e0c48 <bl31_register_bl32_init>
    100e3a2c:	52800000 	mov	w0, #0x0                   	// #0
    100e3a30:	f9400bf3 	ldr	x19, [sp, #16]
    100e3a34:	a8c27bfd 	ldp	x29, x30, [sp], #32
    100e3a38:	d65f03c0 	ret

00000000100e3a3c <opteed_sel1_interrupt_handler>:
    100e3a3c:	a9bd7bfd 	stp	x29, x30, [sp, #-48]!
    100e3a40:	910003fd 	mov	x29, sp
    100e3a44:	a90153f3 	stp	x19, x20, [sp, #16]
    100e3a48:	f90013f5 	str	x21, [sp, #32]
    100e3a4c:	370000a1 	tbnz	w1, #0, 100e3a60 <opteed_sel1_interrupt_handler+0x24>
    100e3a50:	528007c1 	mov	w1, #0x3e                  	// #62
    100e3a54:	b0000020 	adrp	x0, 100e8000 <__TEXT_END__>
    100e3a58:	9120b800 	add	x0, x0, #0x82e
    100e3a5c:	94000a82 	bl	100e6464 <__assert>
    100e3a60:	aa0203f3 	mov	x19, x2
    100e3a64:	52800020 	mov	w0, #0x1                   	// #1
    100e3a68:	97fff4fd 	bl	100e0e5c <cm_get_context>
    100e3a6c:	eb00027f 	cmp	x19, x0
    100e3a70:	54000060 	b.eq	100e3a7c <opteed_sel1_interrupt_handler+0x40>  // b.none
    100e3a74:	52800821 	mov	w1, #0x41                  	// #65
    100e3a78:	17fffff7 	b	100e3a54 <opteed_sel1_interrupt_handler+0x18>
    100e3a7c:	52800020 	mov	w0, #0x1                   	// #1
    100e3a80:	97fff64b 	bl	100e13ac <cm_el1_sysregs_context_save>
    100e3a84:	52804e14 	mov	w20, #0x270                 	// #624
    100e3a88:	f0000055 	adrp	x21, 100ee000 <__STACKS_START__+0x3f80>
    100e3a8c:	913ec2b5 	add	x21, x21, #0xfb0
    100e3a90:	94000686 	bl	100e54a8 <plat_my_core_pos>
    100e3a94:	2a0003f3 	mov	w19, w0
    100e3a98:	d2800400 	mov	x0, #0x20                  	// #32
    100e3a9c:	9bb40274 	umaddl	x20, w19, w20, x0
    100e3aa0:	52800000 	mov	w0, #0x0                   	// #0
    100e3aa4:	97fff4ee 	bl	100e0e5c <cm_get_context>
    100e3aa8:	8b150294 	add	x20, x20, x21
    100e3aac:	eb00029f 	cmp	x20, x0
    100e3ab0:	54000060 	b.eq	100e3abc <opteed_sel1_interrupt_handler+0x80>  // b.none
    100e3ab4:	52800921 	mov	w1, #0x49                  	// #73
    100e3ab8:	17ffffe7 	b	100e3a54 <opteed_sel1_interrupt_handler+0x18>
    100e3abc:	f0000040 	adrp	x0, 100ee000 <__STACKS_START__+0x3f80>
    100e3ac0:	f947d001 	ldr	x1, [x0, #4000]
    100e3ac4:	52800000 	mov	w0, #0x0                   	// #0
    100e3ac8:	91006021 	add	x1, x1, #0x18
    100e3acc:	97fff680 	bl	100e14cc <cm_set_elr_el3>
    100e3ad0:	52800000 	mov	w0, #0x0                   	// #0
    100e3ad4:	97fff65a 	bl	100e143c <cm_el1_sysregs_context_restore>
    100e3ad8:	52800000 	mov	w0, #0x0                   	// #0
    100e3adc:	97fff6a8 	bl	100e157c <cm_set_next_eret_context>
    100e3ae0:	d53e4020 	mrs	x0, elr_el3
    100e3ae4:	d2804e01 	mov	x1, #0x270                 	// #624
    100e3ae8:	9b015673 	madd	x19, x19, x1, x21
    100e3aec:	f94013f5 	ldr	x21, [sp, #32]
    100e3af0:	f9001260 	str	x0, [x19, #32]
    100e3af4:	aa1403e0 	mov	x0, x20
    100e3af8:	a94153f3 	ldp	x19, x20, [sp, #16]
    100e3afc:	a8c37bfd 	ldp	x29, x30, [sp], #48
    100e3b00:	d65f03c0 	ret

00000000100e3b04 <opteed_init>:
    100e3b04:	a9be7bfd 	stp	x29, x30, [sp, #-32]!
    100e3b08:	910003fd 	mov	x29, sp
    100e3b0c:	f9000bf3 	str	x19, [sp, #16]
    100e3b10:	94000666 	bl	100e54a8 <plat_my_core_pos>
    100e3b14:	f0000053 	adrp	x19, 100ee000 <__STACKS_START__+0x3f80>
    100e3b18:	913ec273 	add	x19, x19, #0xfb0
    100e3b1c:	52804e01 	mov	w1, #0x270                 	// #624
    100e3b20:	9ba14c13 	umaddl	x19, w0, w1, x19
    100e3b24:	52800000 	mov	w0, #0x0                   	// #0
    100e3b28:	97fff1a8 	bl	100e01c8 <bl31_plat_get_next_image_ep_info>
    100e3b2c:	b50000a0 	cbnz	x0, 100e3b40 <opteed_init+0x3c>
    100e3b30:	52801501 	mov	w1, #0xa8                  	// #168
    100e3b34:	b0000020 	adrp	x0, 100e8000 <__TEXT_END__>
    100e3b38:	9120b800 	add	x0, x0, #0x82e
    100e3b3c:	94000a4a 	bl	100e6464 <__assert>
    100e3b40:	97fff610 	bl	100e1380 <cm_init_my_context>
    100e3b44:	aa1303e0 	mov	x0, x19
    100e3b48:	97fffed3 	bl	100e3694 <opteed_synchronous_sp_entry>
    100e3b4c:	b5000060 	cbnz	x0, 100e3b58 <opteed_init+0x54>
    100e3b50:	52801621 	mov	w1, #0xb1                  	// #177
    100e3b54:	17fffff8 	b	100e3b34 <opteed_init+0x30>
    100e3b58:	f9400bf3 	ldr	x19, [sp, #16]
    100e3b5c:	a8c27bfd 	ldp	x29, x30, [sp], #32
    100e3b60:	d65f03c0 	ret

00000000100e3b64 <opteed_cpu_on_handler>:
    100e3b64:	d65f03c0 	ret

00000000100e3b68 <opteed_cpu_migrate_info>:
    100e3b68:	52800040 	mov	w0, #0x2                   	// #2
    100e3b6c:	d65f03c0 	ret

00000000100e3b70 <opteed_system_reset>:
    100e3b70:	a9be7bfd 	stp	x29, x30, [sp, #-32]!
    100e3b74:	910003fd 	mov	x29, sp
    100e3b78:	f9000bf3 	str	x19, [sp, #16]
    100e3b7c:	9400064b 	bl	100e54a8 <plat_my_core_pos>
    100e3b80:	f0000041 	adrp	x1, 100ee000 <__STACKS_START__+0x3f80>
    100e3b84:	f947d021 	ldr	x1, [x1, #4000]
    100e3b88:	f0000042 	adrp	x2, 100ee000 <__STACKS_START__+0x3f80>
    100e3b8c:	913ec042 	add	x2, x2, #0xfb0
    100e3b90:	52804e13 	mov	w19, #0x270                 	// #624
    100e3b94:	9bb30813 	umaddl	x19, w0, w19, x2
    100e3b98:	b50000a1 	cbnz	x1, 100e3bac <opteed_system_reset+0x3c>
    100e3b9c:	52801881 	mov	w1, #0xc4                  	// #196
    100e3ba0:	b0000020 	adrp	x0, 100e8000 <__TEXT_END__>
    100e3ba4:	91241400 	add	x0, x0, #0x905
    100e3ba8:	94000a2f 	bl	100e6464 <__assert>
    100e3bac:	2a0003e0 	mov	w0, w0
    100e3bb0:	d2804e03 	mov	x3, #0x270                 	// #624
    100e3bb4:	9b037c00 	mul	x0, x0, x3
    100e3bb8:	b8606840 	ldr	w0, [x2, x0]
    100e3bbc:	12000400 	and	w0, w0, #0x3
    100e3bc0:	7100041f 	cmp	w0, #0x1
    100e3bc4:	54000060 	b.eq	100e3bd0 <opteed_system_reset+0x60>  // b.none
    100e3bc8:	528018a1 	mov	w1, #0xc5                  	// #197
    100e3bcc:	17fffff5 	b	100e3ba0 <opteed_system_reset+0x30>
    100e3bd0:	91008021 	add	x1, x1, #0x20
    100e3bd4:	52800000 	mov	w0, #0x0                   	// #0
    100e3bd8:	97fff63d 	bl	100e14cc <cm_set_elr_el3>
    100e3bdc:	aa1303e0 	mov	x0, x19
    100e3be0:	f9400bf3 	ldr	x19, [sp, #16]
    100e3be4:	a8c27bfd 	ldp	x29, x30, [sp], #32
    100e3be8:	17fffeab 	b	100e3694 <opteed_synchronous_sp_entry>

00000000100e3bec <opteed_system_off>:
    100e3bec:	a9be7bfd 	stp	x29, x30, [sp, #-32]!
    100e3bf0:	910003fd 	mov	x29, sp
    100e3bf4:	f9000bf3 	str	x19, [sp, #16]
    100e3bf8:	9400062c 	bl	100e54a8 <plat_my_core_pos>
    100e3bfc:	f0000041 	adrp	x1, 100ee000 <__STACKS_START__+0x3f80>
    100e3c00:	f947d021 	ldr	x1, [x1, #4000]
    100e3c04:	f0000042 	adrp	x2, 100ee000 <__STACKS_START__+0x3f80>
    100e3c08:	913ec042 	add	x2, x2, #0xfb0
    100e3c0c:	52804e13 	mov	w19, #0x270                 	// #624
    100e3c10:	9bb30813 	umaddl	x19, w0, w19, x2
    100e3c14:	b50000a1 	cbnz	x1, 100e3c28 <opteed_system_off+0x3c>
    100e3c18:	52801601 	mov	w1, #0xb0                  	// #176
    100e3c1c:	b0000020 	adrp	x0, 100e8000 <__TEXT_END__>
    100e3c20:	91241400 	add	x0, x0, #0x905
    100e3c24:	94000a10 	bl	100e6464 <__assert>
    100e3c28:	2a0003e0 	mov	w0, w0
    100e3c2c:	d2804e03 	mov	x3, #0x270                 	// #624
    100e3c30:	9b037c00 	mul	x0, x0, x3
    100e3c34:	b8606840 	ldr	w0, [x2, x0]
    100e3c38:	12000400 	and	w0, w0, #0x3
    100e3c3c:	7100041f 	cmp	w0, #0x1
    100e3c40:	54000060 	b.eq	100e3c4c <opteed_system_off+0x60>  // b.none
    100e3c44:	52801621 	mov	w1, #0xb1                  	// #177
    100e3c48:	17fffff5 	b	100e3c1c <opteed_system_off+0x30>
    100e3c4c:	91007021 	add	x1, x1, #0x1c
    100e3c50:	52800000 	mov	w0, #0x0                   	// #0
    100e3c54:	97fff61e 	bl	100e14cc <cm_set_elr_el3>
    100e3c58:	aa1303e0 	mov	x0, x19
    100e3c5c:	f9400bf3 	ldr	x19, [sp, #16]
    100e3c60:	a8c27bfd 	ldp	x29, x30, [sp], #32
    100e3c64:	17fffe8c 	b	100e3694 <opteed_synchronous_sp_entry>

00000000100e3c68 <opteed_cpu_suspend_finish_handler>:
    100e3c68:	a9bd7bfd 	stp	x29, x30, [sp, #-48]!
    100e3c6c:	910003fd 	mov	x29, sp
    100e3c70:	a90153f3 	stp	x19, x20, [sp, #16]
    100e3c74:	f0000054 	adrp	x20, 100ee000 <__STACKS_START__+0x3f80>
    100e3c78:	913ec294 	add	x20, x20, #0xfb0
    100e3c7c:	a9025bf5 	stp	x21, x22, [sp, #32]
    100e3c80:	aa0003f6 	mov	x22, x0
    100e3c84:	94000609 	bl	100e54a8 <plat_my_core_pos>
    100e3c88:	f0000041 	adrp	x1, 100ee000 <__STACKS_START__+0x3f80>
    100e3c8c:	f947d021 	ldr	x1, [x1, #4000]
    100e3c90:	52804e15 	mov	w21, #0x270                 	// #624
    100e3c94:	9bb55015 	umaddl	x21, w0, w21, x20
    100e3c98:	b50000a1 	cbnz	x1, 100e3cac <opteed_cpu_suspend_finish_handler+0x44>
    100e3c9c:	52801121 	mov	w1, #0x89                  	// #137
    100e3ca0:	b0000020 	adrp	x0, 100e8000 <__TEXT_END__>
    100e3ca4:	91241400 	add	x0, x0, #0x905
    100e3ca8:	940009ef 	bl	100e6464 <__assert>
    100e3cac:	2a0003f3 	mov	w19, w0
    100e3cb0:	d2804e00 	mov	x0, #0x270                 	// #624
    100e3cb4:	9b007e73 	mul	x19, x19, x0
    100e3cb8:	8b130282 	add	x2, x20, x19
    100e3cbc:	b8736a80 	ldr	w0, [x20, x19]
    100e3cc0:	12000400 	and	w0, w0, #0x3
    100e3cc4:	7100081f 	cmp	w0, #0x2
    100e3cc8:	54000060 	b.eq	100e3cd4 <opteed_cpu_suspend_finish_handler+0x6c>  // b.none
    100e3ccc:	52801141 	mov	w1, #0x8a                  	// #138
    100e3cd0:	17fffff4 	b	100e3ca0 <opteed_cpu_suspend_finish_handler+0x38>
    100e3cd4:	91004021 	add	x1, x1, #0x10
    100e3cd8:	f9001056 	str	x22, [x2, #32]
    100e3cdc:	52800000 	mov	w0, #0x0                   	// #0
    100e3ce0:	97fff5fb 	bl	100e14cc <cm_set_elr_el3>
    100e3ce4:	aa1503e0 	mov	x0, x21
    100e3ce8:	97fffe6b 	bl	100e3694 <opteed_synchronous_sp_entry>
    100e3cec:	340000c0 	cbz	w0, 100e3d04 <opteed_cpu_suspend_finish_handler+0x9c>
    100e3cf0:	b0000020 	adrp	x0, 100e8000 <__TEXT_END__>
    100e3cf4:	9125d000 	add	x0, x0, #0x974
    100e3cf8:	940001a0 	bl	100e4378 <backtrace>
    100e3cfc:	9400013d 	bl	100e41f0 <console_flush>
    100e3d00:	94000886 	bl	100e5f18 <do_panic>
    100e3d04:	b8736a80 	ldr	w0, [x20, x19]
    100e3d08:	a9425bf5 	ldp	x21, x22, [sp, #32]
    100e3d0c:	121e7400 	and	w0, w0, #0xfffffffc
    100e3d10:	32000000 	orr	w0, w0, #0x1
    100e3d14:	b8336a80 	str	w0, [x20, x19]
    100e3d18:	a94153f3 	ldp	x19, x20, [sp, #16]
    100e3d1c:	a8c37bfd 	ldp	x29, x30, [sp], #48
    100e3d20:	d65f03c0 	ret

00000000100e3d24 <opteed_cpu_suspend_handler>:
    100e3d24:	a9bd7bfd 	stp	x29, x30, [sp, #-48]!
    100e3d28:	910003fd 	mov	x29, sp
    100e3d2c:	a90153f3 	stp	x19, x20, [sp, #16]
    100e3d30:	f0000054 	adrp	x20, 100ee000 <__STACKS_START__+0x3f80>
    100e3d34:	913ec294 	add	x20, x20, #0xfb0
    100e3d38:	a9025bf5 	stp	x21, x22, [sp, #32]
    100e3d3c:	aa0003f6 	mov	x22, x0
    100e3d40:	940005da 	bl	100e54a8 <plat_my_core_pos>
    100e3d44:	f0000041 	adrp	x1, 100ee000 <__STACKS_START__+0x3f80>
    100e3d48:	f947d021 	ldr	x1, [x1, #4000]
    100e3d4c:	52804e15 	mov	w21, #0x270                 	// #624
    100e3d50:	9bb55015 	umaddl	x21, w0, w21, x20
    100e3d54:	b50000a1 	cbnz	x1, 100e3d68 <opteed_cpu_suspend_handler+0x44>
    100e3d58:	52800881 	mov	w1, #0x44                  	// #68
    100e3d5c:	b0000020 	adrp	x0, 100e8000 <__TEXT_END__>
    100e3d60:	91241400 	add	x0, x0, #0x905
    100e3d64:	940009c0 	bl	100e6464 <__assert>
    100e3d68:	2a0003f3 	mov	w19, w0
    100e3d6c:	d2804e00 	mov	x0, #0x270                 	// #624
    100e3d70:	9b007e73 	mul	x19, x19, x0
    100e3d74:	8b130282 	add	x2, x20, x19
    100e3d78:	b8736a80 	ldr	w0, [x20, x19]
    100e3d7c:	12000400 	and	w0, w0, #0x3
    100e3d80:	7100041f 	cmp	w0, #0x1
    100e3d84:	54000060 	b.eq	100e3d90 <opteed_cpu_suspend_handler+0x6c>  // b.none
    100e3d88:	528008a1 	mov	w1, #0x45                  	// #69
    100e3d8c:	17fffff4 	b	100e3d5c <opteed_cpu_suspend_handler+0x38>
    100e3d90:	91005021 	add	x1, x1, #0x14
    100e3d94:	f9001056 	str	x22, [x2, #32]
    100e3d98:	52800000 	mov	w0, #0x0                   	// #0
    100e3d9c:	97fff5cc 	bl	100e14cc <cm_set_elr_el3>
    100e3da0:	aa1503e0 	mov	x0, x21
    100e3da4:	97fffe3c 	bl	100e3694 <opteed_synchronous_sp_entry>
    100e3da8:	340000c0 	cbz	w0, 100e3dc0 <opteed_cpu_suspend_handler+0x9c>
    100e3dac:	b0000020 	adrp	x0, 100e8000 <__TEXT_END__>
    100e3db0:	9124f000 	add	x0, x0, #0x93c
    100e3db4:	94000171 	bl	100e4378 <backtrace>
    100e3db8:	9400010e 	bl	100e41f0 <console_flush>
    100e3dbc:	94000857 	bl	100e5f18 <do_panic>
    100e3dc0:	b8736a80 	ldr	w0, [x20, x19]
    100e3dc4:	a9425bf5 	ldp	x21, x22, [sp, #32]
    100e3dc8:	121e7400 	and	w0, w0, #0xfffffffc
    100e3dcc:	321f0000 	orr	w0, w0, #0x2
    100e3dd0:	b8336a80 	str	w0, [x20, x19]
    100e3dd4:	a94153f3 	ldp	x19, x20, [sp, #16]
    100e3dd8:	a8c37bfd 	ldp	x29, x30, [sp], #48
    100e3ddc:	d65f03c0 	ret

00000000100e3de0 <opteed_cpu_off_handler>:
    100e3de0:	a9bd7bfd 	stp	x29, x30, [sp, #-48]!
    100e3de4:	910003fd 	mov	x29, sp
    100e3de8:	a90153f3 	stp	x19, x20, [sp, #16]
    100e3dec:	f0000054 	adrp	x20, 100ee000 <__STACKS_START__+0x3f80>
    100e3df0:	913ec294 	add	x20, x20, #0xfb0
    100e3df4:	f90013f5 	str	x21, [sp, #32]
    100e3df8:	940005ac 	bl	100e54a8 <plat_my_core_pos>
    100e3dfc:	f0000041 	adrp	x1, 100ee000 <__STACKS_START__+0x3f80>
    100e3e00:	f947d021 	ldr	x1, [x1, #4000]
    100e3e04:	52804e15 	mov	w21, #0x270                 	// #624
    100e3e08:	9bb55015 	umaddl	x21, w0, w21, x20
    100e3e0c:	b50000a1 	cbnz	x1, 100e3e20 <opteed_cpu_off_handler+0x40>
    100e3e10:	52800461 	mov	w1, #0x23                  	// #35
    100e3e14:	b0000020 	adrp	x0, 100e8000 <__TEXT_END__>
    100e3e18:	91241400 	add	x0, x0, #0x905
    100e3e1c:	94000992 	bl	100e6464 <__assert>
    100e3e20:	2a0003e0 	mov	w0, w0
    100e3e24:	d2804e13 	mov	x19, #0x270                 	// #624
    100e3e28:	9b137c13 	mul	x19, x0, x19
    100e3e2c:	b8736a80 	ldr	w0, [x20, x19]
    100e3e30:	12000400 	and	w0, w0, #0x3
    100e3e34:	7100041f 	cmp	w0, #0x1
    100e3e38:	54000060 	b.eq	100e3e44 <opteed_cpu_off_handler+0x64>  // b.none
    100e3e3c:	52800481 	mov	w1, #0x24                  	// #36
    100e3e40:	17fffff5 	b	100e3e14 <opteed_cpu_off_handler+0x34>
    100e3e44:	91003021 	add	x1, x1, #0xc
    100e3e48:	52800000 	mov	w0, #0x0                   	// #0
    100e3e4c:	97fff5a0 	bl	100e14cc <cm_set_elr_el3>
    100e3e50:	aa1503e0 	mov	x0, x21
    100e3e54:	97fffe10 	bl	100e3694 <opteed_synchronous_sp_entry>
    100e3e58:	340000c0 	cbz	w0, 100e3e70 <opteed_cpu_off_handler+0x90>
    100e3e5c:	b0000020 	adrp	x0, 100e8000 <__TEXT_END__>
    100e3e60:	91249400 	add	x0, x0, #0x925
    100e3e64:	94000145 	bl	100e4378 <backtrace>
    100e3e68:	940000e2 	bl	100e41f0 <console_flush>
    100e3e6c:	9400082b 	bl	100e5f18 <do_panic>
    100e3e70:	b8736a80 	ldr	w0, [x20, x19]
    100e3e74:	f94013f5 	ldr	x21, [sp, #32]
    100e3e78:	121e7400 	and	w0, w0, #0xfffffffc
    100e3e7c:	b8336a80 	str	w0, [x20, x19]
    100e3e80:	52800000 	mov	w0, #0x0                   	// #0
    100e3e84:	a94153f3 	ldp	x19, x20, [sp, #16]
    100e3e88:	a8c37bfd 	ldp	x29, x30, [sp], #48
    100e3e8c:	d65f03c0 	ret

00000000100e3e90 <opteed_cpu_on_finish_handler>:
    100e3e90:	a9b77bfd 	stp	x29, x30, [sp, #-144]!
    100e3e94:	910003fd 	mov	x29, sp
    100e3e98:	a90153f3 	stp	x19, x20, [sp, #16]
    100e3e9c:	f0000054 	adrp	x20, 100ee000 <__STACKS_START__+0x3f80>
    100e3ea0:	913ec294 	add	x20, x20, #0xfb0
    100e3ea4:	f90013f5 	str	x21, [sp, #32]
    100e3ea8:	94000580 	bl	100e54a8 <plat_my_core_pos>
    100e3eac:	f0000041 	adrp	x1, 100ee000 <__STACKS_START__+0x3f80>
    100e3eb0:	f947d022 	ldr	x2, [x1, #4000]
    100e3eb4:	52804e15 	mov	w21, #0x270                 	// #624
    100e3eb8:	9bb55015 	umaddl	x21, w0, w21, x20
    100e3ebc:	b50000a2 	cbnz	x2, 100e3ed0 <opteed_cpu_on_finish_handler+0x40>
    100e3ec0:	52800cc1 	mov	w1, #0x66                  	// #102
    100e3ec4:	b0000020 	adrp	x0, 100e8000 <__TEXT_END__>
    100e3ec8:	91241400 	add	x0, x0, #0x905
    100e3ecc:	94000966 	bl	100e6464 <__assert>
    100e3ed0:	2a0003e0 	mov	w0, w0
    100e3ed4:	d2804e13 	mov	x19, #0x270                 	// #624
    100e3ed8:	9b137c13 	mul	x19, x0, x19
    100e3edc:	b8736a80 	ldr	w0, [x20, x19]
    100e3ee0:	f240041f 	tst	x0, #0x3
    100e3ee4:	54000060 	b.eq	100e3ef0 <opteed_cpu_on_finish_handler+0x60>  // b.none
    100e3ee8:	52800ce1 	mov	w1, #0x67                  	// #103
    100e3eec:	17fffff6 	b	100e3ec4 <opteed_cpu_on_finish_handler+0x34>
    100e3ef0:	f0000040 	adrp	x0, 100ee000 <__STACKS_START__+0x3f80>
    100e3ef4:	b94fa801 	ldr	w1, [x0, #4008]
    100e3ef8:	aa1503e6 	mov	x6, x21
    100e3efc:	91002042 	add	x2, x2, #0x8
    100e3f00:	d2800005 	mov	x5, #0x0                   	// #0
    100e3f04:	d2800004 	mov	x4, #0x0                   	// #0
    100e3f08:	d2800003 	mov	x3, #0x0                   	// #0
    100e3f0c:	9100e3e0 	add	x0, sp, #0x38
    100e3f10:	97fffdad 	bl	100e35c4 <opteed_init_optee_ep_state>
    100e3f14:	9100e3e0 	add	x0, sp, #0x38
    100e3f18:	97fff51a 	bl	100e1380 <cm_init_my_context>
    100e3f1c:	aa1503e0 	mov	x0, x21
    100e3f20:	97fffddd 	bl	100e3694 <opteed_synchronous_sp_entry>
    100e3f24:	340000c0 	cbz	w0, 100e3f3c <opteed_cpu_on_finish_handler+0xac>
    100e3f28:	b0000020 	adrp	x0, 100e8000 <__TEXT_END__>
    100e3f2c:	91255c00 	add	x0, x0, #0x957
    100e3f30:	94000112 	bl	100e4378 <backtrace>
    100e3f34:	940000af 	bl	100e41f0 <console_flush>
    100e3f38:	940007f8 	bl	100e5f18 <do_panic>
    100e3f3c:	b8736a80 	ldr	w0, [x20, x19]
    100e3f40:	f94013f5 	ldr	x21, [sp, #32]
    100e3f44:	121e7400 	and	w0, w0, #0xfffffffc
    100e3f48:	32000000 	orr	w0, w0, #0x1
    100e3f4c:	b8336a80 	str	w0, [x20, x19]
    100e3f50:	a94153f3 	ldp	x19, x20, [sp, #16]
    100e3f54:	a8c97bfd 	ldp	x29, x30, [sp], #144
    100e3f58:	d65f03c0 	ret

00000000100e3f5c <print_entry_point_info>:
    100e3f5c:	a9be7bfd 	stp	x29, x30, [sp, #-32]!
    100e3f60:	910003fd 	mov	x29, sp
    100e3f64:	f9000bf3 	str	x19, [sp, #16]
    100e3f68:	aa0003f3 	mov	x19, x0
    100e3f6c:	b0000020 	adrp	x0, 100e8000 <__TEXT_END__>
    100e3f70:	91278000 	add	x0, x0, #0x9e0
    100e3f74:	f9400661 	ldr	x1, [x19, #8]
    100e3f78:	94000007 	bl	100e3f94 <tf_log>
    100e3f7c:	b9401261 	ldr	w1, [x19, #16]
    100e3f80:	b0000020 	adrp	x0, 100e8000 <__TEXT_END__>
    100e3f84:	9127f800 	add	x0, x0, #0x9fe
    100e3f88:	f9400bf3 	ldr	x19, [sp, #16]
    100e3f8c:	a8c27bfd 	ldp	x29, x30, [sp], #32
    100e3f90:	14000001 	b	100e3f94 <tf_log>

00000000100e3f94 <tf_log>:
    100e3f94:	a9b67bfd 	stp	x29, x30, [sp, #-160]!
    100e3f98:	910003fd 	mov	x29, sp
    100e3f9c:	a90153f3 	stp	x19, x20, [sp, #16]
    100e3fa0:	aa0003f4 	mov	x20, x0
    100e3fa4:	a9068be1 	stp	x1, x2, [sp, #104]
    100e3fa8:	a90793e3 	stp	x3, x4, [sp, #120]
    100e3fac:	a9089be5 	stp	x5, x6, [sp, #136]
    100e3fb0:	f9004fe7 	str	x7, [sp, #152]
    100e3fb4:	39400000 	ldrb	w0, [x0]
    100e3fb8:	51000401 	sub	w1, w0, #0x1
    100e3fbc:	7100c43f 	cmp	w1, #0x31
    100e3fc0:	540000a9 	b.ls	100e3fd4 <tf_log+0x40>  // b.plast
    100e3fc4:	52800441 	mov	w1, #0x22                  	// #34
    100e3fc8:	b0000020 	adrp	x0, 100e8000 <__TEXT_END__>
    100e3fcc:	91283000 	add	x0, x0, #0xa0c
    100e3fd0:	94000925 	bl	100e6464 <__assert>
    100e3fd4:	52800142 	mov	w2, #0xa                   	// #10
    100e3fd8:	1ac20801 	udiv	w1, w0, w2
    100e3fdc:	1b028021 	msub	w1, w1, w2, w0
    100e3fe0:	34000061 	cbz	w1, 100e3fec <tf_log+0x58>
    100e3fe4:	52800461 	mov	w1, #0x23                  	// #35
    100e3fe8:	17fffff8 	b	100e3fc8 <tf_log+0x34>
    100e3fec:	f0000021 	adrp	x1, 100ea000 <__RODATA_END__>
    100e3ff0:	b9400821 	ldr	w1, [x1, #8]
    100e3ff4:	6b00003f 	cmp	w1, w0
    100e3ff8:	54000263 	b.cc	100e4044 <tf_log+0xb0>  // b.lo, b.ul, b.last
    100e3ffc:	94000099 	bl	100e4260 <plat_log_get_prefix>
    100e4000:	aa0003f3 	mov	x19, x0
    100e4004:	39400260 	ldrb	w0, [x19]
    100e4008:	35000240 	cbnz	w0, 100e4050 <tf_log+0xbc>
    100e400c:	910283e0 	add	x0, sp, #0xa0
    100e4010:	a90403e0 	stp	x0, x0, [sp, #64]
    100e4014:	910183e0 	add	x0, sp, #0x60
    100e4018:	f9002be0 	str	x0, [sp, #80]
    100e401c:	128006e0 	mov	w0, #0xffffffc8            	// #-56
    100e4020:	b9005be0 	str	w0, [sp, #88]
    100e4024:	b9005fff 	str	wzr, [sp, #92]
    100e4028:	a94407e0 	ldp	x0, x1, [sp, #64]
    100e402c:	a90207e0 	stp	x0, x1, [sp, #32]
    100e4030:	a94507e0 	ldp	x0, x1, [sp, #80]
    100e4034:	a90307e0 	stp	x0, x1, [sp, #48]
    100e4038:	910083e1 	add	x1, sp, #0x20
    100e403c:	91000680 	add	x0, x20, #0x1
    100e4040:	94000965 	bl	100e65d4 <vprintf>
    100e4044:	a94153f3 	ldp	x19, x20, [sp, #16]
    100e4048:	a8ca7bfd 	ldp	x29, x30, [sp], #160
    100e404c:	d65f03c0 	ret
    100e4050:	91000673 	add	x19, x19, #0x1
    100e4054:	94000a75 	bl	100e6a28 <putchar>
    100e4058:	17ffffeb 	b	100e4004 <tf_log+0x70>

00000000100e405c <console_is_registered>:
    100e405c:	b50000e0 	cbnz	x0, 100e4078 <console_is_registered+0x1c>
    100e4060:	a9bf7bfd 	stp	x29, x30, [sp, #-16]!
    100e4064:	90000020 	adrp	x0, 100e8000 <__TEXT_END__>
    100e4068:	91287000 	add	x0, x0, #0xa1c
    100e406c:	910003fd 	mov	x29, sp
    100e4070:	52800681 	mov	w1, #0x34                  	// #52
    100e4074:	940008fc 	bl	100e6464 <__assert>
    100e4078:	f0000041 	adrp	x1, 100ef000 <opteed_sp_context+0x50>
    100e407c:	f944b821 	ldr	x1, [x1, #2416]
    100e4080:	b5000061 	cbnz	x1, 100e408c <console_is_registered+0x30>
    100e4084:	52800000 	mov	w0, #0x0                   	// #0
    100e4088:	d65f03c0 	ret
    100e408c:	eb00003f 	cmp	x1, x0
    100e4090:	54000060 	b.eq	100e409c <console_is_registered+0x40>  // b.none
    100e4094:	f9400021 	ldr	x1, [x1]
    100e4098:	17fffffa 	b	100e4080 <console_is_registered+0x24>
    100e409c:	52800020 	mov	w0, #0x1                   	// #1
    100e40a0:	d65f03c0 	ret

00000000100e40a4 <console_register>:
    100e40a4:	a9be7bfd 	stp	x29, x30, [sp, #-32]!
    100e40a8:	910003fd 	mov	x29, sp
    100e40ac:	f9000bf3 	str	x19, [sp, #16]
    100e40b0:	aa0003f3 	mov	x19, x0
    100e40b4:	d0000020 	adrp	x0, 100ea000 <__RODATA_END__>
    100e40b8:	91020000 	add	x0, x0, #0x80
    100e40bc:	eb00027f 	cmp	x19, x0
    100e40c0:	54000123 	b.cc	100e40e4 <console_register+0x40>  // b.lo, b.ul, b.last
    100e40c4:	d0000040 	adrp	x0, 100ee000 <__STACKS_START__+0x3f80>
    100e40c8:	91020000 	add	x0, x0, #0x80
    100e40cc:	eb00027f 	cmp	x19, x0
    100e40d0:	540000a2 	b.cs	100e40e4 <console_register+0x40>  // b.hs, b.nlast
    100e40d4:	90000020 	adrp	x0, 100e8000 <__TEXT_END__>
    100e40d8:	91287000 	add	x0, x0, #0xa1c
    100e40dc:	52800281 	mov	w1, #0x14                  	// #20
    100e40e0:	940008e1 	bl	100e6464 <__assert>
    100e40e4:	aa1303e0 	mov	x0, x19
    100e40e8:	97ffffdd 	bl	100e405c <console_is_registered>
    100e40ec:	7100041f 	cmp	w0, #0x1
    100e40f0:	540000a0 	b.eq	100e4104 <console_register+0x60>  // b.none
    100e40f4:	f0000040 	adrp	x0, 100ef000 <opteed_sp_context+0x50>
    100e40f8:	f944b801 	ldr	x1, [x0, #2416]
    100e40fc:	f9000261 	str	x1, [x19]
    100e4100:	f904b813 	str	x19, [x0, #2416]
    100e4104:	52800020 	mov	w0, #0x1                   	// #1
    100e4108:	f9400bf3 	ldr	x19, [sp, #16]
    100e410c:	a8c27bfd 	ldp	x29, x30, [sp], #32
    100e4110:	d65f03c0 	ret

00000000100e4114 <console_switch_state>:
    100e4114:	d0000021 	adrp	x1, 100ea000 <__RODATA_END__>
    100e4118:	39003020 	strb	w0, [x1, #12]
    100e411c:	d65f03c0 	ret

00000000100e4120 <console_set_scope>:
    100e4120:	b50000e0 	cbnz	x0, 100e413c <console_set_scope+0x1c>
    100e4124:	a9bf7bfd 	stp	x29, x30, [sp, #-16]!
    100e4128:	90000020 	adrp	x0, 100e8000 <__TEXT_END__>
    100e412c:	91287000 	add	x0, x0, #0xa1c
    100e4130:	910003fd 	mov	x29, sp
    100e4134:	52800881 	mov	w1, #0x44                  	// #68
    100e4138:	940008cb 	bl	100e6464 <__assert>
    100e413c:	f9400402 	ldr	x2, [x0, #8]
    100e4140:	2a0103e1 	mov	w1, w1
    100e4144:	92785c42 	and	x2, x2, #0xffffff00
    100e4148:	aa010041 	orr	x1, x2, x1
    100e414c:	f9000401 	str	x1, [x0, #8]
    100e4150:	d65f03c0 	ret

00000000100e4154 <console_putc>:
    100e4154:	a9bd7bfd 	stp	x29, x30, [sp, #-48]!
    100e4158:	910003fd 	mov	x29, sp
    100e415c:	a90153f3 	stp	x19, x20, [sp, #16]
    100e4160:	12800ff4 	mov	w20, #0xffffff80            	// #-128
    100e4164:	a9025bf5 	stp	x21, x22, [sp, #32]
    100e4168:	2a0003f5 	mov	w21, w0
    100e416c:	f0000040 	adrp	x0, 100ef000 <opteed_sp_context+0x50>
    100e4170:	f944b813 	ldr	x19, [x0, #2416]
    100e4174:	d0000036 	adrp	x22, 100ea000 <__RODATA_END__>
    100e4178:	910032d6 	add	x22, x22, #0xc
    100e417c:	b50000d3 	cbnz	x19, 100e4194 <console_putc+0x40>
    100e4180:	2a1403e0 	mov	w0, w20
    100e4184:	a94153f3 	ldp	x19, x20, [sp, #16]
    100e4188:	a9425bf5 	ldp	x21, x22, [sp, #32]
    100e418c:	a8c37bfd 	ldp	x29, x30, [sp], #48
    100e4190:	d65f03c0 	ret
    100e4194:	f9400660 	ldr	x0, [x19, #8]
    100e4198:	394002c1 	ldrb	w1, [x22]
    100e419c:	ea00003f 	tst	x1, x0
    100e41a0:	54000180 	b.eq	100e41d0 <console_putc+0x7c>  // b.none
    100e41a4:	f9400a62 	ldr	x2, [x19, #16]
    100e41a8:	b4000142 	cbz	x2, 100e41d0 <console_putc+0x7c>
    100e41ac:	71002abf 	cmp	w21, #0xa
    100e41b0:	54000140 	b.eq	100e41d8 <console_putc+0x84>  // b.none
    100e41b4:	f9400a62 	ldr	x2, [x19, #16]
    100e41b8:	aa1303e1 	mov	x1, x19
    100e41bc:	2a1503e0 	mov	w0, w21
    100e41c0:	d63f0040 	blr	x2
    100e41c4:	3102029f 	cmn	w20, #0x80
    100e41c8:	7a401280 	ccmp	w20, w0, #0x0, ne  // ne = any
    100e41cc:	1a80d294 	csel	w20, w20, w0, le
    100e41d0:	f9400273 	ldr	x19, [x19]
    100e41d4:	17ffffea 	b	100e417c <console_putc+0x28>
    100e41d8:	3647fee0 	tbz	w0, #8, 100e41b4 <console_putc+0x60>
    100e41dc:	aa1303e1 	mov	x1, x19
    100e41e0:	528001a0 	mov	w0, #0xd                   	// #13
    100e41e4:	d63f0040 	blr	x2
    100e41e8:	36fffe60 	tbz	w0, #31, 100e41b4 <console_putc+0x60>
    100e41ec:	17fffff6 	b	100e41c4 <console_putc+0x70>

00000000100e41f0 <console_flush>:
    100e41f0:	a9bd7bfd 	stp	x29, x30, [sp, #-48]!
    100e41f4:	910003fd 	mov	x29, sp
    100e41f8:	a90153f3 	stp	x19, x20, [sp, #16]
    100e41fc:	f0000040 	adrp	x0, 100ef000 <opteed_sp_context+0x50>
    100e4200:	f944b813 	ldr	x19, [x0, #2416]
    100e4204:	f90013f5 	str	x21, [sp, #32]
    100e4208:	d0000035 	adrp	x21, 100ea000 <__RODATA_END__>
    100e420c:	910032b5 	add	x21, x21, #0xc
    100e4210:	12800ff4 	mov	w20, #0xffffff80            	// #-128
    100e4214:	b50000d3 	cbnz	x19, 100e422c <console_flush+0x3c>
    100e4218:	2a1403e0 	mov	w0, w20
    100e421c:	a94153f3 	ldp	x19, x20, [sp, #16]
    100e4220:	f94013f5 	ldr	x21, [sp, #32]
    100e4224:	a8c37bfd 	ldp	x29, x30, [sp], #48
    100e4228:	d65f03c0 	ret
    100e422c:	f9400660 	ldr	x0, [x19, #8]
    100e4230:	394002a1 	ldrb	w1, [x21]
    100e4234:	ea00003f 	tst	x1, x0
    100e4238:	54000100 	b.eq	100e4258 <console_flush+0x68>  // b.none
    100e423c:	f9401261 	ldr	x1, [x19, #32]
    100e4240:	b40000c1 	cbz	x1, 100e4258 <console_flush+0x68>
    100e4244:	aa1303e0 	mov	x0, x19
    100e4248:	d63f0020 	blr	x1
    100e424c:	3102029f 	cmn	w20, #0x80
    100e4250:	7a401280 	ccmp	w20, w0, #0x0, ne  // ne = any
    100e4254:	1a80d294 	csel	w20, w20, w0, le
    100e4258:	f9400273 	ldr	x19, [x19]
    100e425c:	17ffffee 	b	100e4214 <console_flush+0x24>

00000000100e4260 <plat_log_get_prefix>:
    100e4260:	7100c81f 	cmp	w0, #0x32
    100e4264:	52800641 	mov	w1, #0x32                  	// #50
    100e4268:	1a819000 	csel	w0, w0, w1, ls  // ls = plast
    100e426c:	52800141 	mov	w1, #0xa                   	// #10
    100e4270:	6b01001f 	cmp	w0, w1
    100e4274:	1a812000 	csel	w0, w0, w1, cs  // cs = hs, nlast
    100e4278:	1ac10800 	udiv	w0, w0, w1
    100e427c:	90000021 	adrp	x1, 100e8000 <__TEXT_END__>
    100e4280:	9129c021 	add	x1, x1, #0xa70
    100e4284:	51000400 	sub	w0, w0, #0x1
    100e4288:	f8607820 	ldr	x0, [x1, x0, lsl #3]
    100e428c:	d65f03c0 	ret

00000000100e4290 <bl31_plat_runtime_setup>:
    100e4290:	52800040 	mov	w0, #0x2                   	// #2
    100e4294:	17ffffa0 	b	100e4114 <console_switch_state>

00000000100e4298 <plat_ea_handler>:
    100e4298:	a9be7bfd 	stp	x29, x30, [sp, #-32]!
    100e429c:	910003fd 	mov	x29, sp
    100e42a0:	a90153f3 	stp	x19, x20, [sp, #16]
    100e42a4:	2a0003f3 	mov	w19, w0
    100e42a8:	aa0103f4 	mov	x20, x1
    100e42ac:	d53800a1 	mrs	x1, mpidr_el1
    100e42b0:	90000020 	adrp	x0, 100e8000 <__TEXT_END__>
    100e42b4:	912a6000 	add	x0, x0, #0xa98
    100e42b8:	97ffff37 	bl	100e3f94 <tf_log>
    100e42bc:	aa1403e2 	mov	x2, x20
    100e42c0:	2a1303e1 	mov	w1, w19
    100e42c4:	90000020 	adrp	x0, 100e8000 <__TEXT_END__>
    100e42c8:	912b3400 	add	x0, x0, #0xacd
    100e42cc:	97ffff32 	bl	100e3f94 <tf_log>
    100e42d0:	90000020 	adrp	x0, 100e8000 <__TEXT_END__>
    100e42d4:	912bd000 	add	x0, x0, #0xaf4
    100e42d8:	94000028 	bl	100e4378 <backtrace>
    100e42dc:	97ffffc5 	bl	100e41f0 <console_flush>
    100e42e0:	9400070e 	bl	100e5f18 <do_panic>

00000000100e42e4 <is_address_readable>:
    100e42e4:	d5384241 	mrs	x1, currentel
    100e42e8:	53020c21 	ubfx	w1, w1, #2, #2
    100e42ec:	71000c3f 	cmp	w1, #0x3
    100e42f0:	540000e1 	b.ne	100e430c <is_address_readable+0x28>  // b.any
    100e42f4:	d50e7800 	at	s1e3r, x0
    100e42f8:	d5033fdf 	isb
    100e42fc:	d5387400 	mrs	x0, par_el1
    100e4300:	aa2003e0 	mvn	x0, x0
    100e4304:	12000000 	and	w0, w0, #0x1
    100e4308:	d65f03c0 	ret
    100e430c:	7100083f 	cmp	w1, #0x2
    100e4310:	54000061 	b.ne	100e431c <is_address_readable+0x38>  // b.any
    100e4314:	d50c7800 	at	s1e2r, x0
    100e4318:	17fffff8 	b	100e42f8 <is_address_readable+0x14>
    100e431c:	d5087800 	at	s1e1r, x0
    100e4320:	17fffff6 	b	100e42f8 <is_address_readable+0x14>

00000000100e4324 <is_valid_object.constprop.0>:
    100e4324:	aa0003e2 	mov	x2, x0
    100e4328:	d1000400 	sub	x0, x0, #0x1
    100e432c:	b100481f 	cmn	x0, #0x12
    100e4330:	54000208 	b.hi	100e4370 <is_valid_object.constprop.0+0x4c>  // b.pmore
    100e4334:	f2400843 	ands	x3, x2, #0x7
    100e4338:	540001c1 	b.ne	100e4370 <is_valid_object.constprop.0+0x4c>  // b.any
    100e433c:	a9bf7bfd 	stp	x29, x30, [sp, #-16]!
    100e4340:	910003fd 	mov	x29, sp
    100e4344:	8b030040 	add	x0, x2, x3
    100e4348:	97ffffe7 	bl	100e42e4 <is_address_readable>
    100e434c:	72001c00 	ands	w0, w0, #0xff
    100e4350:	540000c0 	b.eq	100e4368 <is_valid_object.constprop.0+0x44>  // b.none
    100e4354:	91000463 	add	x3, x3, #0x1
    100e4358:	f100407f 	cmp	x3, #0x10
    100e435c:	54ffff41 	b.ne	100e4344 <is_valid_object.constprop.0+0x20>  // b.any
    100e4360:	a8c17bfd 	ldp	x29, x30, [sp], #16
    100e4364:	d65f03c0 	ret
    100e4368:	52800000 	mov	w0, #0x0                   	// #0
    100e436c:	17fffffd 	b	100e4360 <is_valid_object.constprop.0+0x3c>
    100e4370:	52800000 	mov	w0, #0x0                   	// #0
    100e4374:	d65f03c0 	ret

00000000100e4378 <backtrace>:
    100e4378:	a9bc7bfd 	stp	x29, x30, [sp, #-64]!
    100e437c:	910003fd 	mov	x29, sp
    100e4380:	a90153f3 	stp	x19, x20, [sp, #16]
    100e4384:	aa1d03f4 	mov	x20, x29
    100e4388:	a9025bf5 	stp	x21, x22, [sp, #32]
    100e438c:	aa1e03f6 	mov	x22, x30
    100e4390:	aa0003f5 	mov	x21, x0
    100e4394:	f9001bf7 	str	x23, [sp, #48]
    100e4398:	97ffff96 	bl	100e41f0 <console_flush>
    100e439c:	aa1503e1 	mov	x1, x21
    100e43a0:	90000020 	adrp	x0, 100e8000 <__TEXT_END__>
    100e43a4:	912c4800 	add	x0, x0, #0xb12
    100e43a8:	9400098b 	bl	100e69d4 <printf>
    100e43ac:	d5384240 	mrs	x0, currentel
    100e43b0:	53020c00 	ubfx	w0, w0, #2, #2
    100e43b4:	71000c1f 	cmp	w0, #0x3
    100e43b8:	540002e0 	b.eq	100e4414 <backtrace+0x9c>  // b.none
    100e43bc:	90000033 	adrp	x19, 100e8000 <__TEXT_END__>
    100e43c0:	7100081f 	cmp	w0, #0x2
    100e43c4:	90000021 	adrp	x1, 100e8000 <__TEXT_END__>
    100e43c8:	912c3260 	add	x0, x19, #0xb0c
    100e43cc:	912c2033 	add	x19, x1, #0xb08
    100e43d0:	9a800273 	csel	x19, x19, x0, eq  // eq = none
    100e43d4:	aa1403e0 	mov	x0, x20
    100e43d8:	97ffffd3 	bl	100e4324 <is_valid_object.constprop.0>
    100e43dc:	72001c1f 	tst	w0, #0xff
    100e43e0:	54000201 	b.ne	100e4420 <backtrace+0xa8>  // b.any
    100e43e4:	90000020 	adrp	x0, 100e8000 <__TEXT_END__>
    100e43e8:	912ca000 	add	x0, x0, #0xb28
    100e43ec:	aa1403e1 	mov	x1, x20
    100e43f0:	94000979 	bl	100e69d4 <printf>
    100e43f4:	aa1503e1 	mov	x1, x21
    100e43f8:	90000020 	adrp	x0, 100e8000 <__TEXT_END__>
    100e43fc:	912f2c00 	add	x0, x0, #0xbcb
    100e4400:	a94153f3 	ldp	x19, x20, [sp, #16]
    100e4404:	a9425bf5 	ldp	x21, x22, [sp, #32]
    100e4408:	f9401bf7 	ldr	x23, [sp, #48]
    100e440c:	a8c47bfd 	ldp	x29, x30, [sp], #64
    100e4410:	14000971 	b	100e69d4 <printf>
    100e4414:	90000033 	adrp	x19, 100e8000 <__TEXT_END__>
    100e4418:	912c1273 	add	x19, x19, #0xb04
    100e441c:	17ffffee 	b	100e43d4 <backtrace+0x5c>
    100e4420:	f9400680 	ldr	x0, [x20, #8]
    100e4424:	eb0002df 	cmp	x22, x0
    100e4428:	540000a0 	b.eq	100e443c <backtrace+0xc4>  // b.none
    100e442c:	90000020 	adrp	x0, 100e8000 <__TEXT_END__>
    100e4430:	912d9000 	add	x0, x0, #0xb64
    100e4434:	aa1403e1 	mov	x1, x20
    100e4438:	17ffffee 	b	100e43f0 <backtrace+0x78>
    100e443c:	52800036 	mov	w22, #0x1                   	// #1
    100e4440:	90000037 	adrp	x23, 100e8000 <__TEXT_END__>
    100e4444:	912e62f7 	add	x23, x23, #0xb98
    100e4448:	aa1303e2 	mov	x2, x19
    100e444c:	aa1703e0 	mov	x0, x23
    100e4450:	90000003 	adrp	x3, 100e4000 <tf_log+0x6c>
    100e4454:	910de063 	add	x3, x3, #0x378
    100e4458:	52800001 	mov	w1, #0x0                   	// #0
    100e445c:	9400095e 	bl	100e69d4 <printf>
    100e4460:	aa1403e0 	mov	x0, x20
    100e4464:	97ffffb0 	bl	100e4324 <is_valid_object.constprop.0>
    100e4468:	72001c1f 	tst	w0, #0xff
    100e446c:	54fffc40 	b.eq	100e43f4 <backtrace+0x7c>  // b.none
    100e4470:	f9400683 	ldr	x3, [x20, #8]
    100e4474:	f1001063 	subs	x3, x3, #0x4
    100e4478:	54fffbe0 	b.eq	100e43f4 <backtrace+0x7c>  // b.none
    100e447c:	f240047f 	tst	x3, #0x3
    100e4480:	54fffba1 	b.ne	100e43f4 <backtrace+0x7c>  // b.any
    100e4484:	aa0303e0 	mov	x0, x3
    100e4488:	97ffff97 	bl	100e42e4 <is_address_readable>
    100e448c:	72001c1f 	tst	w0, #0xff
    100e4490:	54fffb20 	b.eq	100e43f4 <backtrace+0x7c>  // b.none
    100e4494:	2a1603e1 	mov	w1, w22
    100e4498:	aa1303e2 	mov	x2, x19
    100e449c:	aa1703e0 	mov	x0, x23
    100e44a0:	110006d6 	add	w22, w22, #0x1
    100e44a4:	9400094c 	bl	100e69d4 <printf>
    100e44a8:	710052df 	cmp	w22, #0x14
    100e44ac:	f9400294 	ldr	x20, [x20]
    100e44b0:	54fffd81 	b.ne	100e4460 <backtrace+0xe8>  // b.any
    100e44b4:	90000020 	adrp	x0, 100e8000 <__TEXT_END__>
    100e44b8:	912e9c00 	add	x0, x0, #0xba7
    100e44bc:	94000946 	bl	100e69d4 <printf>
    100e44c0:	17ffffcd 	b	100e43f4 <backtrace+0x7c>

00000000100e44c4 <rpi3_console_init>:
    100e44c4:	a9be7bfd 	stp	x29, x30, [sp, #-32]!
    100e44c8:	2a0003e1 	mov	w1, w0
    100e44cc:	52984002 	mov	w2, #0xc200                	// #49664
    100e44d0:	72a00022 	movk	w2, #0x1, lsl #16
    100e44d4:	910003fd 	mov	x29, sp
    100e44d8:	d28a0800 	mov	x0, #0x5040                	// #20544
    100e44dc:	f2a7e420 	movk	x0, #0x3f21, lsl #16
    100e44e0:	f9000bf3 	str	x19, [sp, #16]
    100e44e4:	d0000053 	adrp	x19, 100ee000 <__STACKS_START__+0x3f80>
    100e44e8:	912b4273 	add	x19, x19, #0xad0
    100e44ec:	aa1303e3 	mov	x3, x19
    100e44f0:	9400076e 	bl	100e62a8 <console_16550_register>
    100e44f4:	350000c0 	cbnz	w0, 100e450c <rpi3_console_init+0x48>
    100e44f8:	90000020 	adrp	x0, 100e8000 <__TEXT_END__>
    100e44fc:	91307800 	add	x0, x0, #0xc1e
    100e4500:	97ffff9e 	bl	100e4378 <backtrace>
    100e4504:	97ffff3b 	bl	100e41f0 <console_flush>
    100e4508:	94000684 	bl	100e5f18 <do_panic>
    100e450c:	aa1303e0 	mov	x0, x19
    100e4510:	52800021 	mov	w1, #0x1                   	// #1
    100e4514:	f9400bf3 	ldr	x19, [sp, #16]
    100e4518:	a8c27bfd 	ldp	x29, x30, [sp], #32
    100e451c:	17ffff01 	b	100e4120 <console_set_scope>

00000000100e4520 <rpi3_setup_page_tables>:
    100e4520:	a9bc7bfd 	stp	x29, x30, [sp, #-64]!
    100e4524:	910003fd 	mov	x29, sp
    100e4528:	a90153f3 	stp	x19, x20, [sp, #16]
    100e452c:	aa0403f4 	mov	x20, x4
    100e4530:	aa0603f3 	mov	x19, x6
    100e4534:	a9025bf5 	stp	x21, x22, [sp, #32]
    100e4538:	aa0703f6 	mov	x22, x7
    100e453c:	aa0203f5 	mov	x21, x2
    100e4540:	aa0103e2 	mov	x2, x1
    100e4544:	aa0003e1 	mov	x1, x0
    100e4548:	a90363f7 	stp	x23, x24, [sp, #48]
    100e454c:	aa0503f7 	mov	x23, x5
    100e4550:	aa0303f8 	mov	x24, x3
    100e4554:	52800143 	mov	w3, #0xa                   	// #10
    100e4558:	940000f2 	bl	100e4920 <mmap_add_region>
    100e455c:	cb150302 	sub	x2, x24, x21
    100e4560:	aa1503e1 	mov	x1, x21
    100e4564:	aa1503e0 	mov	x0, x21
    100e4568:	52800043 	mov	w3, #0x2                   	// #2
    100e456c:	940000ed 	bl	100e4920 <mmap_add_region>
    100e4570:	cb1402e2 	sub	x2, x23, x20
    100e4574:	aa1403e1 	mov	x1, x20
    100e4578:	aa1403e0 	mov	x0, x20
    100e457c:	52800443 	mov	w3, #0x22                  	// #34
    100e4580:	940000e8 	bl	100e4920 <mmap_add_region>
    100e4584:	cb1302c2 	sub	x2, x22, x19
    100e4588:	aa1303e1 	mov	x1, x19
    100e458c:	52800103 	mov	w3, #0x8                   	// #8
    100e4590:	aa1303e0 	mov	x0, x19
    100e4594:	940000e3 	bl	100e4920 <mmap_add_region>
    100e4598:	90000020 	adrp	x0, 100e8000 <__TEXT_END__>
    100e459c:	9130c000 	add	x0, x0, #0xc30
    100e45a0:	940000ed 	bl	100e4954 <mmap_add>
    100e45a4:	a94153f3 	ldp	x19, x20, [sp, #16]
    100e45a8:	a9425bf5 	ldp	x21, x22, [sp, #32]
    100e45ac:	a94363f7 	ldp	x23, x24, [sp, #48]
    100e45b0:	a8c47bfd 	ldp	x29, x30, [sp], #64
    100e45b4:	140000ec 	b	100e4964 <init_xlat_tables>

00000000100e45b8 <plat_get_syscnt_freq2>:
    100e45b8:	529f0000 	mov	w0, #0xf800                	// #63488
    100e45bc:	72a02480 	movk	w0, #0x124, lsl #16
    100e45c0:	d65f03c0 	ret

00000000100e45c4 <plat_ic_get_pending_interrupt_type>:
    100e45c4:	a9bf7bfd 	stp	x29, x30, [sp, #-16]!
    100e45c8:	90000020 	adrp	x0, 100e8000 <__TEXT_END__>
    100e45cc:	912f7c00 	add	x0, x0, #0xbdf
    100e45d0:	910003fd 	mov	x29, sp
    100e45d4:	97fffe70 	bl	100e3f94 <tf_log>
    100e45d8:	52800060 	mov	w0, #0x3                   	// #3
    100e45dc:	a8c17bfd 	ldp	x29, x30, [sp], #16
    100e45e0:	d65f03c0 	ret

00000000100e45e4 <plat_interrupt_type_to_line>:
    100e45e4:	a9bf7bfd 	stp	x29, x30, [sp, #-16]!
    100e45e8:	7100081f 	cmp	w0, #0x2
    100e45ec:	910003fd 	mov	x29, sp
    100e45f0:	540000a9 	b.ls	100e4604 <plat_interrupt_type_to_line+0x20>  // b.plast
    100e45f4:	52801b21 	mov	w1, #0xd9                  	// #217
    100e45f8:	90000020 	adrp	x0, 100e8000 <__TEXT_END__>
    100e45fc:	91300000 	add	x0, x0, #0xc00
    100e4600:	94000799 	bl	100e6464 <__assert>
    100e4604:	7100043f 	cmp	w1, #0x1
    100e4608:	54000069 	b.ls	100e4614 <plat_interrupt_type_to_line+0x30>  // b.plast
    100e460c:	52801b81 	mov	w1, #0xdc                  	// #220
    100e4610:	17fffffa 	b	100e45f8 <plat_interrupt_type_to_line+0x14>
    100e4614:	7100081f 	cmp	w0, #0x2
    100e4618:	1a9f07e0 	cset	w0, ne  // ne = any
    100e461c:	11000400 	add	w0, w0, #0x1
    100e4620:	a8c17bfd 	ldp	x29, x30, [sp], #16
    100e4624:	d65f03c0 	ret

00000000100e4628 <tcr_physical_addr_size_bits>:
    100e4628:	f2503c1f 	tst	x0, #0xffff000000000000
    100e462c:	540000e0 	b.eq	100e4648 <tcr_physical_addr_size_bits+0x20>  // b.none
    100e4630:	a9bf7bfd 	stp	x29, x30, [sp, #-16]!
    100e4634:	90000020 	adrp	x0, 100e8000 <__TEXT_END__>
    100e4638:	9133e000 	add	x0, x0, #0xcf8
    100e463c:	910003fd 	mov	x29, sp
    100e4640:	52800761 	mov	w1, #0x3b                  	// #59
    100e4644:	94000788 	bl	100e6464 <__assert>
    100e4648:	f2540c1f 	tst	x0, #0xf00000000000
    100e464c:	54000141 	b.ne	100e4674 <tcr_physical_addr_size_bits+0x4c>  // b.any
    100e4650:	f256041f 	tst	x0, #0xc0000000000
    100e4654:	54000141 	b.ne	100e467c <tcr_physical_addr_size_bits+0x54>  // b.any
    100e4658:	f258041f 	tst	x0, #0x30000000000
    100e465c:	54000141 	b.ne	100e4684 <tcr_physical_addr_size_bits+0x5c>  // b.any
    100e4660:	f25c0c1f 	tst	x0, #0xf000000000
    100e4664:	54000141 	b.ne	100e468c <tcr_physical_addr_size_bits+0x64>  // b.any
    100e4668:	f2600c1f 	tst	x0, #0xf00000000
    100e466c:	9a9f07e0 	cset	x0, ne  // ne = any
    100e4670:	d65f03c0 	ret
    100e4674:	d28000a0 	mov	x0, #0x5                   	// #5
    100e4678:	d65f03c0 	ret
    100e467c:	d2800080 	mov	x0, #0x4                   	// #4
    100e4680:	d65f03c0 	ret
    100e4684:	d2800060 	mov	x0, #0x3                   	// #3
    100e4688:	d65f03c0 	ret
    100e468c:	d2800040 	mov	x0, #0x2                   	// #2
    100e4690:	d65f03c0 	ret

00000000100e4694 <xlat_arch_get_max_supported_pa>:
    100e4694:	d5380700 	mrs	x0, id_aa64mmfr0_el1
    100e4698:	92400c00 	and	x0, x0, #0xf
    100e469c:	f100181f 	cmp	x0, #0x6
    100e46a0:	540000e9 	b.ls	100e46bc <xlat_arch_get_max_supported_pa+0x28>  // b.plast
    100e46a4:	a9bf7bfd 	stp	x29, x30, [sp, #-16]!
    100e46a8:	90000020 	adrp	x0, 100e8000 <__TEXT_END__>
    100e46ac:	9133e000 	add	x0, x0, #0xcf8
    100e46b0:	910003fd 	mov	x29, sp
    100e46b4:	52800c81 	mov	w1, #0x64                  	// #100
    100e46b8:	9400076b 	bl	100e6464 <__assert>
    100e46bc:	90000021 	adrp	x1, 100e8000 <__TEXT_END__>
    100e46c0:	9134a021 	add	x1, x1, #0xd28
    100e46c4:	b8607821 	ldr	w1, [x1, x0, lsl #2]
    100e46c8:	d2800020 	mov	x0, #0x1                   	// #1
    100e46cc:	9ac12000 	lsl	x0, x0, x1
    100e46d0:	d1000400 	sub	x0, x0, #0x1
    100e46d4:	d65f03c0 	ret

00000000100e46d8 <xlat_get_min_virt_addr_space_size>:
    100e46d8:	d5380740 	mrs	x0, id_aa64mmfr2_el1
    100e46dc:	531c7c00 	lsr	w0, w0, #28
    100e46e0:	d2a00021 	mov	x1, #0x10000               	// #65536
    100e46e4:	f100041f 	cmp	x0, #0x1
    100e46e8:	d2a04000 	mov	x0, #0x2000000             	// #33554432
    100e46ec:	9a800020 	csel	x0, x1, x0, eq  // eq = none
    100e46f0:	d65f03c0 	ret

00000000100e46f4 <is_dcache_enabled>:
    100e46f4:	d5384240 	mrs	x0, currentel
    100e46f8:	53020c00 	ubfx	w0, w0, #2, #2
    100e46fc:	7100041f 	cmp	w0, #0x1
    100e4700:	54000081 	b.ne	100e4710 <is_dcache_enabled+0x1c>  // b.any
    100e4704:	d5381000 	mrs	x0, sctlr_el1
    100e4708:	53020800 	ubfx	w0, w0, #2, #1
    100e470c:	d65f03c0 	ret
    100e4710:	7100081f 	cmp	w0, #0x2
    100e4714:	54000061 	b.ne	100e4720 <is_dcache_enabled+0x2c>  // b.any
    100e4718:	d53c1000 	mrs	x0, sctlr_el2
    100e471c:	17fffffb 	b	100e4708 <is_dcache_enabled+0x14>
    100e4720:	d53e1000 	mrs	x0, sctlr_el3
    100e4724:	17fffff9 	b	100e4708 <is_dcache_enabled+0x14>

00000000100e4728 <xlat_arch_regime_get_xn_desc>:
    100e4728:	7100041f 	cmp	w0, #0x1
    100e472c:	54000160 	b.eq	100e4758 <xlat_arch_regime_get_xn_desc+0x30>  // b.none
    100e4730:	51000801 	sub	w1, w0, #0x2
    100e4734:	d2e00800 	mov	x0, #0x40000000000000      	// #18014398509481984
    100e4738:	7100043f 	cmp	w1, #0x1
    100e473c:	54000109 	b.ls	100e475c <xlat_arch_regime_get_xn_desc+0x34>  // b.plast
    100e4740:	a9bf7bfd 	stp	x29, x30, [sp, #-16]!
    100e4744:	90000020 	adrp	x0, 100e8000 <__TEXT_END__>
    100e4748:	9133e000 	add	x0, x0, #0xcf8
    100e474c:	910003fd 	mov	x29, sp
    100e4750:	52801341 	mov	w1, #0x9a                  	// #154
    100e4754:	94000744 	bl	100e6464 <__assert>
    100e4758:	d2e00c00 	mov	x0, #0x60000000000000      	// #27021597764222976
    100e475c:	d65f03c0 	ret

00000000100e4760 <xlat_arch_current_el>:
    100e4760:	d5384241 	mrs	x1, currentel
    100e4764:	53020c20 	ubfx	w0, w1, #2, #2
    100e4768:	721e043f 	tst	w1, #0xc
    100e476c:	540000e1 	b.ne	100e4788 <xlat_arch_current_el+0x28>  // b.any
    100e4770:	a9bf7bfd 	stp	x29, x30, [sp, #-16]!
    100e4774:	90000020 	adrp	x0, 100e8000 <__TEXT_END__>
    100e4778:	9133e000 	add	x0, x0, #0xcf8
    100e477c:	910003fd 	mov	x29, sp
    100e4780:	52801ae1 	mov	w1, #0xd7                  	// #215
    100e4784:	94000738 	bl	100e6464 <__assert>
    100e4788:	d65f03c0 	ret

00000000100e478c <is_mmu_enabled_ctx>:
    100e478c:	a9bf7bfd 	stp	x29, x30, [sp, #-16]!
    100e4790:	910003fd 	mov	x29, sp
    100e4794:	b9405800 	ldr	w0, [x0, #88]
    100e4798:	7100041f 	cmp	w0, #0x1
    100e479c:	54000161 	b.ne	100e47c8 <is_mmu_enabled_ctx+0x3c>  // b.any
    100e47a0:	97fffff0 	bl	100e4760 <xlat_arch_current_el>
    100e47a4:	350000a0 	cbnz	w0, 100e47b8 <is_mmu_enabled_ctx+0x2c>
    100e47a8:	52800f81 	mov	w1, #0x7c                  	// #124
    100e47ac:	90000020 	adrp	x0, 100e8000 <__TEXT_END__>
    100e47b0:	9133e000 	add	x0, x0, #0xcf8
    100e47b4:	9400072c 	bl	100e6464 <__assert>
    100e47b8:	d5381000 	mrs	x0, sctlr_el1
    100e47bc:	12000000 	and	w0, w0, #0x1
    100e47c0:	a8c17bfd 	ldp	x29, x30, [sp], #16
    100e47c4:	d65f03c0 	ret
    100e47c8:	7100081f 	cmp	w0, #0x2
    100e47cc:	54000101 	b.ne	100e47ec <is_mmu_enabled_ctx+0x60>  // b.any
    100e47d0:	97ffffe4 	bl	100e4760 <xlat_arch_current_el>
    100e47d4:	7100041f 	cmp	w0, #0x1
    100e47d8:	54000068 	b.hi	100e47e4 <is_mmu_enabled_ctx+0x58>  // b.pmore
    100e47dc:	52800fe1 	mov	w1, #0x7f                  	// #127
    100e47e0:	17fffff3 	b	100e47ac <is_mmu_enabled_ctx+0x20>
    100e47e4:	d53c1000 	mrs	x0, sctlr_el2
    100e47e8:	17fffff5 	b	100e47bc <is_mmu_enabled_ctx+0x30>
    100e47ec:	71000c1f 	cmp	w0, #0x3
    100e47f0:	54000060 	b.eq	100e47fc <is_mmu_enabled_ctx+0x70>  // b.none
    100e47f4:	52801041 	mov	w1, #0x82                  	// #130
    100e47f8:	17ffffed 	b	100e47ac <is_mmu_enabled_ctx+0x20>
    100e47fc:	97ffffd9 	bl	100e4760 <xlat_arch_current_el>
    100e4800:	7100081f 	cmp	w0, #0x2
    100e4804:	54000068 	b.hi	100e4810 <is_mmu_enabled_ctx+0x84>  // b.pmore
    100e4808:	52801061 	mov	w1, #0x83                  	// #131
    100e480c:	17ffffe8 	b	100e47ac <is_mmu_enabled_ctx+0x20>
    100e4810:	d53e1000 	mrs	x0, sctlr_el3
    100e4814:	17ffffea 	b	100e47bc <is_mmu_enabled_ctx+0x30>

00000000100e4818 <setup_mmu_cfg>:
    100e4818:	a9bd7bfd 	stp	x29, x30, [sp, #-48]!
    100e481c:	b100049f 	cmn	x4, #0x1
    100e4820:	910003fd 	mov	x29, sp
    100e4824:	a90153f3 	stp	x19, x20, [sp, #16]
    100e4828:	a9025bf5 	stp	x21, x22, [sp, #32]
    100e482c:	540000a1 	b.ne	100e4840 <setup_mmu_cfg+0x28>  // b.any
    100e4830:	52801d81 	mov	w1, #0xec                  	// #236
    100e4834:	90000020 	adrp	x0, 100e8000 <__TEXT_END__>
    100e4838:	9133e000 	add	x0, x0, #0xcf8
    100e483c:	9400070a 	bl	100e6464 <__assert>
    100e4840:	2a0103e6 	mov	w6, w1
    100e4844:	91000493 	add	x19, x4, #0x1
    100e4848:	aa0003f5 	mov	x21, x0
    100e484c:	97ffffa3 	bl	100e46d8 <xlat_get_min_virt_addr_space_size>
    100e4850:	eb13001f 	cmp	x0, x19
    100e4854:	54000069 	b.ls	100e4860 <setup_mmu_cfg+0x48>  // b.plast
    100e4858:	52801e01 	mov	w1, #0xf0                  	// #240
    100e485c:	17fffff6 	b	100e4834 <setup_mmu_cfg+0x1c>
    100e4860:	d2e00020 	mov	x0, #0x1000000000000       	// #281474976710656
    100e4864:	eb00027f 	cmp	x19, x0
    100e4868:	54000069 	b.ls	100e4874 <setup_mmu_cfg+0x5c>  // b.plast
    100e486c:	52801e41 	mov	w1, #0xf2                  	// #242
    100e4870:	17fffff1 	b	100e4834 <setup_mmu_cfg+0x1c>
    100e4874:	ea13009f 	tst	x4, x19
    100e4878:	54000060 	b.eq	100e4884 <setup_mmu_cfg+0x6c>  // b.none
    100e487c:	52801e61 	mov	w1, #0xf3                  	// #243
    100e4880:	17ffffed 	b	100e4834 <setup_mmu_cfg+0x1c>
    100e4884:	dac00261 	rbit	x1, x19
    100e4888:	aa0203f4 	mov	x20, x2
    100e488c:	dac01021 	clz	x1, x1
    100e4890:	52800813 	mov	w19, #0x40                  	// #64
    100e4894:	2a0503f6 	mov	w22, w5
    100e4898:	4b010261 	sub	w1, w19, w1
    100e489c:	37080066 	tbnz	w6, #1, 100e48a8 <setup_mmu_cfg+0x90>
    100e48a0:	5286a000 	mov	w0, #0x3500                	// #13568
    100e48a4:	2a000021 	orr	w1, w1, w0
    100e48a8:	93407c33 	sxtw	x19, w1
    100e48ac:	aa0303e0 	mov	x0, x3
    100e48b0:	97ffff5e 	bl	100e4628 <tcr_physical_addr_size_bits>
    100e48b4:	710006df 	cmp	w22, #0x1
    100e48b8:	540001e1 	b.ne	100e48f4 <setup_mmu_cfg+0xdc>  // b.any
    100e48bc:	aa008261 	orr	x1, x19, x0, lsl #32
    100e48c0:	b2690021 	orr	x1, x1, #0x800000
    100e48c4:	d5380740 	mrs	x0, id_aa64mmfr2_el1
    100e48c8:	f2400c1f 	tst	x0, #0xf
    100e48cc:	54000040 	b.eq	100e48d4 <setup_mmu_cfg+0xbc>  // b.none
    100e48d0:	b2400294 	orr	x20, x20, #0x1
    100e48d4:	d2809fe0 	mov	x0, #0x4ff                 	// #1279
    100e48d8:	f2a00880 	movk	x0, #0x44, lsl #16
    100e48dc:	a90006a0 	stp	x0, x1, [x21]
    100e48e0:	f9000ab4 	str	x20, [x21, #16]
    100e48e4:	a94153f3 	ldp	x19, x20, [sp, #16]
    100e48e8:	a9425bf5 	ldp	x21, x22, [sp, #32]
    100e48ec:	a8c37bfd 	ldp	x29, x30, [sp], #48
    100e48f0:	d65f03c0 	ret
    100e48f4:	71000adf 	cmp	w22, #0x2
    100e48f8:	d370bc01 	lsl	x1, x0, #16
    100e48fc:	540000a1 	b.ne	100e4910 <setup_mmu_cfg+0xf8>  // b.any
    100e4900:	aa130021 	orr	x1, x1, x19
    100e4904:	d2b01000 	mov	x0, #0x80800000            	// #2155872256
    100e4908:	aa000021 	orr	x1, x1, x0
    100e490c:	17ffffee 	b	100e48c4 <setup_mmu_cfg+0xac>
    100e4910:	71000edf 	cmp	w22, #0x3
    100e4914:	54ffff60 	b.eq	100e4900 <setup_mmu_cfg+0xe8>  // b.none
    100e4918:	52802341 	mov	w1, #0x11a                 	// #282
    100e491c:	17ffffc6 	b	100e4834 <setup_mmu_cfg+0x1c>

00000000100e4920 <mmap_add_region>:
    100e4920:	a9bc7bfd 	stp	x29, x30, [sp, #-64]!
    100e4924:	910003fd 	mov	x29, sp
    100e4928:	a90187e0 	stp	x0, x1, [sp, #24]
    100e492c:	d2a80000 	mov	x0, #0x40000000            	// #1073741824
    100e4930:	910063e1 	add	x1, sp, #0x18
    100e4934:	f90017e2 	str	x2, [sp, #40]
    100e4938:	b90033e3 	str	w3, [sp, #48]
    100e493c:	f9001fe0 	str	x0, [sp, #56]
    100e4940:	d0000020 	adrp	x0, 100ea000 <__RODATA_END__>
    100e4944:	91004000 	add	x0, x0, #0x10
    100e4948:	94000121 	bl	100e4dcc <mmap_add_region_ctx>
    100e494c:	a8c47bfd 	ldp	x29, x30, [sp], #64
    100e4950:	d65f03c0 	ret

00000000100e4954 <mmap_add>:
    100e4954:	aa0003e1 	mov	x1, x0
    100e4958:	d0000020 	adrp	x0, 100ea000 <__RODATA_END__>
    100e495c:	91004000 	add	x0, x0, #0x10
    100e4960:	140001b2 	b	100e5028 <mmap_add_ctx>

00000000100e4964 <init_xlat_tables>:
    100e4964:	a9be7bfd 	stp	x29, x30, [sp, #-32]!
    100e4968:	910003fd 	mov	x29, sp
    100e496c:	f9000bf3 	str	x19, [sp, #16]
    100e4970:	d0000033 	adrp	x19, 100ea000 <__RODATA_END__>
    100e4974:	91004273 	add	x19, x19, #0x10
    100e4978:	b9405a60 	ldr	w0, [x19, #88]
    100e497c:	3100041f 	cmn	w0, #0x1
    100e4980:	540000a0 	b.eq	100e4994 <init_xlat_tables+0x30>  // b.none
    100e4984:	52800c01 	mov	w1, #0x60                  	// #96
    100e4988:	90000020 	adrp	x0, 100e8000 <__TEXT_END__>
    100e498c:	91351000 	add	x0, x0, #0xd44
    100e4990:	940006b5 	bl	100e6464 <__assert>
    100e4994:	97ffff73 	bl	100e4760 <xlat_arch_current_el>
    100e4998:	7100041f 	cmp	w0, #0x1
    100e499c:	540000c1 	b.ne	100e49b4 <init_xlat_tables+0x50>  // b.any
    100e49a0:	b9005a60 	str	w0, [x19, #88]
    100e49a4:	aa1303e0 	mov	x0, x19
    100e49a8:	f9400bf3 	ldr	x19, [sp, #16]
    100e49ac:	a8c27bfd 	ldp	x29, x30, [sp], #32
    100e49b0:	140001ad 	b	100e5064 <init_xlat_tables_ctx>
    100e49b4:	7100081f 	cmp	w0, #0x2
    100e49b8:	54ffff40 	b.eq	100e49a0 <init_xlat_tables+0x3c>  // b.none
    100e49bc:	71000c1f 	cmp	w0, #0x3
    100e49c0:	54ffff00 	b.eq	100e49a0 <init_xlat_tables+0x3c>  // b.none
    100e49c4:	52800d21 	mov	w1, #0x69                  	// #105
    100e49c8:	17fffff0 	b	100e4988 <init_xlat_tables+0x24>

00000000100e49cc <enable_mmu_el3>:
    100e49cc:	d0000022 	adrp	x2, 100ea000 <__RODATA_END__>
    100e49d0:	91004042 	add	x2, x2, #0x10
    100e49d4:	a9be7bfd 	stp	x29, x30, [sp, #-32]!
    100e49d8:	2a0003e1 	mov	w1, w0
    100e49dc:	52800065 	mov	w5, #0x3                   	// #3
    100e49e0:	910003fd 	mov	x29, sp
    100e49e4:	f9400444 	ldr	x4, [x2, #8]
    100e49e8:	f9402043 	ldr	x3, [x2, #64]
    100e49ec:	f9401842 	ldr	x2, [x2, #48]
    100e49f0:	f9000bf3 	str	x19, [sp, #16]
    100e49f4:	2a0003f3 	mov	w19, w0
    100e49f8:	f0000040 	adrp	x0, 100ef000 <opteed_sp_context+0x50>
    100e49fc:	9125e000 	add	x0, x0, #0x978
    100e4a00:	97ffff86 	bl	100e4818 <setup_mmu_cfg>
    100e4a04:	2a1303e0 	mov	w0, w19
    100e4a08:	f9400bf3 	ldr	x19, [sp, #16]
    100e4a0c:	a8c27bfd 	ldp	x29, x30, [sp], #32
    100e4a10:	14000679 	b	100e63f4 <enable_mmu_direct_el3>

00000000100e4a14 <xlat_clean_dcache_range>:
    100e4a14:	a9be7bfd 	stp	x29, x30, [sp, #-32]!
    100e4a18:	910003fd 	mov	x29, sp
    100e4a1c:	a90153f3 	stp	x19, x20, [sp, #16]
    100e4a20:	aa0003f3 	mov	x19, x0
    100e4a24:	aa0103f4 	mov	x20, x1
    100e4a28:	97ffff33 	bl	100e46f4 <is_dcache_enabled>
    100e4a2c:	72001c1f 	tst	w0, #0xff
    100e4a30:	540000c0 	b.eq	100e4a48 <xlat_clean_dcache_range+0x34>  // b.none
    100e4a34:	aa1403e1 	mov	x1, x20
    100e4a38:	aa1303e0 	mov	x0, x19
    100e4a3c:	a94153f3 	ldp	x19, x20, [sp, #16]
    100e4a40:	a8c27bfd 	ldp	x29, x30, [sp], #32
    100e4a44:	14000554 	b	100e5f94 <clean_dcache_range>
    100e4a48:	a94153f3 	ldp	x19, x20, [sp, #16]
    100e4a4c:	a8c27bfd 	ldp	x29, x30, [sp], #32
    100e4a50:	d65f03c0 	ret

00000000100e4a54 <xlat_desc>:
    100e4a54:	12800104 	mov	w4, #0xfffffff7            	// #-9
    100e4a58:	a9be7bfd 	stp	x29, x30, [sp, #-32]!
    100e4a5c:	92800005 	mov	x5, #0xffffffffffffffff    	// #-1
    100e4a60:	1b047c64 	mul	w4, w3, w4
    100e4a64:	910003fd 	mov	x29, sp
    100e4a68:	11009c84 	add	w4, w4, #0x27
    100e4a6c:	a90153f3 	stp	x19, x20, [sp, #16]
    100e4a70:	9ac420a4 	lsl	x4, x5, x4
    100e4a74:	ea24005f 	bics	xzr, x2, x4
    100e4a78:	540000a0 	b.eq	100e4a8c <xlat_desc+0x38>  // b.none
    100e4a7c:	52800e41 	mov	w1, #0x72                  	// #114
    100e4a80:	90000020 	adrp	x0, 100e8000 <__TEXT_END__>
    100e4a84:	9135b400 	add	x0, x0, #0xd6d
    100e4a88:	94000677 	bl	100e6464 <__assert>
    100e4a8c:	71000c7f 	cmp	w3, #0x3
    100e4a90:	d37f7c23 	ubfiz	x3, x1, #1, #32
    100e4a94:	927b0063 	and	x3, x3, #0x20
    100e4a98:	d2800073 	mov	x19, #0x3                   	// #3
    100e4a9c:	9a9f0673 	csinc	x19, x19, xzr, eq  // eq = none
    100e4aa0:	f27d003f 	tst	x1, #0x8
    100e4aa4:	aa020062 	orr	x2, x3, x2
    100e4aa8:	b9405800 	ldr	w0, [x0, #88]
    100e4aac:	d2801003 	mov	x3, #0x80                  	// #128
    100e4ab0:	9a8313e3 	csel	x3, xzr, x3, ne  // ne = any
    100e4ab4:	aa030273 	orr	x19, x19, x3
    100e4ab8:	7100041f 	cmp	w0, #0x1
    100e4abc:	aa020273 	orr	x19, x19, x2
    100e4ac0:	540001a1 	b.ne	100e4af4 <xlat_desc+0xa0>  // b.any
    100e4ac4:	b2760262 	orr	x2, x19, #0x400
    100e4ac8:	f27a003f 	tst	x1, #0x40
    100e4acc:	d2808803 	mov	x3, #0x440                 	// #1088
    100e4ad0:	aa030273 	orr	x19, x19, x3
    100e4ad4:	9a821273 	csel	x19, x19, x2, ne  // ne = any
    100e4ad8:	72000834 	ands	w20, w1, #0x7
    100e4adc:	540001c1 	b.ne	100e4b14 <xlat_desc+0xc0>  // b.any
    100e4ae0:	97ffff12 	bl	100e4728 <xlat_arch_regime_get_xn_desc>
    100e4ae4:	aa000273 	orr	x19, x19, x0
    100e4ae8:	d2804080 	mov	x0, #0x204                 	// #516
    100e4aec:	aa000260 	orr	x0, x19, x0
    100e4af0:	14000011 	b	100e4b34 <xlat_desc+0xe0>
    100e4af4:	51000802 	sub	w2, w0, #0x2
    100e4af8:	7100045f 	cmp	w2, #0x1
    100e4afc:	54000069 	b.ls	100e4b08 <xlat_desc+0xb4>  // b.plast
    100e4b00:	52801281 	mov	w1, #0x94                  	// #148
    100e4b04:	17ffffdf 	b	100e4a80 <xlat_desc+0x2c>
    100e4b08:	d2808802 	mov	x2, #0x440                 	// #1088
    100e4b0c:	aa020273 	orr	x19, x19, x2
    100e4b10:	17fffff2 	b	100e4ad8 <xlat_desc+0x84>
    100e4b14:	52800502 	mov	w2, #0x28                  	// #40
    100e4b18:	6a02003f 	tst	w1, w2
    100e4b1c:	54000060 	b.eq	100e4b28 <xlat_desc+0xd4>  // b.none
    100e4b20:	97ffff02 	bl	100e4728 <xlat_arch_regime_get_xn_desc>
    100e4b24:	aa000273 	orr	x19, x19, x0
    100e4b28:	71000a9f 	cmp	w20, #0x2
    100e4b2c:	540000a1 	b.ne	100e4b40 <xlat_desc+0xec>  // b.any
    100e4b30:	b2780660 	orr	x0, x19, #0x300
    100e4b34:	a94153f3 	ldp	x19, x20, [sp, #16]
    100e4b38:	a8c27bfd 	ldp	x29, x30, [sp], #32
    100e4b3c:	d65f03c0 	ret
    100e4b40:	7100069f 	cmp	w20, #0x1
    100e4b44:	54000060 	b.eq	100e4b50 <xlat_desc+0xfc>  // b.none
    100e4b48:	52801a81 	mov	w1, #0xd4                  	// #212
    100e4b4c:	17ffffcd 	b	100e4a80 <xlat_desc+0x2c>
    100e4b50:	d2804100 	mov	x0, #0x208                 	// #520
    100e4b54:	17ffffe6 	b	100e4aec <xlat_desc+0x98>

00000000100e4b58 <xlat_tables_map_region>:
    100e4b58:	a9b87bfd 	stp	x29, x30, [sp, #-128]!
    100e4b5c:	910003fd 	mov	x29, sp
    100e4b60:	a90153f3 	stp	x19, x20, [sp, #16]
    100e4b64:	a9025bf5 	stp	x21, x22, [sp, #32]
    100e4b68:	a90363f7 	stp	x23, x24, [sp, #48]
    100e4b6c:	a9046bf9 	stp	x25, x26, [sp, #64]
    100e4b70:	aa0003f9 	mov	x25, x0
    100e4b74:	b9405000 	ldr	w0, [x0, #80]
    100e4b78:	a90573fb 	stp	x27, x28, [sp, #80]
    100e4b7c:	6b05001f 	cmp	w0, w5
    100e4b80:	b90077e4 	str	w4, [sp, #116]
    100e4b84:	54000088 	b.hi	100e4b94 <xlat_tables_map_region+0x3c>  // b.pmore
    100e4b88:	2a0503f6 	mov	w22, w5
    100e4b8c:	71000cbf 	cmp	w5, #0x3
    100e4b90:	540000a9 	b.ls	100e4ba4 <xlat_tables_map_region+0x4c>  // b.plast
    100e4b94:	52804681 	mov	w1, #0x234                 	// #564
    100e4b98:	90000020 	adrp	x0, 100e8000 <__TEXT_END__>
    100e4b9c:	9135b400 	add	x0, x0, #0xd6d
    100e4ba0:	94000631 	bl	100e6464 <__assert>
    100e4ba4:	12800115 	mov	w21, #0xfffffff7            	// #-9
    100e4ba8:	aa0103fb 	mov	x27, x1
    100e4bac:	a9408420 	ldp	x0, x1, [x1, #8]
    100e4bb0:	1b157cb5 	mul	w21, w5, w21
    100e4bb4:	d2800038 	mov	x24, #0x1                   	// #1
    100e4bb8:	92800017 	mov	x23, #0xffffffffffffffff    	// #-1
    100e4bbc:	11009eb5 	add	w21, w21, #0x27
    100e4bc0:	110004bc 	add	w28, w5, #0x1
    100e4bc4:	9ad52318 	lsl	x24, x24, x21
    100e4bc8:	cb1803f3 	neg	x19, x24
    100e4bcc:	8a000273 	and	x19, x19, x0
    100e4bd0:	eb02001f 	cmp	x0, x2
    100e4bd4:	9a828273 	csel	x19, x19, x2, hi  // hi = pmore
    100e4bd8:	8b010001 	add	x1, x0, x1
    100e4bdc:	cb020274 	sub	x20, x19, x2
    100e4be0:	d1000421 	sub	x1, x1, #0x1
    100e4be4:	9ad522f7 	lsl	x23, x23, x21
    100e4be8:	aa3703e0 	mvn	x0, x23
    100e4bec:	9ad52694 	lsr	x20, x20, x21
    100e4bf0:	b90073f4 	str	w20, [sp, #112]
    100e4bf4:	8b344c74 	add	x20, x3, w20, uxtw #3
    100e4bf8:	a90603e1 	stp	x1, x0, [sp, #96]
    100e4bfc:	294e07e0 	ldp	w0, w1, [sp, #112]
    100e4c00:	6b01001f 	cmp	w0, w1
    100e4c04:	54000862 	b.cs	100e4d10 <xlat_tables_map_region+0x1b8>  // b.hs, b.nlast
    100e4c08:	a9409360 	ldp	x0, x4, [x27, #8]
    100e4c0c:	8b18027a 	add	x26, x19, x24
    100e4c10:	f9400283 	ldr	x3, [x20]
    100e4c14:	d1000757 	sub	x23, x26, #0x1
    100e4c18:	12000461 	and	w1, w3, #0x3
    100e4c1c:	8b040004 	add	x4, x0, x4
    100e4c20:	eb13001f 	cmp	x0, x19
    100e4c24:	d1000484 	sub	x4, x4, #0x1
    100e4c28:	54000408 	b.hi	100e4ca8 <xlat_tables_map_region+0x150>  // b.pmore
    100e4c2c:	eb17009f 	cmp	x4, x23
    100e4c30:	540003c3 	b.cc	100e4ca8 <xlat_tables_map_region+0x150>  // b.lo, b.ul, b.last
    100e4c34:	f9400362 	ldr	x2, [x27]
    100e4c38:	71000edf 	cmp	w22, #0x3
    100e4c3c:	cb000042 	sub	x2, x2, x0
    100e4c40:	8b130042 	add	x2, x2, x19
    100e4c44:	540000c1 	b.ne	100e4c5c <xlat_tables_map_region+0x104>  // b.any
    100e4c48:	71000c3f 	cmp	w1, #0x3
    100e4c4c:	54000520 	b.eq	100e4cf0 <xlat_tables_map_region+0x198>  // b.none
    100e4c50:	34000461 	cbz	w1, 100e4cdc <xlat_tables_map_region+0x184>
    100e4c54:	52803961 	mov	w1, #0x1cb                 	// #459
    100e4c58:	17ffffd0 	b	100e4b98 <xlat_tables_map_region+0x40>
    100e4c5c:	71000c3f 	cmp	w1, #0x3
    100e4c60:	54000980 	b.eq	100e4d90 <xlat_tables_map_region+0x238>  // b.none
    100e4c64:	350001a1 	cbnz	w1, 100e4c98 <xlat_tables_map_region+0x140>
    100e4c68:	f94037e0 	ldr	x0, [sp, #104]
    100e4c6c:	ea00005f 	tst	x2, x0
    100e4c70:	540000a1 	b.ne	100e4c84 <xlat_tables_map_region+0x12c>  // b.any
    100e4c74:	34000096 	cbz	w22, 100e4c84 <xlat_tables_map_region+0x12c>
    100e4c78:	f9401360 	ldr	x0, [x27, #32]
    100e4c7c:	9ad52400 	lsr	x0, x0, x21
    100e4c80:	b50002e0 	cbnz	x0, 100e4cdc <xlat_tables_map_region+0x184>
    100e4c84:	29450720 	ldp	w0, w1, [x25, #40]
    100e4c88:	6b00003f 	cmp	w1, w0
    100e4c8c:	5400046b 	b.lt	100e4d18 <xlat_tables_map_region+0x1c0>  // b.tstop
    100e4c90:	52800c21 	mov	w1, #0x61                  	// #97
    100e4c94:	17ffffc1 	b	100e4b98 <xlat_tables_map_region+0x40>
    100e4c98:	7100043f 	cmp	w1, #0x1
    100e4c9c:	540002a0 	b.eq	100e4cf0 <xlat_tables_map_region+0x198>  // b.none
    100e4ca0:	52803e41 	mov	w1, #0x1f2                 	// #498
    100e4ca4:	17ffffbd 	b	100e4b98 <xlat_tables_map_region+0x40>
    100e4ca8:	eb17001f 	cmp	x0, x23
    100e4cac:	54000069 	b.ls	100e4cb8 <xlat_tables_map_region+0x160>  // b.plast
    100e4cb0:	eb04027f 	cmp	x19, x4
    100e4cb4:	540001e8 	b.hi	100e4cf0 <xlat_tables_map_region+0x198>  // b.pmore
    100e4cb8:	71000edf 	cmp	w22, #0x3
    100e4cbc:	54000061 	b.ne	100e4cc8 <xlat_tables_map_region+0x170>  // b.any
    100e4cc0:	528040e1 	mov	w1, #0x207                 	// #519
    100e4cc4:	17ffffb5 	b	100e4b98 <xlat_tables_map_region+0x40>
    100e4cc8:	34fffde1 	cbz	w1, 100e4c84 <xlat_tables_map_region+0x12c>
    100e4ccc:	71000c3f 	cmp	w1, #0x3
    100e4cd0:	54000600 	b.eq	100e4d90 <xlat_tables_map_region+0x238>  // b.none
    100e4cd4:	52804241 	mov	w1, #0x212                 	// #530
    100e4cd8:	17ffffb0 	b	100e4b98 <xlat_tables_map_region+0x40>
    100e4cdc:	b9401b61 	ldr	w1, [x27, #24]
    100e4ce0:	2a1603e3 	mov	w3, w22
    100e4ce4:	aa1903e0 	mov	x0, x25
    100e4ce8:	97ffff5b 	bl	100e4a54 <xlat_desc>
    100e4cec:	f9000280 	str	x0, [x20]
    100e4cf0:	b94073e0 	ldr	w0, [sp, #112]
    100e4cf4:	91002294 	add	x20, x20, #0x8
    100e4cf8:	aa1a03f3 	mov	x19, x26
    100e4cfc:	11000400 	add	w0, w0, #0x1
    100e4d00:	b90073e0 	str	w0, [sp, #112]
    100e4d04:	f94033e0 	ldr	x0, [sp, #96]
    100e4d08:	eb1a001f 	cmp	x0, x26
    100e4d0c:	54fff788 	b.hi	100e4bfc <xlat_tables_map_region+0xa4>  // b.pmore
    100e4d10:	d1000673 	sub	x19, x19, #0x1
    100e4d14:	14000017 	b	100e4d70 <xlat_tables_map_region+0x218>
    100e4d18:	f9401323 	ldr	x3, [x25, #32]
    100e4d1c:	11000420 	add	w0, w1, #0x1
    100e4d20:	b9002f20 	str	w0, [x25, #44]
    100e4d24:	93747c21 	sbfiz	x1, x1, #12, #32
    100e4d28:	ab010063 	adds	x3, x3, x1
    100e4d2c:	54000220 	b.eq	100e4d70 <xlat_tables_map_region+0x218>  // b.none
    100e4d30:	b2400460 	orr	x0, x3, #0x3
    100e4d34:	f9000280 	str	x0, [x20]
    100e4d38:	aa1303e2 	mov	x2, x19
    100e4d3c:	2a1c03e5 	mov	w5, w28
    100e4d40:	aa1b03e1 	mov	x1, x27
    100e4d44:	52804004 	mov	w4, #0x200                 	// #512
    100e4d48:	aa1903e0 	mov	x0, x25
    100e4d4c:	f9003fe3 	str	x3, [sp, #120]
    100e4d50:	97ffff82 	bl	100e4b58 <xlat_tables_map_region>
    100e4d54:	aa0003f3 	mov	x19, x0
    100e4d58:	f9403fe3 	ldr	x3, [sp, #120]
    100e4d5c:	d2820001 	mov	x1, #0x1000                	// #4096
    100e4d60:	aa0303e0 	mov	x0, x3
    100e4d64:	97ffff2c 	bl	100e4a14 <xlat_clean_dcache_range>
    100e4d68:	eb1302ff 	cmp	x23, x19
    100e4d6c:	54fffc20 	b.eq	100e4cf0 <xlat_tables_map_region+0x198>  // b.none
    100e4d70:	aa1303e0 	mov	x0, x19
    100e4d74:	a94153f3 	ldp	x19, x20, [sp, #16]
    100e4d78:	a9425bf5 	ldp	x21, x22, [sp, #32]
    100e4d7c:	a94363f7 	ldp	x23, x24, [sp, #48]
    100e4d80:	a9446bf9 	ldp	x25, x26, [sp, #64]
    100e4d84:	a94573fb 	ldp	x27, x28, [sp, #80]
    100e4d88:	a8c87bfd 	ldp	x29, x30, [sp], #128
    100e4d8c:	d65f03c0 	ret
    100e4d90:	92748c63 	and	x3, x3, #0xfffffffff000
    100e4d94:	aa1303e2 	mov	x2, x19
    100e4d98:	2a1c03e5 	mov	w5, w28
    100e4d9c:	aa1b03e1 	mov	x1, x27
    100e4da0:	52804004 	mov	w4, #0x200                 	// #512
    100e4da4:	aa1903e0 	mov	x0, x25
    100e4da8:	f9003fe3 	str	x3, [sp, #120]
    100e4dac:	97ffff6b 	bl	100e4b58 <xlat_tables_map_region>
    100e4db0:	f9403fe3 	ldr	x3, [sp, #120]
    100e4db4:	aa0003f3 	mov	x19, x0
    100e4db8:	d2820001 	mov	x1, #0x1000                	// #4096
    100e4dbc:	aa0303e0 	mov	x0, x3
    100e4dc0:	97ffff15 	bl	100e4a14 <xlat_clean_dcache_range>
    100e4dc4:	eb17027f 	cmp	x19, x23
    100e4dc8:	17ffffe9 	b	100e4d6c <xlat_tables_map_region+0x214>

00000000100e4dcc <mmap_add_region_ctx>:
    100e4dcc:	a9bc7bfd 	stp	x29, x30, [sp, #-64]!
    100e4dd0:	910003fd 	mov	x29, sp
    100e4dd4:	a90363f7 	stp	x23, x24, [sp, #48]
    100e4dd8:	aa0103f7 	mov	x23, x1
    100e4ddc:	f9400821 	ldr	x1, [x1, #16]
    100e4de0:	a90153f3 	stp	x19, x20, [sp, #16]
    100e4de4:	a9025bf5 	stp	x21, x22, [sp, #32]
    100e4de8:	b4000fe1 	cbz	x1, 100e4fe4 <mmap_add_region_ctx+0x218>
    100e4dec:	aa0003f4 	mov	x20, x0
    100e4df0:	39415000 	ldrb	w0, [x0, #84]
    100e4df4:	340000a0 	cbz	w0, 100e4e08 <mmap_add_region_ctx+0x3c>
    100e4df8:	528060e1 	mov	w1, #0x307                 	// #775
    100e4dfc:	90000020 	adrp	x0, 100e8000 <__TEXT_END__>
    100e4e00:	9135b400 	add	x0, x0, #0xd6d
    100e4e04:	94000598 	bl	100e6464 <__assert>
    100e4e08:	a94002e5 	ldp	x5, x0, [x23]
    100e4e0c:	f94012e2 	ldr	x2, [x23, #32]
    100e4e10:	aa0100a3 	orr	x3, x5, x1
    100e4e14:	aa000063 	orr	x3, x3, x0
    100e4e18:	f2402c7f 	tst	x3, #0xfff
    100e4e1c:	54000ac1 	b.ne	100e4f74 <mmap_add_region_ctx+0x1a8>  // b.any
    100e4e20:	f148005f 	cmp	x2, #0x200, lsl #12
    100e4e24:	d2a80003 	mov	x3, #0x40000000            	// #1073741824
    100e4e28:	fa431044 	ccmp	x2, x3, #0x4, ne  // ne = any
    100e4e2c:	54000060 	b.eq	100e4e38 <mmap_add_region_ctx+0x6c>  // b.none
    100e4e30:	f140045f 	cmp	x2, #0x1, lsl #12
    100e4e34:	54000a01 	b.ne	100e4f74 <mmap_add_region_ctx+0x1a8>  // b.any
    100e4e38:	8b0100b6 	add	x22, x5, x1
    100e4e3c:	8b000029 	add	x9, x1, x0
    100e4e40:	d10006d6 	sub	x22, x22, #0x1
    100e4e44:	d1000535 	sub	x21, x9, #0x1
    100e4e48:	eb1600bf 	cmp	x5, x22
    100e4e4c:	fa559002 	ccmp	x0, x21, #0x2, ls  // ls = plast
    100e4e50:	540009e8 	b.hi	100e4f8c <mmap_add_region_ctx+0x1c0>  // b.pmore
    100e4e54:	f9400682 	ldr	x2, [x20, #8]
    100e4e58:	eb0202bf 	cmp	x21, x2
    100e4e5c:	54000988 	b.hi	100e4f8c <mmap_add_region_ctx+0x1c0>  // b.pmore
    100e4e60:	f9400282 	ldr	x2, [x20]
    100e4e64:	eb0202df 	cmp	x22, x2
    100e4e68:	54000928 	b.hi	100e4f8c <mmap_add_region_ctx+0x1c0>  // b.pmore
    100e4e6c:	b9401a98 	ldr	w24, [x20, #24]
    100e4e70:	52800503 	mov	w3, #0x28                  	// #40
    100e4e74:	f9400a82 	ldr	x2, [x20, #16]
    100e4e78:	9b230b18 	smaddl	x24, w24, w3, x2
    100e4e7c:	f85e8303 	ldur	x3, [x24, #-24]
    100e4e80:	b50008a3 	cbnz	x3, 100e4f94 <mmap_add_region_ctx+0x1c8>
    100e4e84:	aa0203e6 	mov	x6, x2
    100e4e88:	cb05000a 	sub	x10, x0, x5
    100e4e8c:	f94008c3 	ldr	x3, [x6, #16]
    100e4e90:	b50002a3 	cbnz	x3, 100e4ee4 <mmap_add_region_ctx+0x118>
    100e4e94:	aa0203f3 	mov	x19, x2
    100e4e98:	a9408e60 	ldp	x0, x3, [x19, #8]
    100e4e9c:	8b000060 	add	x0, x3, x0
    100e4ea0:	d1000400 	sub	x0, x0, #0x1
    100e4ea4:	eb15001f 	cmp	x0, x21
    100e4ea8:	54000042 	b.cs	100e4eb0 <mmap_add_region_ctx+0xe4>  // b.hs, b.nlast
    100e4eac:	b5000783 	cbnz	x3, 100e4f9c <mmap_add_region_ctx+0x1d0>
    100e4eb0:	a9408263 	ldp	x3, x0, [x19, #8]
    100e4eb4:	8b030003 	add	x3, x0, x3
    100e4eb8:	eb03013f 	cmp	x9, x3
    100e4ebc:	54000081 	b.ne	100e4ecc <mmap_add_region_ctx+0x100>  // b.any
    100e4ec0:	b4000060 	cbz	x0, 100e4ecc <mmap_add_region_ctx+0x100>
    100e4ec4:	eb00003f 	cmp	x1, x0
    100e4ec8:	540006e8 	b.hi	100e4fa4 <mmap_add_region_ctx+0x1d8>  // b.pmore
    100e4ecc:	f9400840 	ldr	x0, [x2, #16]
    100e4ed0:	b4000940 	cbz	x0, 100e4ff8 <mmap_add_region_ctx+0x22c>
    100e4ed4:	eb18005f 	cmp	x2, x24
    100e4ed8:	540006a3 	b.cc	100e4fac <mmap_add_region_ctx+0x1e0>  // b.lo, b.ul, b.last
    100e4edc:	528067e1 	mov	w1, #0x33f                 	// #831
    100e4ee0:	17ffffc7 	b	100e4dfc <mmap_add_region_ctx+0x30>
    100e4ee4:	a94010c7 	ldp	x7, x4, [x6]
    100e4ee8:	8b030088 	add	x8, x4, x3
    100e4eec:	eb04001f 	cmp	x0, x4
    100e4ef0:	d1000508 	sub	x8, x8, #0x1
    100e4ef4:	54000263 	b.cc	100e4f40 <mmap_add_region_ctx+0x174>  // b.lo, b.ul, b.last
    100e4ef8:	eb0802bf 	cmp	x21, x8
    100e4efc:	54000269 	b.ls	100e4f48 <mmap_add_region_ctx+0x17c>  // b.plast
    100e4f00:	eb04001f 	cmp	x0, x4
    100e4f04:	54000220 	b.eq	100e4f48 <mmap_add_region_ctx+0x17c>  // b.none
    100e4f08:	eb0702df 	cmp	x22, x7
    100e4f0c:	54000863 	b.cc	100e5018 <mmap_add_region_ctx+0x24c>  // b.lo, b.ul, b.last
    100e4f10:	8b070063 	add	x3, x3, x7
    100e4f14:	d1000463 	sub	x3, x3, #0x1
    100e4f18:	eb0300bf 	cmp	x5, x3
    100e4f1c:	1a9f97e3 	cset	w3, hi  // hi = pmore
    100e4f20:	eb0402bf 	cmp	x21, x4
    100e4f24:	54000243 	b.cc	100e4f6c <mmap_add_region_ctx+0x1a0>  // b.lo, b.ul, b.last
    100e4f28:	eb08001f 	cmp	x0, x8
    100e4f2c:	1a9f97e4 	cset	w4, hi  // hi = pmore
    100e4f30:	6a03009f 	tst	w4, w3
    100e4f34:	54000180 	b.eq	100e4f64 <mmap_add_region_ctx+0x198>  // b.none
    100e4f38:	9100a0c6 	add	x6, x6, #0x28
    100e4f3c:	17ffffd4 	b	100e4e8c <mmap_add_region_ctx+0xc0>
    100e4f40:	eb0802bf 	cmp	x21, x8
    100e4f44:	54fffe23 	b.cc	100e4f08 <mmap_add_region_ctx+0x13c>  // b.lo, b.ul, b.last
    100e4f48:	cb070087 	sub	x7, x4, x7
    100e4f4c:	eb0a00ff 	cmp	x7, x10
    100e4f50:	540000a1 	b.ne	100e4f64 <mmap_add_region_ctx+0x198>  // b.any
    100e4f54:	eb04001f 	cmp	x0, x4
    100e4f58:	54ffff01 	b.ne	100e4f38 <mmap_add_region_ctx+0x16c>  // b.any
    100e4f5c:	eb03003f 	cmp	x1, x3
    100e4f60:	54fffec1 	b.ne	100e4f38 <mmap_add_region_ctx+0x16c>  // b.any
    100e4f64:	12800001 	mov	w1, #0xffffffff            	// #-1
    100e4f68:	14000004 	b	100e4f78 <mmap_add_region_ctx+0x1ac>
    100e4f6c:	52800024 	mov	w4, #0x1                   	// #1
    100e4f70:	17fffff0 	b	100e4f30 <mmap_add_region_ctx+0x164>
    100e4f74:	128002a1 	mov	w1, #0xffffffea            	// #-22
    100e4f78:	90000020 	adrp	x0, 100e8000 <__TEXT_END__>
    100e4f7c:	91364c00 	add	x0, x0, #0xd93
    100e4f80:	97fffc05 	bl	100e3f94 <tf_log>
    100e4f84:	52806181 	mov	w1, #0x30c                 	// #780
    100e4f88:	17ffff9d 	b	100e4dfc <mmap_add_region_ctx+0x30>
    100e4f8c:	12800421 	mov	w1, #0xffffffde            	// #-34
    100e4f90:	17fffffa 	b	100e4f78 <mmap_add_region_ctx+0x1ac>
    100e4f94:	12800161 	mov	w1, #0xfffffff4            	// #-12
    100e4f98:	17fffff8 	b	100e4f78 <mmap_add_region_ctx+0x1ac>
    100e4f9c:	9100a273 	add	x19, x19, #0x28
    100e4fa0:	17ffffbe 	b	100e4e98 <mmap_add_region_ctx+0xcc>
    100e4fa4:	9100a273 	add	x19, x19, #0x28
    100e4fa8:	17ffffc2 	b	100e4eb0 <mmap_add_region_ctx+0xe4>
    100e4fac:	9100a042 	add	x2, x2, #0x28
    100e4fb0:	17ffffc7 	b	100e4ecc <mmap_add_region_ctx+0x100>
    100e4fb4:	aa1703e1 	mov	x1, x23
    100e4fb8:	aa1303e0 	mov	x0, x19
    100e4fbc:	d2800502 	mov	x2, #0x28                  	// #40
    100e4fc0:	94000535 	bl	100e6494 <memcpy>
    100e4fc4:	f9402280 	ldr	x0, [x20, #64]
    100e4fc8:	eb16001f 	cmp	x0, x22
    100e4fcc:	54000042 	b.cs	100e4fd4 <mmap_add_region_ctx+0x208>  // b.hs, b.nlast
    100e4fd0:	f9002296 	str	x22, [x20, #64]
    100e4fd4:	f9402680 	ldr	x0, [x20, #72]
    100e4fd8:	eb15001f 	cmp	x0, x21
    100e4fdc:	54000042 	b.cs	100e4fe4 <mmap_add_region_ctx+0x218>  // b.hs, b.nlast
    100e4fe0:	f9002695 	str	x21, [x20, #72]
    100e4fe4:	a94153f3 	ldp	x19, x20, [sp, #16]
    100e4fe8:	a9425bf5 	ldp	x21, x22, [sp, #32]
    100e4fec:	a94363f7 	ldp	x23, x24, [sp, #48]
    100e4ff0:	a8c47bfd 	ldp	x29, x30, [sp], #64
    100e4ff4:	d65f03c0 	ret
    100e4ff8:	cb130042 	sub	x2, x2, x19
    100e4ffc:	aa1303e1 	mov	x1, x19
    100e5000:	9100a260 	add	x0, x19, #0x28
    100e5004:	9400052c 	bl	100e64b4 <memmove>
    100e5008:	f9400b00 	ldr	x0, [x24, #16]
    100e500c:	b4fffd40 	cbz	x0, 100e4fb4 <mmap_add_region_ctx+0x1e8>
    100e5010:	52806961 	mov	w1, #0x34b                 	// #843
    100e5014:	17ffff7a 	b	100e4dfc <mmap_add_region_ctx+0x30>
    100e5018:	eb0402bf 	cmp	x21, x4
    100e501c:	54fff8e3 	b.cc	100e4f38 <mmap_add_region_ctx+0x16c>  // b.lo, b.ul, b.last
    100e5020:	52800023 	mov	w3, #0x1                   	// #1
    100e5024:	17ffffc1 	b	100e4f28 <mmap_add_region_ctx+0x15c>

00000000100e5028 <mmap_add_ctx>:
    100e5028:	a9be7bfd 	stp	x29, x30, [sp, #-32]!
    100e502c:	910003fd 	mov	x29, sp
    100e5030:	a90153f3 	stp	x19, x20, [sp, #16]
    100e5034:	aa0003f4 	mov	x20, x0
    100e5038:	aa0103f3 	mov	x19, x1
    100e503c:	f9401260 	ldr	x0, [x19, #32]
    100e5040:	b5000080 	cbnz	x0, 100e5050 <mmap_add_ctx+0x28>
    100e5044:	a94153f3 	ldp	x19, x20, [sp, #16]
    100e5048:	a8c27bfd 	ldp	x29, x30, [sp], #32
    100e504c:	d65f03c0 	ret
    100e5050:	aa1303e1 	mov	x1, x19
    100e5054:	aa1403e0 	mov	x0, x20
    100e5058:	9100a273 	add	x19, x19, #0x28
    100e505c:	97ffff5c 	bl	100e4dcc <mmap_add_region_ctx>
    100e5060:	17fffff7 	b	100e503c <mmap_add_ctx+0x14>

00000000100e5064 <init_xlat_tables_ctx>:
    100e5064:	a9bd7bfd 	stp	x29, x30, [sp, #-48]!
    100e5068:	910003fd 	mov	x29, sp
    100e506c:	a90153f3 	stp	x19, x20, [sp, #16]
    100e5070:	f90013f5 	str	x21, [sp, #32]
    100e5074:	b50000a0 	cbnz	x0, 100e5088 <init_xlat_tables_ctx+0x24>
    100e5078:	52809321 	mov	w1, #0x499                 	// #1177
    100e507c:	f0000000 	adrp	x0, 100e8000 <__TEXT_END__>
    100e5080:	9135b400 	add	x0, x0, #0xd6d
    100e5084:	940004f8 	bl	100e6464 <__assert>
    100e5088:	39415001 	ldrb	w1, [x0, #84]
    100e508c:	aa0003f3 	mov	x19, x0
    100e5090:	34000061 	cbz	w1, 100e509c <init_xlat_tables_ctx+0x38>
    100e5094:	52809341 	mov	w1, #0x49a                 	// #1178
    100e5098:	17fffff9 	b	100e507c <init_xlat_tables_ctx+0x18>
    100e509c:	b9405801 	ldr	w1, [x0, #88]
    100e50a0:	51000421 	sub	w1, w1, #0x1
    100e50a4:	7100083f 	cmp	w1, #0x2
    100e50a8:	54000069 	b.ls	100e50b4 <init_xlat_tables_ctx+0x50>  // b.plast
    100e50ac:	52809361 	mov	w1, #0x49b                 	// #1179
    100e50b0:	17fffff3 	b	100e507c <init_xlat_tables_ctx+0x18>
    100e50b4:	97fffdb6 	bl	100e478c <is_mmu_enabled_ctx>
    100e50b8:	72001c1f 	tst	w0, #0xff
    100e50bc:	54000060 	b.eq	100e50c8 <init_xlat_tables_ctx+0x64>  // b.none
    100e50c0:	528093c1 	mov	w1, #0x49e                 	// #1182
    100e50c4:	17ffffee 	b	100e507c <init_xlat_tables_ctx+0x18>
    100e50c8:	a940d275 	ldp	x21, x20, [x19, #8]
    100e50cc:	97fffd83 	bl	100e46d8 <xlat_get_min_virt_addr_space_size>
    100e50d0:	d1000400 	sub	x0, x0, #0x1
    100e50d4:	eb0002bf 	cmp	x21, x0
    100e50d8:	54000062 	b.cs	100e50e4 <init_xlat_tables_ctx+0x80>  // b.hs, b.nlast
    100e50dc:	52809441 	mov	w1, #0x4a2                 	// #1186
    100e50e0:	17ffffe7 	b	100e507c <init_xlat_tables_ctx+0x18>
    100e50e4:	f9400660 	ldr	x0, [x19, #8]
    100e50e8:	92ffffe1 	mov	x1, #0xffffffffffff        	// #281474976710655
    100e50ec:	eb01001f 	cmp	x0, x1
    100e50f0:	54000069 	b.ls	100e50fc <init_xlat_tables_ctx+0x98>  // b.plast
    100e50f4:	52809481 	mov	w1, #0x4a4                 	// #1188
    100e50f8:	17ffffe1 	b	100e507c <init_xlat_tables_ctx+0x18>
    100e50fc:	91000401 	add	x1, x0, #0x1
    100e5100:	ea00003f 	tst	x1, x0
    100e5104:	54000060 	b.eq	100e5110 <init_xlat_tables_ctx+0xac>  // b.none
    100e5108:	528094a1 	mov	w1, #0x4a5                 	// #1189
    100e510c:	17ffffdc 	b	100e507c <init_xlat_tables_ctx+0x18>
    100e5110:	aa1403e0 	mov	x0, x20
    100e5114:	9400004e 	bl	100e524c <xlat_mmap_print>
    100e5118:	b9403a61 	ldr	w1, [x19, #56]
    100e511c:	d2800000 	mov	x0, #0x0                   	// #0
    100e5120:	6b00003f 	cmp	w1, w0
    100e5124:	540001a8 	b.hi	100e5158 <init_xlat_tables_ctx+0xf4>  // b.pmore
    100e5128:	b9402a63 	ldr	w3, [x19, #40]
    100e512c:	d2800000 	mov	x0, #0x0                   	// #0
    100e5130:	6b00007f 	cmp	w3, w0
    100e5134:	540001ac 	b.gt	100e5168 <init_xlat_tables_ctx+0x104>
    100e5138:	f9400a80 	ldr	x0, [x20, #16]
    100e513c:	b5000280 	cbnz	x0, 100e518c <init_xlat_tables_ctx+0x128>
    100e5140:	f9400274 	ldr	x20, [x19]
    100e5144:	97fffd54 	bl	100e4694 <xlat_arch_get_max_supported_pa>
    100e5148:	eb00029f 	cmp	x20, x0
    100e514c:	540005a9 	b.ls	100e5200 <init_xlat_tables_ctx+0x19c>  // b.plast
    100e5150:	52809901 	mov	w1, #0x4c8                 	// #1224
    100e5154:	17ffffca 	b	100e507c <init_xlat_tables_ctx+0x18>
    100e5158:	f9401a62 	ldr	x2, [x19, #48]
    100e515c:	f820785f 	str	xzr, [x2, x0, lsl #3]
    100e5160:	91000400 	add	x0, x0, #0x1
    100e5164:	17ffffef 	b	100e5120 <init_xlat_tables_ctx+0xbc>
    100e5168:	f9401262 	ldr	x2, [x19, #32]
    100e516c:	d2800001 	mov	x1, #0x0                   	// #0
    100e5170:	8b003042 	add	x2, x2, x0, lsl #12
    100e5174:	f821785f 	str	xzr, [x2, x1, lsl #3]
    100e5178:	91000421 	add	x1, x1, #0x1
    100e517c:	f108003f 	cmp	x1, #0x200
    100e5180:	54ffffa1 	b.ne	100e5174 <init_xlat_tables_ctx+0x110>  // b.any
    100e5184:	91000400 	add	x0, x0, #0x1
    100e5188:	17ffffea 	b	100e5130 <init_xlat_tables_ctx+0xcc>
    100e518c:	b9403a64 	ldr	w4, [x19, #56]
    100e5190:	aa1403e1 	mov	x1, x20
    100e5194:	b9405265 	ldr	w5, [x19, #80]
    100e5198:	d2800002 	mov	x2, #0x0                   	// #0
    100e519c:	f9401a63 	ldr	x3, [x19, #48]
    100e51a0:	aa1303e0 	mov	x0, x19
    100e51a4:	97fffe6d 	bl	100e4b58 <xlat_tables_map_region>
    100e51a8:	aa0003f5 	mov	x21, x0
    100e51ac:	f9401a60 	ldr	x0, [x19, #48]
    100e51b0:	b9403a61 	ldr	w1, [x19, #56]
    100e51b4:	d37df021 	lsl	x1, x1, #3
    100e51b8:	97fffe17 	bl	100e4a14 <xlat_clean_dcache_range>
    100e51bc:	a9408e81 	ldp	x1, x3, [x20, #8]
    100e51c0:	8b030020 	add	x0, x1, x3
    100e51c4:	d1000400 	sub	x0, x0, #0x1
    100e51c8:	eb15001f 	cmp	x0, x21
    100e51cc:	54000160 	b.eq	100e51f8 <init_xlat_tables_ctx+0x194>  // b.none
    100e51d0:	b9401a84 	ldr	w4, [x20, #24]
    100e51d4:	f0000000 	adrp	x0, 100e8000 <__TEXT_END__>
    100e51d8:	9136f800 	add	x0, x0, #0xdbe
    100e51dc:	f9400282 	ldr	x2, [x20]
    100e51e0:	97fffb6d 	bl	100e3f94 <tf_log>
    100e51e4:	f0000000 	adrp	x0, 100e8000 <__TEXT_END__>
    100e51e8:	91383400 	add	x0, x0, #0xe0d
    100e51ec:	97fffc63 	bl	100e4378 <backtrace>
    100e51f0:	97fffc00 	bl	100e41f0 <console_flush>
    100e51f4:	94000349 	bl	100e5f18 <do_panic>
    100e51f8:	9100a294 	add	x20, x20, #0x28
    100e51fc:	17ffffcf 	b	100e5138 <init_xlat_tables_ctx+0xd4>
    100e5200:	f9400660 	ldr	x0, [x19, #8]
    100e5204:	f9402661 	ldr	x1, [x19, #72]
    100e5208:	eb00003f 	cmp	x1, x0
    100e520c:	54000069 	b.ls	100e5218 <init_xlat_tables_ctx+0x1b4>  // b.plast
    100e5210:	52809921 	mov	w1, #0x4c9                 	// #1225
    100e5214:	17ffff9a 	b	100e507c <init_xlat_tables_ctx+0x18>
    100e5218:	f9400260 	ldr	x0, [x19]
    100e521c:	f9402261 	ldr	x1, [x19, #64]
    100e5220:	eb00003f 	cmp	x1, x0
    100e5224:	54000069 	b.ls	100e5230 <init_xlat_tables_ctx+0x1cc>  // b.plast
    100e5228:	52809941 	mov	w1, #0x4ca                 	// #1226
    100e522c:	17ffff94 	b	100e507c <init_xlat_tables_ctx+0x18>
    100e5230:	52800020 	mov	w0, #0x1                   	// #1
    100e5234:	39015260 	strb	w0, [x19, #84]
    100e5238:	aa1303e0 	mov	x0, x19
    100e523c:	a94153f3 	ldp	x19, x20, [sp, #16]
    100e5240:	f94013f5 	ldr	x21, [sp, #32]
    100e5244:	a8c37bfd 	ldp	x29, x30, [sp], #48
    100e5248:	14000002 	b	100e5250 <xlat_tables_print>

00000000100e524c <xlat_mmap_print>:
    100e524c:	d65f03c0 	ret

00000000100e5250 <xlat_tables_print>:
    100e5250:	d65f03c0 	ret

00000000100e5254 <cortex_a53_disable_dcache>:
    100e5254:	d53e1001 	mrs	x1, sctlr_el3
    100e5258:	927df821 	and	x1, x1, #0xfffffffffffffffb
    100e525c:	d51e1001 	msr	sctlr_el3, x1
    100e5260:	d5033fdf 	isb
    100e5264:	d65f03c0 	ret

00000000100e5268 <cortex_a53_disable_smp>:
    100e5268:	d539f220 	mrs	x0, s3_1_c15_c2_1
    100e526c:	9279f800 	and	x0, x0, #0xffffffffffffffbf
    100e5270:	d519f220 	msr	s3_1_c15_c2_1, x0
    100e5274:	d5033fdf 	isb
    100e5278:	d5033f9f 	dsb	sy
    100e527c:	d65f03c0 	ret

00000000100e5280 <check_errata_819472>:
    100e5280:	d2800021 	mov	x1, #0x1                   	// #1
    100e5284:	140001fc 	b	100e5a74 <cpu_rev_var_ls>

00000000100e5288 <check_errata_824069>:
    100e5288:	d2800041 	mov	x1, #0x2                   	// #2
    100e528c:	140001fa 	b	100e5a74 <cpu_rev_var_ls>

00000000100e5290 <errata_a53_826319_wa>:
    100e5290:	aa1e03f1 	mov	x17, x30
    100e5294:	94000007 	bl	100e52b0 <check_errata_826319>
    100e5298:	b40000a0 	cbz	x0, 100e52ac <errata_a53_826319_wa+0x1c>
    100e529c:	d539f001 	mrs	x1, s3_1_c15_c0_0
    100e52a0:	9271f821 	and	x1, x1, #0xffffffffffffbfff
    100e52a4:	b27d0021 	orr	x1, x1, #0x8
    100e52a8:	d519f001 	msr	s3_1_c15_c0_0, x1
    100e52ac:	d65f0220 	ret	x17

00000000100e52b0 <check_errata_826319>:
    100e52b0:	d2800041 	mov	x1, #0x2                   	// #2
    100e52b4:	140001f0 	b	100e5a74 <cpu_rev_var_ls>

00000000100e52b8 <check_errata_827319>:
    100e52b8:	d2800041 	mov	x1, #0x2                   	// #2
    100e52bc:	140001ee 	b	100e5a74 <cpu_rev_var_ls>

00000000100e52c0 <a53_disable_non_temporal_hint>:
    100e52c0:	aa1e03f1 	mov	x17, x30
    100e52c4:	94000006 	bl	100e52dc <check_errata_disable_non_temporal_hint>
    100e52c8:	b4000080 	cbz	x0, 100e52d8 <a53_disable_non_temporal_hint+0x18>
    100e52cc:	d539f201 	mrs	x1, s3_1_c15_c2_0
    100e52d0:	b2680021 	orr	x1, x1, #0x1000000
    100e52d4:	d519f201 	msr	s3_1_c15_c2_0, x1
    100e52d8:	d65f0220 	ret	x17

00000000100e52dc <check_errata_disable_non_temporal_hint>:
    100e52dc:	d2800061 	mov	x1, #0x3                   	// #3
    100e52e0:	140001e5 	b	100e5a74 <cpu_rev_var_ls>

00000000100e52e4 <errata_a53_855873_wa>:
    100e52e4:	aa1e03f1 	mov	x17, x30
    100e52e8:	94000006 	bl	100e5300 <check_errata_855873>
    100e52ec:	b4000080 	cbz	x0, 100e52fc <errata_a53_855873_wa+0x18>
    100e52f0:	d539f201 	mrs	x1, s3_1_c15_c2_0
    100e52f4:	b2540021 	orr	x1, x1, #0x100000000000
    100e52f8:	d519f201 	msr	s3_1_c15_c2_0, x1
    100e52fc:	d65f0220 	ret	x17

00000000100e5300 <check_errata_855873>:
    100e5300:	d2800061 	mov	x1, #0x3                   	// #3
    100e5304:	140001e1 	b	100e5a88 <cpu_rev_var_hs>

00000000100e5308 <check_errata_835769>:
    100e5308:	f100101f 	cmp	x0, #0x4
    100e530c:	540000c8 	b.hi	100e5324 <errata_not_applies>  // b.pmore
    100e5310:	f100041f 	cmp	x0, #0x1
    100e5314:	d2800020 	mov	x0, #0x1                   	// #1
    100e5318:	54000089 	b.ls	100e5328 <exit_check_errata_835769>  // b.plast
    100e531c:	d53800c1 	mrs	x1, revidr_el1
    100e5320:	36380041 	tbz	w1, #7, 100e5328 <exit_check_errata_835769>

00000000100e5324 <errata_not_applies>:
    100e5324:	d2800000 	mov	x0, #0x0                   	// #0

00000000100e5328 <exit_check_errata_835769>:
    100e5328:	d65f03c0 	ret

00000000100e532c <check_errata_843419>:
    100e532c:	d2800021 	mov	x1, #0x1                   	// #1
    100e5330:	d2800002 	mov	x2, #0x0                   	// #0
    100e5334:	f100101f 	cmp	x0, #0x4
    100e5338:	9a829020 	csel	x0, x1, x2, ls  // ls = plast
    100e533c:	54000081 	b.ne	100e534c <exit_check_errata_843419>  // b.any
    100e5340:	d53800c3 	mrs	x3, revidr_el1
    100e5344:	36400043 	tbz	w3, #8, 100e534c <exit_check_errata_843419>
    100e5348:	aa0203e0 	mov	x0, x2

00000000100e534c <exit_check_errata_843419>:
    100e534c:	d65f03c0 	ret

00000000100e5350 <cortex_a53_reset_func>:
    100e5350:	aa1e03f3 	mov	x19, x30
    100e5354:	940001c4 	bl	100e5a64 <cpu_get_rev_var>
    100e5358:	aa0003f2 	mov	x18, x0
    100e535c:	aa1203e0 	mov	x0, x18
    100e5360:	97ffffcc 	bl	100e5290 <errata_a53_826319_wa>
    100e5364:	aa1203e0 	mov	x0, x18
    100e5368:	97ffffd6 	bl	100e52c0 <a53_disable_non_temporal_hint>
    100e536c:	aa1203e0 	mov	x0, x18
    100e5370:	97ffffdd 	bl	100e52e4 <errata_a53_855873_wa>
    100e5374:	d539f220 	mrs	x0, s3_1_c15_c2_1
    100e5378:	b27a0000 	orr	x0, x0, #0x40
    100e537c:	d519f220 	msr	s3_1_c15_c2_1, x0
    100e5380:	d5033fdf 	isb
    100e5384:	d65f0260 	ret	x19

00000000100e5388 <cortex_a53_core_pwr_dwn>:
    100e5388:	aa1e03f2 	mov	x18, x30
    100e538c:	97ffffb2 	bl	100e5254 <cortex_a53_disable_dcache>
    100e5390:	d2800020 	mov	x0, #0x1                   	// #1
    100e5394:	94000353 	bl	100e60e0 <dcsw_op_level1>
    100e5398:	aa1203fe 	mov	x30, x18
    100e539c:	17ffffb3 	b	100e5268 <cortex_a53_disable_smp>

00000000100e53a0 <cortex_a53_cluster_pwr_dwn>:
    100e53a0:	aa1e03f2 	mov	x18, x30
    100e53a4:	97ffffac 	bl	100e5254 <cortex_a53_disable_dcache>
    100e53a8:	d2800020 	mov	x0, #0x1                   	// #1
    100e53ac:	9400034d 	bl	100e60e0 <dcsw_op_level1>
    100e53b0:	9400039c 	bl	100e6220 <plat_disable_acp>
    100e53b4:	d2800020 	mov	x0, #0x1                   	// #1
    100e53b8:	9400034e 	bl	100e60f0 <dcsw_op_level2>
    100e53bc:	aa1203fe 	mov	x30, x18
    100e53c0:	17ffffaa 	b	100e5268 <cortex_a53_disable_smp>

00000000100e53c4 <cortex_a53_errata_report>:
    100e53c4:	a9bf7be8 	stp	x8, x30, [sp, #-16]!
    100e53c8:	940001a7 	bl	100e5a64 <cpu_get_rev_var>
    100e53cc:	aa0003e8 	mov	x8, x0
    100e53d0:	aa0803e0 	mov	x0, x8
    100e53d4:	97ffffab 	bl	100e5280 <check_errata_819472>
    100e53d8:	b4000040 	cbz	x0, 100e53e0 <cortex_a53_errata_report+0x1c>
    100e53dc:	d2800040 	mov	x0, #0x2                   	// #2
    100e53e0:	3001d461 	adr	x1, 100e8e6d <cortex_a53_cpu_str>
    100e53e4:	5001d1e2 	adr	x2, 100e8e22 <cortex_a53_errata_819472_str>
    100e53e8:	97fff0ca 	bl	100e1710 <errata_print_msg>
    100e53ec:	aa0803e0 	mov	x0, x8
    100e53f0:	97ffffa6 	bl	100e5288 <check_errata_824069>
    100e53f4:	b4000040 	cbz	x0, 100e53fc <cortex_a53_errata_report+0x38>
    100e53f8:	d2800040 	mov	x0, #0x2                   	// #2
    100e53fc:	3001d381 	adr	x1, 100e8e6d <cortex_a53_cpu_str>
    100e5400:	3001d142 	adr	x2, 100e8e29 <cortex_a53_errata_824069_str>
    100e5404:	97fff0c3 	bl	100e1710 <errata_print_msg>
    100e5408:	aa0803e0 	mov	x0, x8
    100e540c:	97ffffa9 	bl	100e52b0 <check_errata_826319>
    100e5410:	3001d2e1 	adr	x1, 100e8e6d <cortex_a53_cpu_str>
    100e5414:	1001d0e2 	adr	x2, 100e8e30 <cortex_a53_errata_826319_str>
    100e5418:	97fff0be 	bl	100e1710 <errata_print_msg>
    100e541c:	aa0803e0 	mov	x0, x8
    100e5420:	97ffffa6 	bl	100e52b8 <check_errata_827319>
    100e5424:	b4000040 	cbz	x0, 100e542c <cortex_a53_errata_report+0x68>
    100e5428:	d2800040 	mov	x0, #0x2                   	// #2
    100e542c:	3001d201 	adr	x1, 100e8e6d <cortex_a53_cpu_str>
    100e5430:	7001d022 	adr	x2, 100e8e37 <cortex_a53_errata_827319_str>
    100e5434:	97fff0b7 	bl	100e1710 <errata_print_msg>
    100e5438:	aa0803e0 	mov	x0, x8
    100e543c:	97ffffb3 	bl	100e5308 <check_errata_835769>
    100e5440:	3001d161 	adr	x1, 100e8e6d <cortex_a53_cpu_str>
    100e5444:	5001cfc2 	adr	x2, 100e8e3e <cortex_a53_errata_835769_str>
    100e5448:	97fff0b2 	bl	100e1710 <errata_print_msg>
    100e544c:	aa0803e0 	mov	x0, x8
    100e5450:	97ffffa3 	bl	100e52dc <check_errata_disable_non_temporal_hint>
    100e5454:	3001d0c1 	adr	x1, 100e8e6d <cortex_a53_cpu_str>
    100e5458:	3001cf62 	adr	x2, 100e8e45 <cortex_a53_errata_disable_non_temporal_hint_str>
    100e545c:	97fff0ad 	bl	100e1710 <errata_print_msg>
    100e5460:	aa0803e0 	mov	x0, x8
    100e5464:	97ffffb2 	bl	100e532c <check_errata_843419>
    100e5468:	3001d021 	adr	x1, 100e8e6d <cortex_a53_cpu_str>
    100e546c:	7001cf82 	adr	x2, 100e8e5f <cortex_a53_errata_843419_str>
    100e5470:	97fff0a8 	bl	100e1710 <errata_print_msg>
    100e5474:	aa0803e0 	mov	x0, x8
    100e5478:	97ffffa2 	bl	100e5300 <check_errata_855873>
    100e547c:	3001cf81 	adr	x1, 100e8e6d <cortex_a53_cpu_str>
    100e5480:	5001cf22 	adr	x2, 100e8e66 <cortex_a53_errata_855873_str>
    100e5484:	97fff0a3 	bl	100e1710 <errata_print_msg>
    100e5488:	a8c17be8 	ldp	x8, x30, [sp], #16
    100e548c:	d65f03c0 	ret

00000000100e5490 <cortex_a53_cpu_reg_dump>:
    100e5490:	1001cf46 	adr	x6, 100e8e78 <cortex_a53_regs>
    100e5494:	d539f228 	mrs	x8, s3_1_c15_c2_1
    100e5498:	d539f249 	mrs	x9, s3_1_c15_c2_2
    100e549c:	d539f26a 	mrs	x10, s3_1_c15_c2_3
    100e54a0:	d539f20b 	mrs	x11, s3_1_c15_c2_0
    100e54a4:	d65f03c0 	ret

00000000100e54a8 <plat_my_core_pos>:
    100e54a8:	d53800a0 	mrs	x0, mpidr_el1
    100e54ac:	14000001 	b	100e54b0 <plat_rpi3_calc_core_pos>

00000000100e54b0 <plat_rpi3_calc_core_pos>:
    100e54b0:	92401c01 	and	x1, x0, #0xff
    100e54b4:	92781c00 	and	x0, x0, #0xff00
    100e54b8:	8b401820 	add	x0, x1, x0, lsr #6
    100e54bc:	d65f03c0 	ret

00000000100e54c0 <plat_crash_console_init>:
    100e54c0:	d28a0800 	mov	x0, #0x5040                	// #20544
    100e54c4:	f2a7e420 	movk	x0, #0x3f21, lsl #16
    100e54c8:	d28ca001 	mov	x1, #0x6500                	// #25856
    100e54cc:	f2a3b9a1 	movk	x1, #0x1dcd, lsl #16
    100e54d0:	d2984002 	mov	x2, #0xc200                	// #49664
    100e54d4:	f2a00022 	movk	x2, #0x1, lsl #16
    100e54d8:	14000358 	b	100e6238 <console_16550_core_init>

00000000100e54dc <plat_crash_console_putc>:
    100e54dc:	d28a0801 	mov	x1, #0x5040                	// #20544
    100e54e0:	f2a7e421 	movk	x1, #0x3f21, lsl #16
    100e54e4:	14000386 	b	100e62fc <console_16550_core_putc>

00000000100e54e8 <plat_crash_console_flush>:
    100e54e8:	d28a0800 	mov	x0, #0x5040                	// #20544
    100e54ec:	f2a7e420 	movk	x0, #0x3f21, lsl #16
    100e54f0:	140003af 	b	100e63ac <console_16550_core_flush>

00000000100e54f4 <size_controlled_print>:
    100e54f4:	910003df 	mov	sp, x30
    100e54f8:	d53ed047 	mrs	x7, tpidr_el3

00000000100e54fc <test_size_list>:
    100e54fc:	d53ed045 	mrs	x5, tpidr_el3
    100e5500:	910100a5 	add	x5, x5, #0x40
    100e5504:	eb0500ff 	cmp	x7, x5
    100e5508:	54000180 	b.eq	100e5538 <exit_size_print>  // b.none
    100e550c:	394000c4 	ldrb	w4, [x6]
    100e5510:	34000144 	cbz	w4, 100e5538 <exit_size_print>
    100e5514:	aa0603e4 	mov	x4, x6
    100e5518:	9400026c 	bl	100e5ec8 <asm_print_str>
    100e551c:	cb060080 	sub	x0, x4, x6
    100e5520:	aa0403e6 	mov	x6, x4
    100e5524:	94000007 	bl	100e5540 <print_alignment>
    100e5528:	f84084e4 	ldr	x4, [x7], #8
    100e552c:	9400026d 	bl	100e5ee0 <asm_print_hex>
    100e5530:	94000278 	bl	100e5f10 <asm_print_newline>
    100e5534:	17fffff2 	b	100e54fc <test_size_list>

00000000100e5538 <exit_size_print>:
    100e5538:	910003fe 	mov	x30, sp
    100e553c:	d65f03c0 	ret

00000000100e5540 <print_alignment>:
    100e5540:	7001cb44 	adr	x4, 100e8eab <cortex_a53_regs+0x33>
    100e5544:	8b000084 	add	x4, x4, x0
    100e5548:	14000260 	b	100e5ec8 <asm_print_str>

00000000100e554c <str_in_crash_buf_print>:
    100e554c:	d53ed040 	mrs	x0, tpidr_el3
    100e5550:	a9002408 	stp	x8, x9, [x0]
    100e5554:	a9012c0a 	stp	x10, x11, [x0, #16]
    100e5558:	a902340c 	stp	x12, x13, [x0, #32]
    100e555c:	a9033c0e 	stp	x14, x15, [x0, #48]
    100e5560:	17ffffe5 	b	100e54f4 <size_controlled_print>

00000000100e5564 <report_unhandled_exception>:
    100e5564:	9100001f 	mov	sp, x0
    100e5568:	d53ed040 	mrs	x0, tpidr_el3
    100e556c:	9100a000 	add	x0, x0, #0x28
    100e5570:	d51ed040 	msr	tpidr_el3, x0
    100e5574:	f9000401 	str	x1, [x0, #8]
    100e5578:	910003e1 	mov	x1, sp
    100e557c:	f9000001 	str	x1, [x0]
    100e5580:	3001dc00 	adr	x0, 100e9101 <excpt_msg>
    100e5584:	9100001f 	mov	sp, x0
    100e5588:	14000016 	b	100e55e0 <do_crash_reporting>

00000000100e558c <report_unhandled_interrupt>:
    100e558c:	9100001f 	mov	sp, x0
    100e5590:	d53ed040 	mrs	x0, tpidr_el3
    100e5594:	9100a000 	add	x0, x0, #0x28
    100e5598:	d51ed040 	msr	tpidr_el3, x0
    100e559c:	f9000401 	str	x1, [x0, #8]
    100e55a0:	910003e1 	mov	x1, sp
    100e55a4:	f9000001 	str	x1, [x0]
    100e55a8:	3001dbc0 	adr	x0, 100e9121 <intr_excpt_msg>
    100e55ac:	9100001f 	mov	sp, x0
    100e55b0:	1400000c 	b	100e55e0 <do_crash_reporting>

00000000100e55b4 <el3_panic>:
    100e55b4:	d50041bf 	msr	spsel, #0x1
    100e55b8:	9100001f 	mov	sp, x0
    100e55bc:	d53ed040 	mrs	x0, tpidr_el3
    100e55c0:	9100a000 	add	x0, x0, #0x28
    100e55c4:	d51ed040 	msr	tpidr_el3, x0
    100e55c8:	f9000401 	str	x1, [x0, #8]
    100e55cc:	910003e1 	mov	x1, sp
    100e55d0:	f9000001 	str	x1, [x0]
    100e55d4:	7001d8c0 	adr	x0, 100e90ef <panic_msg>
    100e55d8:	9100001f 	mov	sp, x0
    100e55dc:	14000001 	b	100e55e0 <do_crash_reporting>

00000000100e55e0 <do_crash_reporting>:
    100e55e0:	d53ed040 	mrs	x0, tpidr_el3
    100e55e4:	a9010c02 	stp	x2, x3, [x0, #16]
    100e55e8:	a9021404 	stp	x4, x5, [x0, #32]
    100e55ec:	a9037806 	stp	x6, x30, [x0, #48]
    100e55f0:	97ffffb4 	bl	100e54c0 <plat_crash_console_init>
    100e55f4:	b4000ae0 	cbz	x0, 100e5750 <crash_panic>
    100e55f8:	910003e4 	mov	x4, sp
    100e55fc:	94000233 	bl	100e5ec8 <asm_print_str>
    100e5600:	d2800080 	mov	x0, #0x4                   	// #4
    100e5604:	97ffffcf 	bl	100e5540 <print_alignment>
    100e5608:	d53ed040 	mrs	x0, tpidr_el3
    100e560c:	f9401c04 	ldr	x4, [x0, #56]
    100e5610:	94000234 	bl	100e5ee0 <asm_print_hex>
    100e5614:	9400023f 	bl	100e5f10 <asm_print_newline>
    100e5618:	d53ed040 	mrs	x0, tpidr_el3
    100e561c:	f9001c07 	str	x7, [x0, #56]
    100e5620:	1001c506 	adr	x6, 100e8ec0 <gp_regs>
    100e5624:	97ffffb4 	bl	100e54f4 <size_controlled_print>
    100e5628:	97ffffc9 	bl	100e554c <str_in_crash_buf_print>
    100e562c:	d53ed040 	mrs	x0, tpidr_el3
    100e5630:	a9004410 	stp	x16, x17, [x0]
    100e5634:	a9014c12 	stp	x18, x19, [x0, #16]
    100e5638:	a9025414 	stp	x20, x21, [x0, #32]
    100e563c:	a9035c16 	stp	x22, x23, [x0, #48]
    100e5640:	97ffffad 	bl	100e54f4 <size_controlled_print>
    100e5644:	d53ed040 	mrs	x0, tpidr_el3
    100e5648:	a9006418 	stp	x24, x25, [x0]
    100e564c:	a9016c1a 	stp	x26, x27, [x0, #16]
    100e5650:	a902741c 	stp	x28, x29, [x0, #32]
    100e5654:	97ffffa8 	bl	100e54f4 <size_controlled_print>
    100e5658:	7001c6a6 	adr	x6, 100e8f2f <el3_sys_regs>
    100e565c:	d53e1108 	mrs	x8, scr_el3
    100e5660:	d53e1009 	mrs	x9, sctlr_el3
    100e5664:	d53e114a 	mrs	x10, cptr_el3
    100e5668:	d53e204b 	mrs	x11, tcr_el3
    100e566c:	d53b422c 	mrs	x12, daif
    100e5670:	d53ea20d 	mrs	x13, mair_el3
    100e5674:	d53e400e 	mrs	x14, spsr_el3
    100e5678:	d53e402f 	mrs	x15, elr_el3
    100e567c:	97ffffb4 	bl	100e554c <str_in_crash_buf_print>
    100e5680:	d53e2008 	mrs	x8, ttbr0_el3
    100e5684:	d53e5209 	mrs	x9, esr_el3
    100e5688:	d53e600a 	mrs	x10, far_el3
    100e568c:	97ffffb0 	bl	100e554c <str_in_crash_buf_print>
    100e5690:	1001c7e6 	adr	x6, 100e8f8c <non_el3_sys_regs>
    100e5694:	d5384008 	mrs	x8, spsr_el1
    100e5698:	d5384029 	mrs	x9, elr_el1
    100e569c:	d53c432a 	mrs	x10, spsr_abt
    100e56a0:	d53c434b 	mrs	x11, spsr_und
    100e56a4:	d53c430c 	mrs	x12, spsr_irq
    100e56a8:	d53c436d 	mrs	x13, spsr_fiq
    100e56ac:	d538100e 	mrs	x14, sctlr_el1
    100e56b0:	d538102f 	mrs	x15, actlr_el1
    100e56b4:	97ffffa6 	bl	100e554c <str_in_crash_buf_print>
    100e56b8:	d5381048 	mrs	x8, cpacr_el1
    100e56bc:	d53a0009 	mrs	x9, csselr_el1
    100e56c0:	d53c410a 	mrs	x10, sp_el1
    100e56c4:	d538520b 	mrs	x11, esr_el1
    100e56c8:	d538200c 	mrs	x12, ttbr0_el1
    100e56cc:	d538202d 	mrs	x13, ttbr1_el1
    100e56d0:	d538a20e 	mrs	x14, mair_el1
    100e56d4:	d538a30f 	mrs	x15, amair_el1
    100e56d8:	97ffff9d 	bl	100e554c <str_in_crash_buf_print>
    100e56dc:	d5382048 	mrs	x8, tcr_el1
    100e56e0:	d538d089 	mrs	x9, tpidr_el1
    100e56e4:	d53bd04a 	mrs	x10, tpidr_el0
    100e56e8:	d53bd06b 	mrs	x11, tpidrro_el0
    100e56ec:	d538740c 	mrs	x12, par_el1
    100e56f0:	d53800ad 	mrs	x13, mpidr_el1
    100e56f4:	d538510e 	mrs	x14, afsr0_el1
    100e56f8:	d538512f 	mrs	x15, afsr1_el1
    100e56fc:	97ffff94 	bl	100e554c <str_in_crash_buf_print>
    100e5700:	d538d028 	mrs	x8, contextidr_el1
    100e5704:	d538c009 	mrs	x9, vbar_el1
    100e5708:	d53be22a 	mrs	x10, cntp_ctl_el0
    100e570c:	d53be24b 	mrs	x11, cntp_cval_el0
    100e5710:	d53be32c 	mrs	x12, cntv_ctl_el0
    100e5714:	d53be34d 	mrs	x13, cntv_cval_el0
    100e5718:	d538e10e 	mrs	x14, cntkctl_el1
    100e571c:	d538410f 	mrs	x15, sp_el0
    100e5720:	97ffff8b 	bl	100e554c <str_in_crash_buf_print>
    100e5724:	d538c108 	mrs	x8, isr_el1
    100e5728:	97ffff89 	bl	100e554c <str_in_crash_buf_print>
    100e572c:	1001cd66 	adr	x6, 100e90d8 <aarch32_regs>
    100e5730:	d53c3008 	mrs	x8, dacr32_el2
    100e5734:	d53c5029 	mrs	x9, ifsr32_el2
    100e5738:	97ffff85 	bl	100e554c <str_in_crash_buf_print>
    100e573c:	940000b3 	bl	100e5a08 <do_cpu_reg_dump>
    100e5740:	97ffff83 	bl	100e554c <str_in_crash_buf_print>
    100e5744:	97ffff69 	bl	100e54e8 <plat_crash_console_flush>
    100e5748:	940002b7 	bl	100e6224 <plat_panic_handler>
    100e574c:	d503201f 	nop

00000000100e5750 <crash_panic>:
    100e5750:	940002b5 	bl	100e6224 <plat_panic_handler>
    100e5754:	d503201f 	nop

00000000100e5758 <enter_lower_el_sync_ea>:
    100e5758:	f9007bfe 	str	x30, [sp, #240]
    100e575c:	d53e521e 	mrs	x30, esr_el3
    100e5760:	d35a7fde 	ubfx	x30, x30, #26, #6
    100e5764:	f10083df 	cmp	x30, #0x20
    100e5768:	540001a0 	b.eq	100e579c <enter_lower_el_sync_ea+0x44>  // b.none
    100e576c:	f10093df 	cmp	x30, #0x24
    100e5770:	54000160 	b.eq	100e579c <enter_lower_el_sync_ea+0x44>  // b.none
    100e5774:	a90007e0 	stp	x0, x1, [sp]
    100e5778:	a9010fe2 	stp	x2, x3, [sp, #16]
    100e577c:	a90217e4 	stp	x4, x5, [sp, #32]
    100e5780:	940000aa 	bl	100e5a28 <get_cpu_ops_ptr>
    100e5784:	f9401000 	ldr	x0, [x0, #32]
    100e5788:	b4000180 	cbz	x0, 100e57b8 <enter_lower_el_sync_ea+0x60>
    100e578c:	d53e5201 	mrs	x1, esr_el3
    100e5790:	d35a7c21 	ubfx	x1, x1, #26, #6
    100e5794:	d63f0000 	blr	x0
    100e5798:	14000008 	b	100e57b8 <enter_lower_el_sync_ea+0x60>
    100e579c:	d53e521e 	mrs	x30, esr_el3
    100e57a0:	3648013e 	tbz	w30, #9, 100e57c4 <enter_lower_el_sync_ea+0x6c>
    100e57a4:	9400015c 	bl	100e5d14 <save_gp_pmcr_pauth_regs>
    100e57a8:	d2800020 	mov	x0, #0x1                   	// #1
    100e57ac:	d53e5201 	mrs	x1, esr_el3
    100e57b0:	1000321e 	adr	x30, 100e5df0 <el3_exit>
    100e57b4:	1400000d 	b	100e57e8 <delegate_sync_ea>
    100e57b8:	a94007e0 	ldp	x0, x1, [sp]
    100e57bc:	a9410fe2 	ldp	x2, x3, [sp, #16]
    100e57c0:	a94217e4 	ldp	x4, x5, [sp, #32]
    100e57c4:	f9407bfe 	ldr	x30, [sp, #240]
    100e57c8:	97ffff67 	bl	100e5564 <report_unhandled_exception>
    100e57cc:	d503201f 	nop

00000000100e57d0 <enter_lower_el_async_ea>:
    100e57d0:	f9007bfe 	str	x30, [sp, #240]
    100e57d4:	94000150 	bl	100e5d14 <save_gp_pmcr_pauth_regs>
    100e57d8:	d2800000 	mov	x0, #0x0                   	// #0
    100e57dc:	d53e5201 	mrs	x1, esr_el3
    100e57e0:	1000309e 	adr	x30, 100e5df0 <el3_exit>
    100e57e4:	14000002 	b	100e57ec <delegate_async_ea>

00000000100e57e8 <delegate_sync_ea>:
    100e57e8:	14000002 	b	100e57f0 <ea_proceed>

00000000100e57ec <delegate_async_ea>:
    100e57ec:	14000001 	b	100e57f0 <ea_proceed>

00000000100e57f0 <ea_proceed>:
    100e57f0:	f94087e5 	ldr	x5, [sp, #264]
    100e57f4:	b4000065 	cbz	x5, 100e5800 <ea_proceed+0x10>
    100e57f8:	9400028e 	bl	100e6230 <plat_handle_double_fault>
    100e57fc:	d503201f 	nop
    100e5800:	d53e4002 	mrs	x2, spsr_el3
    100e5804:	d53e4023 	mrs	x3, elr_el3
    100e5808:	a9118fe2 	stp	x2, x3, [sp, #280]
    100e580c:	d53e1104 	mrs	x4, scr_el3
    100e5810:	d53e5205 	mrs	x5, esr_el3
    100e5814:	a91017e4 	stp	x4, x5, [sp, #256]
    100e5818:	aa1f03e2 	mov	x2, xzr
    100e581c:	910003e3 	mov	x3, sp
    100e5820:	d3400084 	ubfx	x4, x4, #0, #1
    100e5824:	f9408be5 	ldr	x5, [sp, #272]
    100e5828:	d50040bf 	msr	spsel, #0x0
    100e582c:	910000bf 	mov	sp, x5
    100e5830:	aa1e03fd 	mov	x29, x30
    100e5834:	910003fc 	mov	x28, sp
    100e5838:	97fffa98 	bl	100e4298 <plat_ea_handler>
    100e583c:	910003fb 	mov	x27, sp
    100e5840:	eb1b039f 	cmp	x28, x27
    100e5844:	54000080 	b.eq	100e5854 <ea_proceed+0x64>  // b.none
    100e5848:	7001c800 	adr	x0, 100e914b <intr_excpt_msg+0x2a>
    100e584c:	d2802361 	mov	x1, #0x11b                 	// #283
    100e5850:	14000186 	b	100e5e68 <asm_assert>
    100e5854:	d50041bf 	msr	spsel, #0x1
    100e5858:	a9518be1 	ldp	x1, x2, [sp, #280]
    100e585c:	d51e4001 	msr	spsr_el3, x1
    100e5860:	d51e4022 	msr	elr_el3, x2
    100e5864:	a95013e3 	ldp	x3, x4, [sp, #256]
    100e5868:	d51e1103 	msr	scr_el3, x3
    100e586c:	d51e5204 	msr	esr_el3, x4
    100e5870:	eb1f009f 	cmp	x4, xzr
    100e5874:	54000081 	b.ne	100e5884 <ea_proceed+0x94>  // b.any
    100e5878:	7001c680 	adr	x0, 100e914b <intr_excpt_msg+0x2a>
    100e587c:	d28025a1 	mov	x1, #0x12d                 	// #301
    100e5880:	1400017a 	b	100e5e68 <asm_assert>
    100e5884:	f90087ff 	str	xzr, [sp, #264]
    100e5888:	d65f03a0 	ret	x29

00000000100e588c <smc_handler>:
    100e588c:	37f00380 	tbnz	w0, #30, 100e58fc <smc_prohibited>

00000000100e5890 <smc_handler64>:
    100e5890:	94000121 	bl	100e5d14 <save_gp_pmcr_pauth_regs>
    100e5894:	aa1f03e5 	mov	x5, xzr
    100e5898:	910003e6 	mov	x6, sp
    100e589c:	f94088cc 	ldr	x12, [x6, #272]
    100e58a0:	d50040bf 	msr	spsel, #0x0
    100e58a4:	d53e4010 	mrs	x16, spsr_el3
    100e58a8:	d53e4031 	mrs	x17, elr_el3
    100e58ac:	d53e1112 	mrs	x18, scr_el3
    100e58b0:	a911c4d0 	stp	x16, x17, [x6, #280]
    100e58b4:	f90080d2 	str	x18, [x6, #256]
    100e58b8:	b3400247 	bfxil	x7, x18, #0, #1
    100e58bc:	9100019f 	mov	sp, x12
    100e58c0:	d3587410 	ubfx	x16, x0, #24, #6
    100e58c4:	d35f7c0f 	ubfx	x15, x0, #31, #1
    100e58c8:	aa0f1a10 	orr	x16, x16, x15, lsl #6
    100e58cc:	10049dee 	adr	x14, 100eec88 <rt_svc_descs_indices>
    100e58d0:	387069cf 	ldrb	w15, [x14, x16]
    100e58d4:	373800ef 	tbnz	w15, #7, 100e58f0 <smc_unknown>
    100e58d8:	1001cdcb 	adr	x11, 100e9290 <__RT_SVC_DESCS_START__+0x18>
    100e58dc:	531b69ea 	lsl	w10, w15, #5
    100e58e0:	f86a496f 	ldr	x15, [x11, w10, uxtw]
    100e58e4:	b400012f 	cbz	x15, 100e5908 <rt_svc_fw_critical_error>
    100e58e8:	d63f01e0 	blr	x15
    100e58ec:	14000141 	b	100e5df0 <el3_exit>

00000000100e58f0 <smc_unknown>:
    100e58f0:	92800000 	mov	x0, #0xffffffffffffffff    	// #-1
    100e58f4:	f90000c0 	str	x0, [x6]
    100e58f8:	1400013e 	b	100e5df0 <el3_exit>

00000000100e58fc <smc_prohibited>:
    100e58fc:	f9407bfe 	ldr	x30, [sp, #240]
    100e5900:	92800000 	mov	x0, #0xffffffffffffffff    	// #-1
    100e5904:	d69f03e0 	eret

00000000100e5908 <rt_svc_fw_critical_error>:
    100e5908:	d50041bf 	msr	spsel, #0x1
    100e590c:	97ffff16 	bl	100e5564 <report_unhandled_exception>
    100e5910:	d503201f 	nop

00000000100e5914 <plat_get_my_stack>:
    100e5914:	aa1e03ea 	mov	x10, x30
    100e5918:	97fffee4 	bl	100e54a8 <plat_my_core_pos>
    100e591c:	d0000022 	adrp	x2, 100eb000 <__STACKS_START__+0xf80>
    100e5920:	91020042 	add	x2, x2, #0x80
    100e5924:	d2820001 	mov	x1, #0x1000                	// #4096
    100e5928:	9b010800 	madd	x0, x0, x1, x2
    100e592c:	d65f0140 	ret	x10

00000000100e5930 <plat_set_my_stack>:
    100e5930:	aa1e03e9 	mov	x9, x30
    100e5934:	97fffff8 	bl	100e5914 <plat_get_my_stack>
    100e5938:	9100001f 	mov	sp, x0
    100e593c:	d65f0120 	ret	x9

00000000100e5940 <init_cpu_data_ptr>:
    100e5940:	aa1e03ea 	mov	x10, x30
    100e5944:	97fffed9 	bl	100e54a8 <plat_my_core_pos>
    100e5948:	94000003 	bl	100e5954 <_cpu_data_by_index>
    100e594c:	d51ed040 	msr	tpidr_el3, x0
    100e5950:	d65f0140 	ret	x10

00000000100e5954 <_cpu_data_by_index>:
    100e5954:	d2801001 	mov	x1, #0x80                  	// #128
    100e5958:	9b017c00 	mul	x0, x0, x1
    100e595c:	10049f21 	adr	x1, 100eed40 <percpu_data>
    100e5960:	8b010000 	add	x0, x0, x1
    100e5964:	d65f03c0 	ret

00000000100e5968 <reset_handler>:
    100e5968:	aa1e03f3 	mov	x19, x30
    100e596c:	9400022c 	bl	100e621c <plat_reset_handler>
    100e5970:	9400002e 	bl	100e5a28 <get_cpu_ops_ptr>
    100e5974:	f100001f 	cmp	x0, #0x0
    100e5978:	54000081 	b.ne	100e5988 <reset_handler+0x20>  // b.any
    100e597c:	5001bf40 	adr	x0, 100e9166 <intr_excpt_msg+0x45>
    100e5980:	d2800461 	mov	x1, #0x23                  	// #35
    100e5984:	14000139 	b	100e5e68 <asm_assert>
    100e5988:	f9400402 	ldr	x2, [x0, #8]
    100e598c:	aa1303fe 	mov	x30, x19
    100e5990:	b4000042 	cbz	x2, 100e5998 <reset_handler+0x30>
    100e5994:	d61f0040 	br	x2
    100e5998:	d65f03c0 	ret

00000000100e599c <prepare_cpu_pwr_dwn>:
    100e599c:	d2800022 	mov	x2, #0x1                   	// #1
    100e59a0:	eb02001f 	cmp	x0, x2
    100e59a4:	9a808042 	csel	x2, x2, x0, hi  // hi = pmore
    100e59a8:	d53ed041 	mrs	x1, tpidr_el3
    100e59ac:	f9400820 	ldr	x0, [x1, #16]
    100e59b0:	f100001f 	cmp	x0, #0x0
    100e59b4:	54000081 	b.ne	100e59c4 <prepare_cpu_pwr_dwn+0x28>  // b.any
    100e59b8:	5001bd60 	adr	x0, 100e9166 <intr_excpt_msg+0x45>
    100e59bc:	d2800941 	mov	x1, #0x4a                  	// #74
    100e59c0:	1400012a 	b	100e5e68 <asm_assert>
    100e59c4:	d2800501 	mov	x1, #0x28                  	// #40
    100e59c8:	8b020c21 	add	x1, x1, x2, lsl #3
    100e59cc:	f8616801 	ldr	x1, [x0, x1]
    100e59d0:	d61f0020 	br	x1

00000000100e59d4 <init_cpu_ops>:
    100e59d4:	d53ed046 	mrs	x6, tpidr_el3
    100e59d8:	f94008c0 	ldr	x0, [x6, #16]
    100e59dc:	b5000140 	cbnz	x0, 100e5a04 <init_cpu_ops+0x30>
    100e59e0:	aa1e03ea 	mov	x10, x30
    100e59e4:	94000011 	bl	100e5a28 <get_cpu_ops_ptr>
    100e59e8:	f100001f 	cmp	x0, #0x0
    100e59ec:	54000081 	b.ne	100e59fc <init_cpu_ops+0x28>  // b.any
    100e59f0:	5001bba0 	adr	x0, 100e9166 <intr_excpt_msg+0x45>
    100e59f4:	d2800c81 	mov	x1, #0x64                  	// #100
    100e59f8:	1400011c 	b	100e5e68 <asm_assert>
    100e59fc:	f8010cc0 	str	x0, [x6, #16]!
    100e5a00:	aa0a03fe 	mov	x30, x10
    100e5a04:	d65f03c0 	ret

00000000100e5a08 <do_cpu_reg_dump>:
    100e5a08:	aa1e03f0 	mov	x16, x30
    100e5a0c:	94000007 	bl	100e5a28 <get_cpu_ops_ptr>
    100e5a10:	b4000080 	cbz	x0, 100e5a20 <do_cpu_reg_dump+0x18>
    100e5a14:	f9402802 	ldr	x2, [x0, #80]
    100e5a18:	b4000042 	cbz	x2, 100e5a20 <do_cpu_reg_dump+0x18>
    100e5a1c:	d63f0040 	blr	x2
    100e5a20:	aa1003fe 	mov	x30, x16
    100e5a24:	d65f03c0 	ret

00000000100e5a28 <get_cpu_ops_ptr>:
    100e5a28:	1001c684 	adr	x4, 100e92f8 <__CPU_OPS_START__>
    100e5a2c:	1001c925 	adr	x5, 100e9350 <__cb_func_spe_drain_buffers_hookcm_entering_secure_world>
    100e5a30:	d2800000 	mov	x0, #0x0                   	// #0
    100e5a34:	d5380002 	mrs	x2, midr_el1
    100e5a38:	d29ffe03 	mov	x3, #0xfff0                	// #65520
    100e5a3c:	f2bfe003 	movk	x3, #0xff00, lsl #16
    100e5a40:	0a030042 	and	w2, w2, w3
    100e5a44:	eb05009f 	cmp	x4, x5
    100e5a48:	540000c0 	b.eq	100e5a60 <error_exit>  // b.none
    100e5a4c:	f8458481 	ldr	x1, [x4], #88
    100e5a50:	0a030021 	and	w1, w1, w3
    100e5a54:	6b02003f 	cmp	w1, w2
    100e5a58:	54ffff61 	b.ne	100e5a44 <get_cpu_ops_ptr+0x1c>  // b.any
    100e5a5c:	d1016080 	sub	x0, x4, #0x58

00000000100e5a60 <error_exit>:
    100e5a60:	d65f03c0 	ret

00000000100e5a64 <cpu_get_rev_var>:
    100e5a64:	d5380001 	mrs	x1, midr_el1
    100e5a68:	d3505c20 	ubfx	x0, x1, #16, #8
    100e5a6c:	b3400c20 	bfxil	x0, x1, #0, #4
    100e5a70:	d65f03c0 	ret

00000000100e5a74 <cpu_rev_var_ls>:
    100e5a74:	d2800022 	mov	x2, #0x1                   	// #1
    100e5a78:	d2800003 	mov	x3, #0x0                   	// #0
    100e5a7c:	eb01001f 	cmp	x0, x1
    100e5a80:	9a839040 	csel	x0, x2, x3, ls  // ls = plast
    100e5a84:	d65f03c0 	ret

00000000100e5a88 <cpu_rev_var_hs>:
    100e5a88:	d2800022 	mov	x2, #0x1                   	// #1
    100e5a8c:	d2800003 	mov	x3, #0x0                   	// #0
    100e5a90:	eb01001f 	cmp	x0, x1
    100e5a94:	9a832040 	csel	x0, x2, x3, cs  // cs = hs, nlast
    100e5a98:	d65f03c0 	ret

00000000100e5a9c <print_errata_status>:
    100e5a9c:	d53ed040 	mrs	x0, tpidr_el3
    100e5aa0:	f9400801 	ldr	x1, [x0, #16]
    100e5aa4:	f9401c20 	ldr	x0, [x1, #56]
    100e5aa8:	b4000120 	cbz	x0, 100e5acc <print_errata_status+0x30>
    100e5aac:	a9bf7bf3 	stp	x19, x30, [sp, #-16]!
    100e5ab0:	aa0003f3 	mov	x19, x0
    100e5ab4:	f9402020 	ldr	x0, [x1, #64]
    100e5ab8:	f9402421 	ldr	x1, [x1, #72]
    100e5abc:	97ffeefd 	bl	100e16b0 <errata_needs_reporting>
    100e5ac0:	aa1303e1 	mov	x1, x19
    100e5ac4:	a8c17bf3 	ldp	x19, x30, [sp], #16
    100e5ac8:	b5000040 	cbnz	x0, 100e5ad0 <print_errata_status+0x34>
    100e5acc:	d65f03c0 	ret
    100e5ad0:	d61f0020 	br	x1

00000000100e5ad4 <spin_lock>:
    100e5ad4:	52800022 	mov	w2, #0x1                   	// #1
    100e5ad8:	d50320bf 	sevl

00000000100e5adc <l1>:
    100e5adc:	d503205f 	wfe

00000000100e5ae0 <l2>:
    100e5ae0:	885ffc01 	ldaxr	w1, [x0]
    100e5ae4:	35ffffc1 	cbnz	w1, 100e5adc <l1>
    100e5ae8:	88017c02 	stxr	w1, w2, [x0]
    100e5aec:	35ffffa1 	cbnz	w1, 100e5ae0 <l2>
    100e5af0:	d65f03c0 	ret

00000000100e5af4 <spin_unlock>:
    100e5af4:	889ffc1f 	stlr	wzr, [x0]
    100e5af8:	d65f03c0 	ret

00000000100e5afc <psci_do_pwrdown_cache_maintenance>:
    100e5afc:	a9bf7bfd 	stp	x29, x30, [sp, #-16]!
    100e5b00:	a9bf53f3 	stp	x19, x20, [sp, #-16]!
    100e5b04:	97ffffa6 	bl	100e599c <prepare_cpu_pwr_dwn>
    100e5b08:	97ffff83 	bl	100e5914 <plat_get_my_stack>
    100e5b0c:	aa0003f3 	mov	x19, x0
    100e5b10:	910003e1 	mov	x1, sp
    100e5b14:	cb010001 	sub	x1, x0, x1
    100e5b18:	910003e0 	mov	x0, sp
    100e5b1c:	94000110 	bl	100e5f5c <flush_dcache_range>
    100e5b20:	d1400660 	sub	x0, x19, #0x1, lsl #12
    100e5b24:	cb2063e1 	sub	x1, sp, x0
    100e5b28:	94000129 	bl	100e5fcc <inv_dcache_range>
    100e5b2c:	a8c153f3 	ldp	x19, x20, [sp], #16
    100e5b30:	a8c17bfd 	ldp	x29, x30, [sp], #16
    100e5b34:	d65f03c0 	ret

00000000100e5b38 <psci_do_pwrup_cache_maintenance>:
    100e5b38:	a9bf7bfd 	stp	x29, x30, [sp, #-16]!
    100e5b3c:	d5033ebf 	dmb	st
    100e5b40:	97ffff75 	bl	100e5914 <plat_get_my_stack>
    100e5b44:	910003e1 	mov	x1, sp
    100e5b48:	cb010001 	sub	x1, x0, x1
    100e5b4c:	910003e0 	mov	x0, sp
    100e5b50:	9400011f 	bl	100e5fcc <inv_dcache_range>
    100e5b54:	d53e1000 	mrs	x0, sctlr_el3
    100e5b58:	b27e0000 	orr	x0, x0, #0x4
    100e5b5c:	d51e1000 	msr	sctlr_el3, x0
    100e5b60:	d5033fdf 	isb
    100e5b64:	a8c17bfd 	ldp	x29, x30, [sp], #16
    100e5b68:	d65f03c0 	ret

00000000100e5b6c <psci_power_down_wfi>:
    100e5b6c:	d5033f9f 	dsb	sy
    100e5b70:	d503207f 	wfi
    100e5b74:	940001ac 	bl	100e6224 <plat_panic_handler>
    100e5b78:	d503201f 	nop

00000000100e5b7c <el1_sysregs_context_save>:
    100e5b7c:	d5384009 	mrs	x9, spsr_el1
    100e5b80:	d538402a 	mrs	x10, elr_el1
    100e5b84:	a9002809 	stp	x9, x10, [x0]
    100e5b88:	d538100f 	mrs	x15, sctlr_el1
    100e5b8c:	d5381030 	mrs	x16, actlr_el1
    100e5b90:	a901400f 	stp	x15, x16, [x0, #16]
    100e5b94:	d5381051 	mrs	x17, cpacr_el1
    100e5b98:	d53a0009 	mrs	x9, csselr_el1
    100e5b9c:	a9022411 	stp	x17, x9, [x0, #32]
    100e5ba0:	d53c410a 	mrs	x10, sp_el1
    100e5ba4:	d538520b 	mrs	x11, esr_el1
    100e5ba8:	a9032c0a 	stp	x10, x11, [x0, #48]
    100e5bac:	d538200c 	mrs	x12, ttbr0_el1
    100e5bb0:	d538202d 	mrs	x13, ttbr1_el1
    100e5bb4:	a904340c 	stp	x12, x13, [x0, #64]
    100e5bb8:	d538a20e 	mrs	x14, mair_el1
    100e5bbc:	d538a30f 	mrs	x15, amair_el1
    100e5bc0:	a9053c0e 	stp	x14, x15, [x0, #80]
    100e5bc4:	d5382050 	mrs	x16, tcr_el1
    100e5bc8:	d538d091 	mrs	x17, tpidr_el1
    100e5bcc:	a9064410 	stp	x16, x17, [x0, #96]
    100e5bd0:	d53bd049 	mrs	x9, tpidr_el0
    100e5bd4:	d53bd06a 	mrs	x10, tpidrro_el0
    100e5bd8:	a9072809 	stp	x9, x10, [x0, #112]
    100e5bdc:	d538740d 	mrs	x13, par_el1
    100e5be0:	d538600e 	mrs	x14, far_el1
    100e5be4:	a908380d 	stp	x13, x14, [x0, #128]
    100e5be8:	d538510f 	mrs	x15, afsr0_el1
    100e5bec:	d5385130 	mrs	x16, afsr1_el1
    100e5bf0:	a909400f 	stp	x15, x16, [x0, #144]
    100e5bf4:	d538d031 	mrs	x17, contextidr_el1
    100e5bf8:	d538c009 	mrs	x9, vbar_el1
    100e5bfc:	a90a2411 	stp	x17, x9, [x0, #160]
    100e5c00:	d53c432b 	mrs	x11, spsr_abt
    100e5c04:	d53c434c 	mrs	x12, spsr_und
    100e5c08:	a90b300b 	stp	x11, x12, [x0, #176]
    100e5c0c:	d53c430d 	mrs	x13, spsr_irq
    100e5c10:	d53c436e 	mrs	x14, spsr_fiq
    100e5c14:	a90c380d 	stp	x13, x14, [x0, #192]
    100e5c18:	d53c300f 	mrs	x15, dacr32_el2
    100e5c1c:	d53c5030 	mrs	x16, ifsr32_el2
    100e5c20:	a90d400f 	stp	x15, x16, [x0, #208]
    100e5c24:	d53be22a 	mrs	x10, cntp_ctl_el0
    100e5c28:	d53be24b 	mrs	x11, cntp_cval_el0
    100e5c2c:	a90e2c0a 	stp	x10, x11, [x0, #224]
    100e5c30:	d53be32c 	mrs	x12, cntv_ctl_el0
    100e5c34:	d53be34d 	mrs	x13, cntv_cval_el0
    100e5c38:	a90f340c 	stp	x12, x13, [x0, #240]
    100e5c3c:	d538e10e 	mrs	x14, cntkctl_el1
    100e5c40:	f900800e 	str	x14, [x0, #256]
    100e5c44:	d65f03c0 	ret

00000000100e5c48 <el1_sysregs_context_restore>:
    100e5c48:	a9402809 	ldp	x9, x10, [x0]
    100e5c4c:	d5184009 	msr	spsr_el1, x9
    100e5c50:	d518402a 	msr	elr_el1, x10
    100e5c54:	a941400f 	ldp	x15, x16, [x0, #16]
    100e5c58:	d518100f 	msr	sctlr_el1, x15
    100e5c5c:	d5181030 	msr	actlr_el1, x16
    100e5c60:	a9422411 	ldp	x17, x9, [x0, #32]
    100e5c64:	d5181051 	msr	cpacr_el1, x17
    100e5c68:	d51a0009 	msr	csselr_el1, x9
    100e5c6c:	a9432c0a 	ldp	x10, x11, [x0, #48]
    100e5c70:	d51c410a 	msr	sp_el1, x10
    100e5c74:	d518520b 	msr	esr_el1, x11
    100e5c78:	a944340c 	ldp	x12, x13, [x0, #64]
    100e5c7c:	d518200c 	msr	ttbr0_el1, x12
    100e5c80:	d518202d 	msr	ttbr1_el1, x13
    100e5c84:	a9453c0e 	ldp	x14, x15, [x0, #80]
    100e5c88:	d518a20e 	msr	mair_el1, x14
    100e5c8c:	d518a30f 	msr	amair_el1, x15
    100e5c90:	a9464410 	ldp	x16, x17, [x0, #96]
    100e5c94:	d5182050 	msr	tcr_el1, x16
    100e5c98:	d518d091 	msr	tpidr_el1, x17
    100e5c9c:	a9472809 	ldp	x9, x10, [x0, #112]
    100e5ca0:	d51bd049 	msr	tpidr_el0, x9
    100e5ca4:	d51bd06a 	msr	tpidrro_el0, x10
    100e5ca8:	a948380d 	ldp	x13, x14, [x0, #128]
    100e5cac:	d518740d 	msr	par_el1, x13
    100e5cb0:	d518600e 	msr	far_el1, x14
    100e5cb4:	a949400f 	ldp	x15, x16, [x0, #144]
    100e5cb8:	d518510f 	msr	afsr0_el1, x15
    100e5cbc:	d5185130 	msr	afsr1_el1, x16
    100e5cc0:	a94a2411 	ldp	x17, x9, [x0, #160]
    100e5cc4:	d518d031 	msr	contextidr_el1, x17
    100e5cc8:	d518c009 	msr	vbar_el1, x9
    100e5ccc:	a94b300b 	ldp	x11, x12, [x0, #176]
    100e5cd0:	d51c432b 	msr	spsr_abt, x11
    100e5cd4:	d51c434c 	msr	spsr_und, x12
    100e5cd8:	a94c380d 	ldp	x13, x14, [x0, #192]
    100e5cdc:	d51c430d 	msr	spsr_irq, x13
    100e5ce0:	d51c436e 	msr	spsr_fiq, x14
    100e5ce4:	a94d400f 	ldp	x15, x16, [x0, #208]
    100e5ce8:	d51c300f 	msr	dacr32_el2, x15
    100e5cec:	d51c5030 	msr	ifsr32_el2, x16
    100e5cf0:	a94e2c0a 	ldp	x10, x11, [x0, #224]
    100e5cf4:	d51be22a 	msr	cntp_ctl_el0, x10
    100e5cf8:	d51be24b 	msr	cntp_cval_el0, x11
    100e5cfc:	a94f340c 	ldp	x12, x13, [x0, #240]
    100e5d00:	d51be32c 	msr	cntv_ctl_el0, x12
    100e5d04:	d51be34d 	msr	cntv_cval_el0, x13
    100e5d08:	f940800e 	ldr	x14, [x0, #256]
    100e5d0c:	d518e10e 	msr	cntkctl_el1, x14
    100e5d10:	d65f03c0 	ret

00000000100e5d14 <save_gp_pmcr_pauth_regs>:
    100e5d14:	a90007e0 	stp	x0, x1, [sp]
    100e5d18:	a9010fe2 	stp	x2, x3, [sp, #16]
    100e5d1c:	a90217e4 	stp	x4, x5, [sp, #32]
    100e5d20:	a9031fe6 	stp	x6, x7, [sp, #48]
    100e5d24:	a90427e8 	stp	x8, x9, [sp, #64]
    100e5d28:	a9052fea 	stp	x10, x11, [sp, #80]
    100e5d2c:	a90637ec 	stp	x12, x13, [sp, #96]
    100e5d30:	a9073fee 	stp	x14, x15, [sp, #112]
    100e5d34:	a90847f0 	stp	x16, x17, [sp, #128]
    100e5d38:	a9094ff2 	stp	x18, x19, [sp, #144]
    100e5d3c:	a90a57f4 	stp	x20, x21, [sp, #160]
    100e5d40:	a90b5ff6 	stp	x22, x23, [sp, #176]
    100e5d44:	a90c67f8 	stp	x24, x25, [sp, #192]
    100e5d48:	a90d6ffa 	stp	x26, x27, [sp, #208]
    100e5d4c:	a90e77fc 	stp	x28, x29, [sp, #224]
    100e5d50:	d5384112 	mrs	x18, sp_el0
    100e5d54:	f9007ff2 	str	x18, [sp, #248]
    100e5d58:	d53e1329 	mrs	x9, mdcr_el3
    100e5d5c:	f269013f 	tst	x9, #0x800000
    100e5d60:	54000121 	b.ne	100e5d84 <save_gp_pmcr_pauth_regs+0x70>  // b.any
    100e5d64:	d53b9c09 	mrs	x9, pmcr_el0
    100e5d68:	d53e110a 	mrs	x10, scr_el3
    100e5d6c:	f240015f 	tst	x10, #0x1
    100e5d70:	54000040 	b.eq	100e5d78 <save_gp_pmcr_pauth_regs+0x64>  // b.none
    100e5d74:	f90097e9 	str	x9, [sp, #296]
    100e5d78:	b27b0129 	orr	x9, x9, #0x20
    100e5d7c:	d51b9c09 	msr	pmcr_el0, x9
    100e5d80:	d5033fdf 	isb
    100e5d84:	d65f03c0 	ret

00000000100e5d88 <restore_gp_pmcr_pauth_regs>:
    100e5d88:	d53e1100 	mrs	x0, scr_el3
    100e5d8c:	f240001f 	tst	x0, #0x1
    100e5d90:	540000c0 	b.eq	100e5da8 <restore_gp_pmcr_pauth_regs+0x20>  // b.none
    100e5d94:	d53e1320 	mrs	x0, mdcr_el3
    100e5d98:	f269001f 	tst	x0, #0x800000
    100e5d9c:	54000061 	b.ne	100e5da8 <restore_gp_pmcr_pauth_regs+0x20>  // b.any
    100e5da0:	f94097e0 	ldr	x0, [sp, #296]
    100e5da4:	d51b9c00 	msr	pmcr_el0, x0
    100e5da8:	a94007e0 	ldp	x0, x1, [sp]
    100e5dac:	a9410fe2 	ldp	x2, x3, [sp, #16]
    100e5db0:	a94217e4 	ldp	x4, x5, [sp, #32]
    100e5db4:	a9431fe6 	ldp	x6, x7, [sp, #48]
    100e5db8:	a94427e8 	ldp	x8, x9, [sp, #64]
    100e5dbc:	a9452fea 	ldp	x10, x11, [sp, #80]
    100e5dc0:	a94637ec 	ldp	x12, x13, [sp, #96]
    100e5dc4:	a9473fee 	ldp	x14, x15, [sp, #112]
    100e5dc8:	a94847f0 	ldp	x16, x17, [sp, #128]
    100e5dcc:	a9494ff2 	ldp	x18, x19, [sp, #144]
    100e5dd0:	a94a57f4 	ldp	x20, x21, [sp, #160]
    100e5dd4:	a94b5ff6 	ldp	x22, x23, [sp, #176]
    100e5dd8:	a94c67f8 	ldp	x24, x25, [sp, #192]
    100e5ddc:	a94d6ffa 	ldp	x26, x27, [sp, #208]
    100e5de0:	f9407ffc 	ldr	x28, [sp, #248]
    100e5de4:	d518411c 	msr	sp_el0, x28
    100e5de8:	a94e77fc 	ldp	x28, x29, [sp, #224]
    100e5dec:	d65f03c0 	ret

00000000100e5df0 <el3_exit>:
    100e5df0:	910003f1 	mov	x17, sp
    100e5df4:	d50041bf 	msr	spsel, #0x1
    100e5df8:	f9008bf1 	str	x17, [sp, #272]
    100e5dfc:	f94083f2 	ldr	x18, [sp, #256]
    100e5e00:	a951c7f0 	ldp	x16, x17, [sp, #280]
    100e5e04:	d51e1112 	msr	scr_el3, x18
    100e5e08:	d51e4010 	msr	spsr_el3, x16
    100e5e0c:	d51e4031 	msr	elr_el3, x17
    100e5e10:	97ffffde 	bl	100e5d88 <restore_gp_pmcr_pauth_regs>
    100e5e14:	f9407bfe 	ldr	x30, [sp, #240]
    100e5e18:	d69f03e0 	eret

00000000100e5e1c <opteed_enter_sp>:
    100e5e1c:	910003e3 	mov	x3, sp
    100e5e20:	f9000003 	str	x3, [x0]
    100e5e24:	d10183ff 	sub	sp, sp, #0x60
    100e5e28:	a90053f3 	stp	x19, x20, [sp]
    100e5e2c:	a9015bf5 	stp	x21, x22, [sp, #16]
    100e5e30:	a90263f7 	stp	x23, x24, [sp, #32]
    100e5e34:	a9036bf9 	stp	x25, x26, [sp, #48]
    100e5e38:	a90473fb 	stp	x27, x28, [sp, #64]
    100e5e3c:	a9057bfd 	stp	x29, x30, [sp, #80]
    100e5e40:	17ffffec 	b	100e5df0 <el3_exit>

00000000100e5e44 <opteed_exit_sp>:
    100e5e44:	9100001f 	mov	sp, x0
    100e5e48:	a97a5013 	ldp	x19, x20, [x0, #-96]
    100e5e4c:	a97b5815 	ldp	x21, x22, [x0, #-80]
    100e5e50:	a97c6017 	ldp	x23, x24, [x0, #-64]
    100e5e54:	a97d6819 	ldp	x25, x26, [x0, #-48]
    100e5e58:	a97e701b 	ldp	x27, x28, [x0, #-32]
    100e5e5c:	a97f781d 	ldp	x29, x30, [x0, #-16]
    100e5e60:	aa0103e0 	mov	x0, x1
    100e5e64:	d65f03c0 	ret

00000000100e5e68 <asm_assert>:
    100e5e68:	aa0003e5 	mov	x5, x0
    100e5e6c:	aa0103e6 	mov	x6, x1
    100e5e70:	97fffd94 	bl	100e54c0 <plat_crash_console_init>
    100e5e74:	b4000260 	cbz	x0, 100e5ec0 <_assert_loop>
    100e5e78:	30019864 	adr	x4, 100e9185 <assert_msg1>
    100e5e7c:	94000013 	bl	100e5ec8 <asm_print_str>
    100e5e80:	aa0503e4 	mov	x4, x5
    100e5e84:	94000011 	bl	100e5ec8 <asm_print_str>
    100e5e88:	70019844 	adr	x4, 100e9193 <assert_msg2>
    100e5e8c:	9400000f 	bl	100e5ec8 <asm_print_str>
    100e5e90:	f270bcdf 	tst	x6, #0xffffffffffff0000
    100e5e94:	54000161 	b.ne	100e5ec0 <_assert_loop>  // b.any
    100e5e98:	aa0603e4 	mov	x4, x6
    100e5e9c:	d2800146 	mov	x6, #0xa                   	// #10
    100e5ea0:	d284e205 	mov	x5, #0x2710                	// #10000

00000000100e5ea4 <dec_print_loop>:
    100e5ea4:	9ac50880 	udiv	x0, x4, x5
    100e5ea8:	9b059004 	msub	x4, x0, x5, x4
    100e5eac:	9100c000 	add	x0, x0, #0x30
    100e5eb0:	97fffd8b 	bl	100e54dc <plat_crash_console_putc>
    100e5eb4:	9ac608a5 	udiv	x5, x5, x6
    100e5eb8:	b5ffff65 	cbnz	x5, 100e5ea4 <dec_print_loop>
    100e5ebc:	97fffd8b 	bl	100e54e8 <plat_crash_console_flush>

00000000100e5ec0 <_assert_loop>:
    100e5ec0:	940000d9 	bl	100e6224 <plat_panic_handler>
    100e5ec4:	d503201f 	nop

00000000100e5ec8 <asm_print_str>:
    100e5ec8:	aa1e03e3 	mov	x3, x30
    100e5ecc:	38401480 	ldrb	w0, [x4], #1
    100e5ed0:	b4000060 	cbz	x0, 100e5edc <asm_print_str+0x14>
    100e5ed4:	97fffd82 	bl	100e54dc <plat_crash_console_putc>
    100e5ed8:	17fffffd 	b	100e5ecc <asm_print_str+0x4>
    100e5edc:	d65f0060 	ret	x3

00000000100e5ee0 <asm_print_hex>:
    100e5ee0:	d2800805 	mov	x5, #0x40                  	// #64

00000000100e5ee4 <asm_print_hex_bits>:
    100e5ee4:	aa1e03e3 	mov	x3, x30
    100e5ee8:	d10010a5 	sub	x5, x5, #0x4
    100e5eec:	9ac52480 	lsr	x0, x4, x5
    100e5ef0:	92400c00 	and	x0, x0, #0xf
    100e5ef4:	f100281f 	cmp	x0, #0xa
    100e5ef8:	54000043 	b.cc	100e5f00 <asm_print_hex_bits+0x1c>  // b.lo, b.ul, b.last
    100e5efc:	91009c00 	add	x0, x0, #0x27
    100e5f00:	9100c000 	add	x0, x0, #0x30
    100e5f04:	97fffd76 	bl	100e54dc <plat_crash_console_putc>
    100e5f08:	b5ffff05 	cbnz	x5, 100e5ee8 <asm_print_hex_bits+0x4>
    100e5f0c:	d65f0060 	ret	x3

00000000100e5f10 <asm_print_newline>:
    100e5f10:	d2800140 	mov	x0, #0xa                   	// #10
    100e5f14:	17fffd72 	b	100e54dc <plat_crash_console_putc>

00000000100e5f18 <do_panic>:
    100e5f18:	f81f0fe0 	str	x0, [sp, #-16]!
    100e5f1c:	d5384240 	mrs	x0, currentel
    100e5f20:	d3420c00 	ubfx	x0, x0, #2, #2
    100e5f24:	f1000c1f 	cmp	x0, #0x3
    100e5f28:	f84107e0 	ldr	x0, [sp], #16
    100e5f2c:	54ffb440 	b.eq	100e55b4 <el3_panic>  // b.none

00000000100e5f30 <panic_common>:
    100e5f30:	aa1e03e6 	mov	x6, x30
    100e5f34:	97fffd63 	bl	100e54c0 <plat_crash_console_init>
    100e5f38:	b40000e0 	cbz	x0, 100e5f54 <_panic_handler>
    100e5f3c:	500192e4 	adr	x4, 100e919a <panic_msg>
    100e5f40:	97ffffe2 	bl	100e5ec8 <asm_print_str>
    100e5f44:	aa0603e4 	mov	x4, x6
    100e5f48:	d1001084 	sub	x4, x4, #0x4
    100e5f4c:	97ffffe5 	bl	100e5ee0 <asm_print_hex>
    100e5f50:	97fffd66 	bl	100e54e8 <plat_crash_console_flush>

00000000100e5f54 <_panic_handler>:
    100e5f54:	aa0603fe 	mov	x30, x6
    100e5f58:	140000b3 	b	100e6224 <plat_panic_handler>

00000000100e5f5c <flush_dcache_range>:
    100e5f5c:	b40001a1 	cbz	x1, 100e5f90 <exit_loop_civac>
    100e5f60:	d53b0023 	mrs	x3, ctr_el0
    100e5f64:	d3504c63 	ubfx	x3, x3, #16, #4
    100e5f68:	d2800082 	mov	x2, #0x4                   	// #4
    100e5f6c:	9ac32042 	lsl	x2, x2, x3
    100e5f70:	8b010001 	add	x1, x0, x1
    100e5f74:	d1000443 	sub	x3, x2, #0x1
    100e5f78:	8a230000 	bic	x0, x0, x3

00000000100e5f7c <loop_civac>:
    100e5f7c:	d50b7e20 	dc	civac, x0
    100e5f80:	8b020000 	add	x0, x0, x2
    100e5f84:	eb01001f 	cmp	x0, x1
    100e5f88:	54ffffa3 	b.cc	100e5f7c <loop_civac>  // b.lo, b.ul, b.last
    100e5f8c:	d5033f9f 	dsb	sy

00000000100e5f90 <exit_loop_civac>:
    100e5f90:	d65f03c0 	ret

00000000100e5f94 <clean_dcache_range>:
    100e5f94:	b40001a1 	cbz	x1, 100e5fc8 <exit_loop_cvac>
    100e5f98:	d53b0023 	mrs	x3, ctr_el0
    100e5f9c:	d3504c63 	ubfx	x3, x3, #16, #4
    100e5fa0:	d2800082 	mov	x2, #0x4                   	// #4
    100e5fa4:	9ac32042 	lsl	x2, x2, x3
    100e5fa8:	8b010001 	add	x1, x0, x1
    100e5fac:	d1000443 	sub	x3, x2, #0x1
    100e5fb0:	8a230000 	bic	x0, x0, x3

00000000100e5fb4 <loop_cvac>:
    100e5fb4:	d50b7a20 	dc	cvac, x0
    100e5fb8:	8b020000 	add	x0, x0, x2
    100e5fbc:	eb01001f 	cmp	x0, x1
    100e5fc0:	54ffffa3 	b.cc	100e5fb4 <loop_cvac>  // b.lo, b.ul, b.last
    100e5fc4:	d5033f9f 	dsb	sy

00000000100e5fc8 <exit_loop_cvac>:
    100e5fc8:	d65f03c0 	ret

00000000100e5fcc <inv_dcache_range>:
    100e5fcc:	b40001a1 	cbz	x1, 100e6000 <exit_loop_ivac>
    100e5fd0:	d53b0023 	mrs	x3, ctr_el0
    100e5fd4:	d3504c63 	ubfx	x3, x3, #16, #4
    100e5fd8:	d2800082 	mov	x2, #0x4                   	// #4
    100e5fdc:	9ac32042 	lsl	x2, x2, x3
    100e5fe0:	8b010001 	add	x1, x0, x1
    100e5fe4:	d1000443 	sub	x3, x2, #0x1
    100e5fe8:	8a230000 	bic	x0, x0, x3

00000000100e5fec <loop_ivac>:
    100e5fec:	d5087620 	dc	ivac, x0
    100e5ff0:	8b020000 	add	x0, x0, x2
    100e5ff4:	eb01001f 	cmp	x0, x1
    100e5ff8:	54ffffa3 	b.cc	100e5fec <loop_ivac>  // b.lo, b.ul, b.last
    100e5ffc:	d5033f9f 	dsb	sy

00000000100e6000 <exit_loop_ivac>:
    100e6000:	d65f03c0 	ret

00000000100e6004 <do_dcsw_op>:
    100e6004:	b40003c3 	cbz	x3, 100e607c <exit>
    100e6008:	100003ce 	adr	x14, 100e6080 <dcsw_loop_table>
    100e600c:	8b0015ce 	add	x14, x14, x0, lsl #5
    100e6010:	aa0903e0 	mov	x0, x9
    100e6014:	52800028 	mov	w8, #0x1                   	// #1

00000000100e6018 <loop1>:
    100e6018:	8b4a0542 	add	x2, x10, x10, lsr #1
    100e601c:	9ac22401 	lsr	x1, x0, x2
    100e6020:	92400821 	and	x1, x1, #0x7
    100e6024:	f100083f 	cmp	x1, #0x2
    100e6028:	540001e3 	b.cc	100e6064 <level_done>  // b.lo, b.ul, b.last
    100e602c:	d51a000a 	msr	csselr_el1, x10
    100e6030:	d5033fdf 	isb
    100e6034:	d5390001 	mrs	x1, ccsidr_el1
    100e6038:	92400822 	and	x2, x1, #0x7
    100e603c:	91001042 	add	x2, x2, #0x4
    100e6040:	d3433024 	ubfx	x4, x1, #3, #10
    100e6044:	5ac01085 	clz	w5, w4
    100e6048:	1ac52089 	lsl	w9, w4, w5
    100e604c:	1ac52110 	lsl	w16, w8, w5
    100e6050:	2a090149 	orr	w9, w10, w9
    100e6054:	530d6c26 	ubfx	w6, w1, #13, #15
    100e6058:	1ac22111 	lsl	w17, w8, w2
    100e605c:	d5033f9f 	dsb	sy
    100e6060:	d61f01c0 	br	x14

00000000100e6064 <level_done>:
    100e6064:	9100094a 	add	x10, x10, #0x2
    100e6068:	eb0a007f 	cmp	x3, x10
    100e606c:	54fffd68 	b.hi	100e6018 <loop1>  // b.pmore
    100e6070:	d51a001f 	msr	csselr_el1, xzr
    100e6074:	d5033f9f 	dsb	sy
    100e6078:	d5033fdf 	isb

00000000100e607c <exit>:
    100e607c:	d65f03c0 	ret

00000000100e6080 <dcsw_loop_table>:
    100e6080:	1ac220c7 	lsl	w7, w6, w2

00000000100e6084 <loop3_isw>:
    100e6084:	2a07012b 	orr	w11, w9, w7
    100e6088:	d508764b 	dc	isw, x11
    100e608c:	6b1100e7 	subs	w7, w7, w17
    100e6090:	54ffffa2 	b.cs	100e6084 <loop3_isw>  // b.hs, b.nlast
    100e6094:	eb100129 	subs	x9, x9, x16
    100e6098:	54ffff42 	b.cs	100e6080 <dcsw_loop_table>  // b.hs, b.nlast
    100e609c:	17fffff2 	b	100e6064 <level_done>

00000000100e60a0 <loop2_cisw>:
    100e60a0:	1ac220c7 	lsl	w7, w6, w2

00000000100e60a4 <loop3_cisw>:
    100e60a4:	2a07012b 	orr	w11, w9, w7
    100e60a8:	d5087e4b 	dc	cisw, x11
    100e60ac:	6b1100e7 	subs	w7, w7, w17
    100e60b0:	54ffffa2 	b.cs	100e60a4 <loop3_cisw>  // b.hs, b.nlast
    100e60b4:	eb100129 	subs	x9, x9, x16
    100e60b8:	54ffff42 	b.cs	100e60a0 <loop2_cisw>  // b.hs, b.nlast
    100e60bc:	17ffffea 	b	100e6064 <level_done>

00000000100e60c0 <loop2_csw>:
    100e60c0:	1ac220c7 	lsl	w7, w6, w2

00000000100e60c4 <loop3_csw>:
    100e60c4:	2a07012b 	orr	w11, w9, w7
    100e60c8:	d5087a4b 	dc	csw, x11
    100e60cc:	6b1100e7 	subs	w7, w7, w17
    100e60d0:	54ffffa2 	b.cs	100e60c4 <loop3_csw>  // b.hs, b.nlast
    100e60d4:	eb100129 	subs	x9, x9, x16
    100e60d8:	54ffff42 	b.cs	100e60c0 <loop2_csw>  // b.hs, b.nlast
    100e60dc:	17ffffe2 	b	100e6064 <level_done>

00000000100e60e0 <dcsw_op_level1>:
    100e60e0:	d5390029 	mrs	x9, clidr_el1
    100e60e4:	d2800043 	mov	x3, #0x2                   	// #2
    100e60e8:	d100086a 	sub	x10, x3, #0x2
    100e60ec:	17ffffc6 	b	100e6004 <do_dcsw_op>

00000000100e60f0 <dcsw_op_level2>:
    100e60f0:	d5390029 	mrs	x9, clidr_el1
    100e60f4:	d2800083 	mov	x3, #0x4                   	// #4
    100e60f8:	d100086a 	sub	x10, x3, #0x2
    100e60fc:	17ffffc2 	b	100e6004 <do_dcsw_op>

00000000100e6100 <zeromem>:
    100e6100:	8b010002 	add	x2, x0, x1
    100e6104:	1400003b 	b	100e61f0 <zero_normalmem+0xe8>

00000000100e6108 <zero_normalmem>:
    100e6108:	d53e1004 	mrs	x4, sctlr_el3
    100e610c:	f240009f 	tst	x4, #0x1
    100e6110:	54000081 	b.ne	100e6120 <zero_normalmem+0x18>  // b.any
    100e6114:	700184a0 	adr	x0, 100e91ab <panic_msg+0x11>
    100e6118:	d2801581 	mov	x1, #0xac                  	// #172
    100e611c:	17ffff53 	b	100e5e68 <asm_assert>
    100e6120:	8b010002 	add	x2, x0, x1
    100e6124:	d53b00e3 	mrs	x3, dczid_el0
    100e6128:	d3400c63 	ubfx	x3, x3, #0, #4
    100e612c:	d2800085 	mov	x5, #0x4                   	// #4
    100e6130:	9ac320a3 	lsl	x3, x5, x3
    100e6134:	f100407f 	cmp	x3, #0x10
    100e6138:	54000082 	b.cs	100e6148 <zero_normalmem+0x40>  // b.hs, b.nlast
    100e613c:	70018360 	adr	x0, 100e91ab <panic_msg+0x11>
    100e6140:	d28018c1 	mov	x1, #0xc6                  	// #198
    100e6144:	17ffff49 	b	100e5e68 <asm_assert>
    100e6148:	eb03003f 	cmp	x1, x3
    100e614c:	54000523 	b.cc	100e61f0 <zero_normalmem+0xe8>  // b.lo, b.ul, b.last
    100e6150:	d1000461 	sub	x1, x3, #0x1
    100e6154:	ea01001f 	tst	x0, x1
    100e6158:	54000260 	b.eq	100e61a4 <zero_normalmem+0x9c>  // b.none
    100e615c:	aa010004 	orr	x4, x0, x1
    100e6160:	91000484 	add	x4, x4, #0x1
    100e6164:	b4000464 	cbz	x4, 100e61f0 <zero_normalmem+0xe8>
    100e6168:	eb02009f 	cmp	x4, x2
    100e616c:	54000428 	b.hi	100e61f0 <zero_normalmem+0xe8>  // b.pmore
    100e6170:	f2400c1f 	tst	x0, #0xf
    100e6174:	540000e0 	b.eq	100e6190 <zero_normalmem+0x88>  // b.none
    100e6178:	b2400c05 	orr	x5, x0, #0xf
    100e617c:	910004a5 	add	x5, x5, #0x1
    100e6180:	b4000385 	cbz	x5, 100e61f0 <zero_normalmem+0xe8>
    100e6184:	3800141f 	strb	wzr, [x0], #1
    100e6188:	eb05001f 	cmp	x0, x5
    100e618c:	54ffffc1 	b.ne	100e6184 <zero_normalmem+0x7c>  // b.any
    100e6190:	eb04001f 	cmp	x0, x4
    100e6194:	54000082 	b.cs	100e61a4 <zero_normalmem+0x9c>  // b.hs, b.nlast
    100e6198:	a8817c1f 	stp	xzr, xzr, [x0], #16
    100e619c:	eb04001f 	cmp	x0, x4
    100e61a0:	54ffffc3 	b.cc	100e6198 <zero_normalmem+0x90>  // b.lo, b.ul, b.last
    100e61a4:	8a210044 	bic	x4, x2, x1
    100e61a8:	eb04001f 	cmp	x0, x4
    100e61ac:	540000a2 	b.cs	100e61c0 <zero_normalmem+0xb8>  // b.hs, b.nlast
    100e61b0:	d50b7420 	dc	zva, x0
    100e61b4:	8b030000 	add	x0, x0, x3
    100e61b8:	eb04001f 	cmp	x0, x4
    100e61bc:	54ffffa3 	b.cc	100e61b0 <zero_normalmem+0xa8>  // b.lo, b.ul, b.last
    100e61c0:	927cec44 	and	x4, x2, #0xfffffffffffffff0
    100e61c4:	eb04001f 	cmp	x0, x4
    100e61c8:	54000082 	b.cs	100e61d8 <zero_normalmem+0xd0>  // b.hs, b.nlast
    100e61cc:	a8817c1f 	stp	xzr, xzr, [x0], #16
    100e61d0:	eb04001f 	cmp	x0, x4
    100e61d4:	54ffffc3 	b.cc	100e61cc <zero_normalmem+0xc4>  // b.lo, b.ul, b.last
    100e61d8:	eb02001f 	cmp	x0, x2
    100e61dc:	54000080 	b.eq	100e61ec <zero_normalmem+0xe4>  // b.none
    100e61e0:	3800141f 	strb	wzr, [x0], #1
    100e61e4:	eb02001f 	cmp	x0, x2
    100e61e8:	54ffffc1 	b.ne	100e61e0 <zero_normalmem+0xd8>  // b.any
    100e61ec:	d65f03c0 	ret
    100e61f0:	f2400c1f 	tst	x0, #0xf
    100e61f4:	54fffe60 	b.eq	100e61c0 <zero_normalmem+0xb8>  // b.none
    100e61f8:	b2400c04 	orr	x4, x0, #0xf
    100e61fc:	91000484 	add	x4, x4, #0x1
    100e6200:	b4fffec4 	cbz	x4, 100e61d8 <zero_normalmem+0xd0>
    100e6204:	eb02009f 	cmp	x4, x2
    100e6208:	54fffe82 	b.cs	100e61d8 <zero_normalmem+0xd0>  // b.hs, b.nlast
    100e620c:	3800141f 	strb	wzr, [x0], #1
    100e6210:	eb04001f 	cmp	x0, x4
    100e6214:	54ffffc1 	b.ne	100e620c <zero_normalmem+0x104>  // b.any
    100e6218:	17ffffea 	b	100e61c0 <zero_normalmem+0xb8>

00000000100e621c <plat_reset_handler>:
    100e621c:	d65f03c0 	ret

00000000100e6220 <plat_disable_acp>:
    100e6220:	d65f03c0 	ret

00000000100e6224 <plat_panic_handler>:
    100e6224:	d503207f 	wfi
    100e6228:	17ffffff 	b	100e6224 <plat_panic_handler>

00000000100e622c <bl31_plat_enable_mmu>:
    100e622c:	14000072 	b	100e63f4 <enable_mmu_direct_el3>

00000000100e6230 <plat_handle_double_fault>:
    100e6230:	17fffccd 	b	100e5564 <report_unhandled_exception>

00000000100e6234 <plat_handle_el3_ea>:
    100e6234:	17fffccc 	b	100e5564 <report_unhandled_exception>

00000000100e6238 <console_16550_core_init>:
    100e6238:	b4000340 	cbz	x0, 100e62a0 <init_fail>
    100e623c:	34000321 	cbz	w1, 100e62a0 <init_fail>
    100e6240:	34000302 	cbz	w2, 100e62a0 <init_fail>
    100e6244:	531c6c42 	lsl	w2, w2, #4
    100e6248:	1ac20822 	udiv	w2, w1, w2
    100e624c:	12001c41 	and	w1, w2, #0xff
    100e6250:	53087c42 	lsr	w2, w2, #8
    100e6254:	12001c42 	and	w2, w2, #0xff
    100e6258:	b9400c03 	ldr	w3, [x0, #12]
    100e625c:	32190063 	orr	w3, w3, #0x80
    100e6260:	b9000c03 	str	w3, [x0, #12]
    100e6264:	b9000001 	str	w1, [x0]
    100e6268:	b9000402 	str	w2, [x0, #4]
    100e626c:	12801002 	mov	w2, #0xffffff7f            	// #-129
    100e6270:	0a020063 	and	w3, w3, w2
    100e6274:	b9000c03 	str	w3, [x0, #12]
    100e6278:	52800063 	mov	w3, #0x3                   	// #3
    100e627c:	b9000c03 	str	w3, [x0, #12]
    100e6280:	52800003 	mov	w3, #0x0                   	// #0
    100e6284:	b9000403 	str	w3, [x0, #4]
    100e6288:	52800123 	mov	w3, #0x9                   	// #9
    100e628c:	b9000803 	str	w3, [x0, #8]
    100e6290:	52800063 	mov	w3, #0x3                   	// #3
    100e6294:	b9001003 	str	w3, [x0, #16]
    100e6298:	52800020 	mov	w0, #0x1                   	// #1
    100e629c:	d65f03c0 	ret

00000000100e62a0 <init_fail>:
    100e62a0:	52800000 	mov	w0, #0x0                   	// #0
    100e62a4:	d65f03c0 	ret

00000000100e62a8 <console_16550_register>:
    100e62a8:	aa1e03e7 	mov	x7, x30
    100e62ac:	aa0303e6 	mov	x6, x3
    100e62b0:	b4000246 	cbz	x6, 100e62f8 <register_fail>
    100e62b4:	f90014c0 	str	x0, [x6, #40]
    100e62b8:	97ffffe0 	bl	100e6238 <console_16550_core_init>
    100e62bc:	b40001e0 	cbz	x0, 100e62f8 <register_fail>
    100e62c0:	aa0603e0 	mov	x0, x6
    100e62c4:	aa0703fe 	mov	x30, x7
    100e62c8:	90000001 	adrp	x1, 100e6000 <exit_loop_ivac>
    100e62cc:	910d2021 	add	x1, x1, #0x348
    100e62d0:	f9000801 	str	x1, [x0, #16]
    100e62d4:	90000001 	adrp	x1, 100e6000 <exit_loop_ivac>
    100e62d8:	910e4021 	add	x1, x1, #0x390
    100e62dc:	f9000c01 	str	x1, [x0, #24]
    100e62e0:	90000001 	adrp	x1, 100e6000 <exit_loop_ivac>
    100e62e4:	910f6021 	add	x1, x1, #0x3d8
    100e62e8:	f9001001 	str	x1, [x0, #32]
    100e62ec:	d28000a1 	mov	x1, #0x5                   	// #5
    100e62f0:	f9000401 	str	x1, [x0, #8]
    100e62f4:	17fff76c 	b	100e40a4 <console_register>

00000000100e62f8 <register_fail>:
    100e62f8:	d65f00e0 	ret	x7

00000000100e62fc <console_16550_core_putc>:
    100e62fc:	f100003f 	cmp	x1, #0x0
    100e6300:	54000081 	b.ne	100e6310 <console_16550_core_putc+0x14>  // b.any
    100e6304:	50017600 	adr	x0, 100e91c6 <panic_msg+0x2c>
    100e6308:	d28010a1 	mov	x1, #0x85                  	// #133
    100e630c:	17fffed7 	b	100e5e68 <asm_assert>
    100e6310:	7100281f 	cmp	w0, #0xa
    100e6314:	540000e1 	b.ne	100e6330 <console_16550_core_putc+0x34>  // b.any
    100e6318:	b9401422 	ldr	w2, [x1, #20]
    100e631c:	121b0442 	and	w2, w2, #0x60
    100e6320:	7101805f 	cmp	w2, #0x60
    100e6324:	54ffffa1 	b.ne	100e6318 <console_16550_core_putc+0x1c>  // b.any
    100e6328:	528001a2 	mov	w2, #0xd                   	// #13
    100e632c:	b9000022 	str	w2, [x1]
    100e6330:	b9401422 	ldr	w2, [x1, #20]
    100e6334:	121b0442 	and	w2, w2, #0x60
    100e6338:	7101805f 	cmp	w2, #0x60
    100e633c:	54ffffa1 	b.ne	100e6330 <console_16550_core_putc+0x34>  // b.any
    100e6340:	b9000020 	str	w0, [x1]
    100e6344:	d65f03c0 	ret

00000000100e6348 <console_16550_putc>:
    100e6348:	f100003f 	cmp	x1, #0x0
    100e634c:	54000081 	b.ne	100e635c <console_16550_putc+0x14>  // b.any
    100e6350:	500173a0 	adr	x0, 100e91c6 <panic_msg+0x2c>
    100e6354:	d2801521 	mov	x1, #0xa9                  	// #169
    100e6358:	17fffec4 	b	100e5e68 <asm_assert>
    100e635c:	f9401421 	ldr	x1, [x1, #40]
    100e6360:	17ffffe7 	b	100e62fc <console_16550_core_putc>

00000000100e6364 <console_16550_core_getc>:
    100e6364:	f100001f 	cmp	x0, #0x0
    100e6368:	54000081 	b.ne	100e6378 <console_16550_core_getc+0x14>  // b.any
    100e636c:	500172c0 	adr	x0, 100e91c6 <panic_msg+0x2c>
    100e6370:	d2801781 	mov	x1, #0xbc                  	// #188
    100e6374:	17fffebd 	b	100e5e68 <asm_assert>
    100e6378:	b9401401 	ldr	w1, [x0, #20]
    100e637c:	36000061 	tbz	w1, #0, 100e6388 <no_char>
    100e6380:	b9400000 	ldr	w0, [x0]
    100e6384:	d65f03c0 	ret

00000000100e6388 <no_char>:
    100e6388:	12800000 	mov	w0, #0xffffffff            	// #-1
    100e638c:	d65f03c0 	ret

00000000100e6390 <console_16550_getc>:
    100e6390:	f100003f 	cmp	x1, #0x0
    100e6394:	54000081 	b.ne	100e63a4 <console_16550_getc+0x14>  // b.any
    100e6398:	50017160 	adr	x0, 100e91c6 <panic_msg+0x2c>
    100e639c:	d2801ac1 	mov	x1, #0xd6                  	// #214
    100e63a0:	17fffeb2 	b	100e5e68 <asm_assert>
    100e63a4:	f9401400 	ldr	x0, [x0, #40]
    100e63a8:	17ffffef 	b	100e6364 <console_16550_core_getc>

00000000100e63ac <console_16550_core_flush>:
    100e63ac:	f100001f 	cmp	x0, #0x0
    100e63b0:	54000081 	b.ne	100e63c0 <console_16550_core_flush+0x14>  // b.any
    100e63b4:	50017080 	adr	x0, 100e91c6 <panic_msg+0x2c>
    100e63b8:	d2801d01 	mov	x1, #0xe8                  	// #232
    100e63bc:	17fffeab 	b	100e5e68 <asm_assert>
    100e63c0:	b9401401 	ldr	w1, [x0, #20]
    100e63c4:	121b0421 	and	w1, w1, #0x60
    100e63c8:	7101803f 	cmp	w1, #0x60
    100e63cc:	54ffffa1 	b.ne	100e63c0 <console_16550_core_flush+0x14>  // b.any
    100e63d0:	52800000 	mov	w0, #0x0                   	// #0
    100e63d4:	d65f03c0 	ret

00000000100e63d8 <console_16550_flush>:
    100e63d8:	f100001f 	cmp	x0, #0x0
    100e63dc:	54000081 	b.ne	100e63ec <console_16550_flush+0x14>  // b.any
    100e63e0:	50016f20 	adr	x0, 100e91c6 <panic_msg+0x2c>
    100e63e4:	d2802021 	mov	x1, #0x101                 	// #257
    100e63e8:	17fffea0 	b	100e5e68 <asm_assert>
    100e63ec:	f9401400 	ldr	x0, [x0, #40]
    100e63f0:	17ffffef 	b	100e63ac <console_16550_core_flush>

00000000100e63f4 <enable_mmu_direct_el3>:
    100e63f4:	d53e1001 	mrs	x1, sctlr_el3
    100e63f8:	f240003f 	tst	x1, #0x1
    100e63fc:	54000080 	b.eq	100e640c <enable_mmu_direct_el3+0x18>  // b.none
    100e6400:	50016f60 	adr	x0, 100e91ee <panic_msg+0x54>
    100e6404:	d2800541 	mov	x1, #0x2a                  	// #42
    100e6408:	17fffe98 	b	100e5e68 <asm_assert>
    100e640c:	d50e871f 	tlbi	alle3
    100e6410:	aa0003e7 	mov	x7, x0
    100e6414:	b0000040 	adrp	x0, 100ef000 <opteed_sp_context+0x50>
    100e6418:	9125e000 	add	x0, x0, #0x978
    100e641c:	f9400001 	ldr	x1, [x0]
    100e6420:	d51ea201 	msr	mair_el3, x1
    100e6424:	f9400402 	ldr	x2, [x0, #8]
    100e6428:	d51e2042 	msr	tcr_el3, x2
    100e642c:	f9400803 	ldr	x3, [x0, #16]
    100e6430:	d51e2003 	msr	ttbr0_el3, x3
    100e6434:	d5033b9f 	dsb	ish
    100e6438:	d5033fdf 	isb
    100e643c:	d53e1004 	mrs	x4, sctlr_el3
    100e6440:	d28000a5 	mov	x5, #0x5                   	// #5
    100e6444:	f2a00105 	movk	x5, #0x8, lsl #16
    100e6448:	aa050084 	orr	x4, x4, x5
    100e644c:	927df885 	and	x5, x4, #0xfffffffffffffffb
    100e6450:	f24000ff 	tst	x7, #0x1
    100e6454:	9a8410a4 	csel	x4, x5, x4, ne  // ne = any
    100e6458:	d51e1004 	msr	sctlr_el3, x4
    100e645c:	d5033fdf 	isb
    100e6460:	d65f03c0 	ret

00000000100e6464 <__assert>:
    100e6464:	a9bf7bfd 	stp	x29, x30, [sp, #-16]!
    100e6468:	2a0103e2 	mov	w2, w1
    100e646c:	aa0003e1 	mov	x1, x0
    100e6470:	910003fd 	mov	x29, sp
    100e6474:	f0000000 	adrp	x0, 100e9000 <non_el3_sys_regs+0x74>
    100e6478:	91085800 	add	x0, x0, #0x216
    100e647c:	94000156 	bl	100e69d4 <printf>
    100e6480:	f0000000 	adrp	x0, 100e9000 <non_el3_sys_regs+0x74>
    100e6484:	91089400 	add	x0, x0, #0x225
    100e6488:	97fff7bc 	bl	100e4378 <backtrace>
    100e648c:	97fff759 	bl	100e41f0 <console_flush>
    100e6490:	97ffff65 	bl	100e6224 <plat_panic_handler>

00000000100e6494 <memcpy>:
    100e6494:	d2800003 	mov	x3, #0x0                   	// #0
    100e6498:	eb03005f 	cmp	x2, x3
    100e649c:	54000041 	b.ne	100e64a4 <memcpy+0x10>  // b.any
    100e64a0:	d65f03c0 	ret
    100e64a4:	38636824 	ldrb	w4, [x1, x3]
    100e64a8:	38236804 	strb	w4, [x0, x3]
    100e64ac:	91000463 	add	x3, x3, #0x1
    100e64b0:	17fffffa 	b	100e6498 <memcpy+0x4>

00000000100e64b4 <memmove>:
    100e64b4:	cb010006 	sub	x6, x0, x1
    100e64b8:	aa0003e5 	mov	x5, x0
    100e64bc:	eb0200df 	cmp	x6, x2
    100e64c0:	54000043 	b.cc	100e64c8 <memmove+0x14>  // b.lo, b.ul, b.last
    100e64c4:	17fffff4 	b	100e6494 <memcpy>
    100e64c8:	8b020024 	add	x4, x1, x2
    100e64cc:	8b020000 	add	x0, x0, x2
    100e64d0:	eb05001f 	cmp	x0, x5
    100e64d4:	54000041 	b.ne	100e64dc <memmove+0x28>  // b.any
    100e64d8:	d65f03c0 	ret
    100e64dc:	385ffc81 	ldrb	w1, [x4, #-1]!
    100e64e0:	381ffc01 	strb	w1, [x0, #-1]!
    100e64e4:	17fffffb 	b	100e64d0 <memmove+0x1c>

00000000100e64e8 <memset>:
    100e64e8:	d2800003 	mov	x3, #0x0                   	// #0
    100e64ec:	eb03005f 	cmp	x2, x3
    100e64f0:	54000041 	b.ne	100e64f8 <memset+0x10>  // b.any
    100e64f4:	d65f03c0 	ret
    100e64f8:	38236801 	strb	w1, [x0, x3]
    100e64fc:	91000463 	add	x3, x3, #0x1
    100e6500:	17fffffb 	b	100e64ec <memset+0x4>

00000000100e6504 <unsigned_num_print>:
    100e6504:	a9ba7bfd 	stp	x29, x30, [sp, #-96]!
    100e6508:	2a0103e1 	mov	w1, w1
    100e650c:	910003fd 	mov	x29, sp
    100e6510:	a9025bf5 	stp	x21, x22, [sp, #32]
    100e6514:	910123f5 	add	x21, sp, #0x48
    100e6518:	f9001bf7 	str	x23, [sp, #48]
    100e651c:	12001c57 	and	w23, w2, #0xff
    100e6520:	a90153f3 	stp	x19, x20, [sp, #16]
    100e6524:	2a0303f3 	mov	w19, w3
    100e6528:	d2800003 	mov	x3, #0x0                   	// #0
    100e652c:	9ac10807 	udiv	x7, x0, x1
    100e6530:	11000474 	add	w20, w3, #0x1
    100e6534:	9b0180e6 	msub	x6, x7, x1, x0
    100e6538:	12001cc4 	and	w4, w6, #0xff
    100e653c:	f10024df 	cmp	x6, #0x9
    100e6540:	1100c085 	add	w5, w4, #0x30
    100e6544:	11015c84 	add	w4, w4, #0x57
    100e6548:	12001ca5 	and	w5, w5, #0xff
    100e654c:	12001c84 	and	w4, w4, #0xff
    100e6550:	1a858084 	csel	w4, w4, w5, hi  // hi = pmore
    100e6554:	38356864 	strb	w4, [x3, x21]
    100e6558:	eb00003f 	cmp	x1, x0
    100e655c:	91000463 	add	x3, x3, #0x1
    100e6560:	540001c9 	b.ls	100e6598 <unsigned_num_print+0x94>  // b.plast
    100e6564:	7100027f 	cmp	w19, #0x0
    100e6568:	540002cc 	b.gt	100e65c0 <unsigned_num_print+0xbc>
    100e656c:	52800013 	mov	w19, #0x0                   	// #0
    100e6570:	93407e96 	sxtw	x22, w20
    100e6574:	d10006d6 	sub	x22, x22, #0x1
    100e6578:	310006df 	cmn	w22, #0x1
    100e657c:	54000261 	b.ne	100e65c8 <unsigned_num_print+0xc4>  // b.any
    100e6580:	0b140260 	add	w0, w19, w20
    100e6584:	a94153f3 	ldp	x19, x20, [sp, #16]
    100e6588:	a9425bf5 	ldp	x21, x22, [sp, #32]
    100e658c:	f9401bf7 	ldr	x23, [sp, #48]
    100e6590:	a8c67bfd 	ldp	x29, x30, [sp], #96
    100e6594:	d65f03c0 	ret
    100e6598:	aa0703e0 	mov	x0, x7
    100e659c:	17ffffe4 	b	100e652c <unsigned_num_print+0x28>
    100e65a0:	510006d6 	sub	w22, w22, #0x1
    100e65a4:	2a1703e0 	mov	w0, w23
    100e65a8:	94000120 	bl	100e6a28 <putchar>
    100e65ac:	6b1402df 	cmp	w22, w20
    100e65b0:	54ffff8c 	b.gt	100e65a0 <unsigned_num_print+0x9c>
    100e65b4:	6b140260 	subs	w0, w19, w20
    100e65b8:	1a9fa013 	csel	w19, w0, wzr, ge  // ge = tcont
    100e65bc:	17ffffed 	b	100e6570 <unsigned_num_print+0x6c>
    100e65c0:	2a1303f6 	mov	w22, w19
    100e65c4:	17fffffa 	b	100e65ac <unsigned_num_print+0xa8>
    100e65c8:	38766aa0 	ldrb	w0, [x21, x22]
    100e65cc:	94000117 	bl	100e6a28 <putchar>
    100e65d0:	17ffffe9 	b	100e6574 <unsigned_num_print+0x70>

00000000100e65d4 <vprintf>:
    100e65d4:	a9b97bfd 	stp	x29, x30, [sp, #-112]!
    100e65d8:	910003fd 	mov	x29, sp
    100e65dc:	a90153f3 	stp	x19, x20, [sp, #16]
    100e65e0:	b9401834 	ldr	w20, [x1, #24]
    100e65e4:	a90363f7 	stp	x23, x24, [sp, #48]
    100e65e8:	a9405c33 	ldp	x19, x23, [x1]
    100e65ec:	a9025bf5 	stp	x21, x22, [sp, #32]
    100e65f0:	aa0003f6 	mov	x22, x0
    100e65f4:	a90573fb 	stp	x27, x28, [sp, #80]
    100e65f8:	f000001b 	adrp	x27, 100e9000 <non_el3_sys_regs+0x74>
    100e65fc:	9109137b 	add	x27, x27, #0x244
    100e6600:	52800015 	mov	w21, #0x0                   	// #0
    100e6604:	a9046bf9 	stp	x25, x26, [sp, #64]
    100e6608:	5280001a 	mov	w26, #0x0                   	// #0
    100e660c:	394002c0 	ldrb	w0, [x22]
    100e6610:	35000120 	cbnz	w0, 100e6634 <vprintf+0x60>
    100e6614:	2a1503e0 	mov	w0, w21
    100e6618:	a94153f3 	ldp	x19, x20, [sp, #16]
    100e661c:	a9425bf5 	ldp	x21, x22, [sp, #32]
    100e6620:	a94363f7 	ldp	x23, x24, [sp, #48]
    100e6624:	a9446bf9 	ldp	x25, x26, [sp, #64]
    100e6628:	a94573fb 	ldp	x27, x28, [sp, #80]
    100e662c:	a8c77bfd 	ldp	x29, x30, [sp], #112
    100e6630:	d65f03c0 	ret
    100e6634:	910006d6 	add	x22, x22, #0x1
    100e6638:	7100941f 	cmp	w0, #0x25
    100e663c:	54001c21 	b.ne	100e69c0 <vprintf+0x3ec>  // b.any
    100e6640:	52800018 	mov	w24, #0x0                   	// #0
    100e6644:	52800000 	mov	w0, #0x0                   	// #0
    100e6648:	14000002 	b	100e6650 <vprintf+0x7c>
    100e664c:	5280061a 	mov	w26, #0x30                  	// #48
    100e6650:	394002c1 	ldrb	w1, [x22]
    100e6654:	7100c03f 	cmp	w1, #0x30
    100e6658:	540019e0 	b.eq	100e6994 <vprintf+0x3c0>  // b.none
    100e665c:	51019021 	sub	w1, w1, #0x64
    100e6660:	12001c22 	and	w2, w1, #0xff
    100e6664:	7100585f 	cmp	w2, #0x16
    100e6668:	54001b28 	b.hi	100e69cc <vprintf+0x3f8>  // b.pmore
    100e666c:	7100583f 	cmp	w1, #0x16
    100e6670:	54001ae8 	b.hi	100e69cc <vprintf+0x3f8>  // b.pmore
    100e6674:	78615b61 	ldrh	w1, [x27, w1, uxtw #1]
    100e6678:	10000062 	adr	x2, 100e6684 <vprintf+0xb0>
    100e667c:	8b21a841 	add	x1, x2, w1, sxth #2
    100e6680:	d61f0020 	br	x1
    100e6684:	7100041f 	cmp	w0, #0x1
    100e6688:	5400022d 	b.le	100e66cc <vprintf+0xf8>
    100e668c:	37f802f4 	tbnz	w20, #31, 100e66e8 <vprintf+0x114>
    100e6690:	91003e60 	add	x0, x19, #0xf
    100e6694:	2a1403e1 	mov	w1, w20
    100e6698:	927df000 	and	x0, x0, #0xfffffffffffffff8
    100e669c:	f9400279 	ldr	x25, [x19]
    100e66a0:	2a0103f4 	mov	w20, w1
    100e66a4:	aa0003f3 	mov	x19, x0
    100e66a8:	b6f80459 	tbz	x25, #63, 100e6730 <vprintf+0x15c>
    100e66ac:	528005a0 	mov	w0, #0x2d                  	// #45
    100e66b0:	940000de 	bl	100e6a28 <putchar>
    100e66b4:	cb1903e0 	neg	x0, x25
    100e66b8:	51000718 	sub	w24, w24, #0x1
    100e66bc:	2a1803e3 	mov	w3, w24
    100e66c0:	2a1a03e2 	mov	w2, w26
    100e66c4:	52800141 	mov	w1, #0xa                   	// #10
    100e66c8:	1400006e 	b	100e6880 <vprintf+0x2ac>
    100e66cc:	54fffe00 	b.eq	100e668c <vprintf+0xb8>  // b.none
    100e66d0:	37f801f4 	tbnz	w20, #31, 100e670c <vprintf+0x138>
    100e66d4:	91002e60 	add	x0, x19, #0xb
    100e66d8:	2a1403e1 	mov	w1, w20
    100e66dc:	927df000 	and	x0, x0, #0xfffffffffffffff8
    100e66e0:	b9800279 	ldrsw	x25, [x19]
    100e66e4:	17ffffef 	b	100e66a0 <vprintf+0xcc>
    100e66e8:	11002281 	add	w1, w20, #0x8
    100e66ec:	7100003f 	cmp	w1, #0x0
    100e66f0:	5400008d 	b.le	100e6700 <vprintf+0x12c>
    100e66f4:	91003e60 	add	x0, x19, #0xf
    100e66f8:	927df000 	and	x0, x0, #0xfffffffffffffff8
    100e66fc:	17ffffe8 	b	100e669c <vprintf+0xc8>
    100e6700:	aa1303e0 	mov	x0, x19
    100e6704:	8b34c2f3 	add	x19, x23, w20, sxtw
    100e6708:	17ffffe5 	b	100e669c <vprintf+0xc8>
    100e670c:	11002281 	add	w1, w20, #0x8
    100e6710:	7100003f 	cmp	w1, #0x0
    100e6714:	5400008d 	b.le	100e6724 <vprintf+0x150>
    100e6718:	91002e60 	add	x0, x19, #0xb
    100e671c:	927df000 	and	x0, x0, #0xfffffffffffffff8
    100e6720:	17fffff0 	b	100e66e0 <vprintf+0x10c>
    100e6724:	aa1303e0 	mov	x0, x19
    100e6728:	8b34c2f3 	add	x19, x23, w20, sxtw
    100e672c:	17ffffed 	b	100e66e0 <vprintf+0x10c>
    100e6730:	aa1903e0 	mov	x0, x25
    100e6734:	17ffffe2 	b	100e66bc <vprintf+0xe8>
    100e6738:	37f80154 	tbnz	w20, #31, 100e6760 <vprintf+0x18c>
    100e673c:	91003e78 	add	x24, x19, #0xf
    100e6740:	2a1403f9 	mov	w25, w20
    100e6744:	927df318 	and	x24, x24, #0xfffffffffffffff8
    100e6748:	f9400260 	ldr	x0, [x19]
    100e674c:	b5000300 	cbnz	x0, 100e67ac <vprintf+0x1d8>
    100e6750:	f0000000 	adrp	x0, 100e9000 <non_el3_sys_regs+0x74>
    100e6754:	9108b000 	add	x0, x0, #0x22c
    100e6758:	52800381 	mov	w1, #0x1c                  	// #28
    100e675c:	97ffff42 	bl	100e6464 <__assert>
    100e6760:	11002299 	add	w25, w20, #0x8
    100e6764:	7100033f 	cmp	w25, #0x0
    100e6768:	5400008d 	b.le	100e6778 <vprintf+0x1a4>
    100e676c:	91003e78 	add	x24, x19, #0xf
    100e6770:	927df318 	and	x24, x24, #0xfffffffffffffff8
    100e6774:	17fffff5 	b	100e6748 <vprintf+0x174>
    100e6778:	aa1303f8 	mov	x24, x19
    100e677c:	8b34c2f3 	add	x19, x23, w20, sxtw
    100e6780:	17fffff2 	b	100e6748 <vprintf+0x174>
    100e6784:	940000a9 	bl	100e6a28 <putchar>
    100e6788:	2a1303e1 	mov	w1, w19
    100e678c:	91000673 	add	x19, x19, #0x1
    100e6790:	38736a80 	ldrb	w0, [x20, x19]
    100e6794:	35ffff80 	cbnz	w0, 100e6784 <vprintf+0x1b0>
    100e6798:	0b0102b5 	add	w21, w21, w1
    100e679c:	2a1903f4 	mov	w20, w25
    100e67a0:	aa1803f3 	mov	x19, x24
    100e67a4:	910006d6 	add	x22, x22, #0x1
    100e67a8:	17ffff99 	b	100e660c <vprintf+0x38>
    100e67ac:	d1000414 	sub	x20, x0, #0x1
    100e67b0:	d2800013 	mov	x19, #0x0                   	// #0
    100e67b4:	17fffff5 	b	100e6788 <vprintf+0x1b4>
    100e67b8:	37f801f4 	tbnz	w20, #31, 100e67f4 <vprintf+0x220>
    100e67bc:	91003e79 	add	x25, x19, #0xf
    100e67c0:	2a1403fc 	mov	w28, w20
    100e67c4:	927df339 	and	x25, x25, #0xfffffffffffffff8
    100e67c8:	f9400265 	ldr	x5, [x19]
    100e67cc:	b50003a5 	cbnz	x5, 100e6840 <vprintf+0x26c>
    100e67d0:	2a1803e3 	mov	w3, w24
    100e67d4:	2a1a03e2 	mov	w2, w26
    100e67d8:	aa0503e0 	mov	x0, x5
    100e67dc:	52800201 	mov	w1, #0x10                  	// #16
    100e67e0:	2a1c03f4 	mov	w20, w28
    100e67e4:	97ffff48 	bl	100e6504 <unsigned_num_print>
    100e67e8:	aa1903f3 	mov	x19, x25
    100e67ec:	0b0002b5 	add	w21, w21, w0
    100e67f0:	17ffffed 	b	100e67a4 <vprintf+0x1d0>
    100e67f4:	1100229c 	add	w28, w20, #0x8
    100e67f8:	7100039f 	cmp	w28, #0x0
    100e67fc:	5400008d 	b.le	100e680c <vprintf+0x238>
    100e6800:	91003e79 	add	x25, x19, #0xf
    100e6804:	927df339 	and	x25, x25, #0xfffffffffffffff8
    100e6808:	17fffff0 	b	100e67c8 <vprintf+0x1f4>
    100e680c:	aa1303f9 	mov	x25, x19
    100e6810:	8b34c2f3 	add	x19, x23, w20, sxtw
    100e6814:	17ffffed 	b	100e67c8 <vprintf+0x1f4>
    100e6818:	f90037e5 	str	x5, [sp, #104]
    100e681c:	94000083 	bl	100e6a28 <putchar>
    100e6820:	f94037e5 	ldr	x5, [sp, #104]
    100e6824:	2a1303e1 	mov	w1, w19
    100e6828:	91000673 	add	x19, x19, #0x1
    100e682c:	38746a60 	ldrb	w0, [x19, x20]
    100e6830:	35ffff40 	cbnz	w0, 100e6818 <vprintf+0x244>
    100e6834:	0b0102b5 	add	w21, w21, w1
    100e6838:	51000b18 	sub	w24, w24, #0x2
    100e683c:	17ffffe5 	b	100e67d0 <vprintf+0x1fc>
    100e6840:	f0000014 	adrp	x20, 100e9000 <non_el3_sys_regs+0x74>
    100e6844:	9108f694 	add	x20, x20, #0x23d
    100e6848:	d2800013 	mov	x19, #0x0                   	// #0
    100e684c:	17fffff6 	b	100e6824 <vprintf+0x250>
    100e6850:	7100041f 	cmp	w0, #0x1
    100e6854:	540001cd 	b.le	100e688c <vprintf+0x2b8>
    100e6858:	37f80294 	tbnz	w20, #31, 100e68a8 <vprintf+0x2d4>
    100e685c:	91003e61 	add	x1, x19, #0xf
    100e6860:	2a1403e2 	mov	w2, w20
    100e6864:	927df021 	and	x1, x1, #0xfffffffffffffff8
    100e6868:	f9400260 	ldr	x0, [x19]
    100e686c:	2a0203f4 	mov	w20, w2
    100e6870:	2a1803e3 	mov	w3, w24
    100e6874:	2a1a03e2 	mov	w2, w26
    100e6878:	aa0103f3 	mov	x19, x1
    100e687c:	52800201 	mov	w1, #0x10                  	// #16
    100e6880:	97ffff21 	bl	100e6504 <unsigned_num_print>
    100e6884:	0b0002b5 	add	w21, w21, w0
    100e6888:	17ffffc7 	b	100e67a4 <vprintf+0x1d0>
    100e688c:	54fffe60 	b.eq	100e6858 <vprintf+0x284>  // b.none
    100e6890:	37f801f4 	tbnz	w20, #31, 100e68cc <vprintf+0x2f8>
    100e6894:	91002e61 	add	x1, x19, #0xb
    100e6898:	2a1403e2 	mov	w2, w20
    100e689c:	927df021 	and	x1, x1, #0xfffffffffffffff8
    100e68a0:	b9400260 	ldr	w0, [x19]
    100e68a4:	17fffff2 	b	100e686c <vprintf+0x298>
    100e68a8:	11002282 	add	w2, w20, #0x8
    100e68ac:	7100005f 	cmp	w2, #0x0
    100e68b0:	5400008d 	b.le	100e68c0 <vprintf+0x2ec>
    100e68b4:	91003e61 	add	x1, x19, #0xf
    100e68b8:	927df021 	and	x1, x1, #0xfffffffffffffff8
    100e68bc:	17ffffeb 	b	100e6868 <vprintf+0x294>
    100e68c0:	aa1303e1 	mov	x1, x19
    100e68c4:	8b34c2f3 	add	x19, x23, w20, sxtw
    100e68c8:	17ffffe8 	b	100e6868 <vprintf+0x294>
    100e68cc:	11002282 	add	w2, w20, #0x8
    100e68d0:	7100005f 	cmp	w2, #0x0
    100e68d4:	5400008d 	b.le	100e68e4 <vprintf+0x310>
    100e68d8:	91002e61 	add	x1, x19, #0xb
    100e68dc:	927df021 	and	x1, x1, #0xfffffffffffffff8
    100e68e0:	17fffff0 	b	100e68a0 <vprintf+0x2cc>
    100e68e4:	aa1303e1 	mov	x1, x19
    100e68e8:	8b34c2f3 	add	x19, x23, w20, sxtw
    100e68ec:	17ffffed 	b	100e68a0 <vprintf+0x2cc>
    100e68f0:	910006d6 	add	x22, x22, #0x1
    100e68f4:	52800040 	mov	w0, #0x2                   	// #2
    100e68f8:	17ffff56 	b	100e6650 <vprintf+0x7c>
    100e68fc:	11000400 	add	w0, w0, #0x1
    100e6900:	910006d6 	add	x22, x22, #0x1
    100e6904:	17ffff53 	b	100e6650 <vprintf+0x7c>
    100e6908:	7100041f 	cmp	w0, #0x1
    100e690c:	5400012d 	b.le	100e6930 <vprintf+0x35c>
    100e6910:	37f801f4 	tbnz	w20, #31, 100e694c <vprintf+0x378>
    100e6914:	91003e61 	add	x1, x19, #0xf
    100e6918:	2a1403e2 	mov	w2, w20
    100e691c:	927df021 	and	x1, x1, #0xfffffffffffffff8
    100e6920:	f9400260 	ldr	x0, [x19]
    100e6924:	2a0203f4 	mov	w20, w2
    100e6928:	aa0103f3 	mov	x19, x1
    100e692c:	17ffff64 	b	100e66bc <vprintf+0xe8>
    100e6930:	54ffff00 	b.eq	100e6910 <vprintf+0x33c>  // b.none
    100e6934:	37f801f4 	tbnz	w20, #31, 100e6970 <vprintf+0x39c>
    100e6938:	91002e61 	add	x1, x19, #0xb
    100e693c:	2a1403e2 	mov	w2, w20
    100e6940:	927df021 	and	x1, x1, #0xfffffffffffffff8
    100e6944:	b9400260 	ldr	w0, [x19]
    100e6948:	17fffff7 	b	100e6924 <vprintf+0x350>
    100e694c:	11002282 	add	w2, w20, #0x8
    100e6950:	7100005f 	cmp	w2, #0x0
    100e6954:	5400008d 	b.le	100e6964 <vprintf+0x390>
    100e6958:	91003e61 	add	x1, x19, #0xf
    100e695c:	927df021 	and	x1, x1, #0xfffffffffffffff8
    100e6960:	17fffff0 	b	100e6920 <vprintf+0x34c>
    100e6964:	aa1303e1 	mov	x1, x19
    100e6968:	8b34c2f3 	add	x19, x23, w20, sxtw
    100e696c:	17ffffed 	b	100e6920 <vprintf+0x34c>
    100e6970:	11002282 	add	w2, w20, #0x8
    100e6974:	7100005f 	cmp	w2, #0x0
    100e6978:	5400008d 	b.le	100e6988 <vprintf+0x3b4>
    100e697c:	91002e61 	add	x1, x19, #0xb
    100e6980:	927df021 	and	x1, x1, #0xfffffffffffffff8
    100e6984:	17fffff0 	b	100e6944 <vprintf+0x370>
    100e6988:	aa1303e1 	mov	x1, x19
    100e698c:	8b34c2f3 	add	x19, x23, w20, sxtw
    100e6990:	17ffffed 	b	100e6944 <vprintf+0x370>
    100e6994:	910006d6 	add	x22, x22, #0x1
    100e6998:	52800018 	mov	w24, #0x0                   	// #0
    100e699c:	394002c1 	ldrb	w1, [x22]
    100e69a0:	5100c021 	sub	w1, w1, #0x30
    100e69a4:	12001c22 	and	w2, w1, #0xff
    100e69a8:	7100245f 	cmp	w2, #0x9
    100e69ac:	54ffe508 	b.hi	100e664c <vprintf+0x78>  // b.pmore
    100e69b0:	52800142 	mov	w2, #0xa                   	// #10
    100e69b4:	910006d6 	add	x22, x22, #0x1
    100e69b8:	1b020718 	madd	w24, w24, w2, w1
    100e69bc:	17fffff8 	b	100e699c <vprintf+0x3c8>
    100e69c0:	110006b5 	add	w21, w21, #0x1
    100e69c4:	94000019 	bl	100e6a28 <putchar>
    100e69c8:	17ffff11 	b	100e660c <vprintf+0x38>
    100e69cc:	12800015 	mov	w21, #0xffffffff            	// #-1
    100e69d0:	17ffff11 	b	100e6614 <vprintf+0x40>

00000000100e69d4 <printf>:
    100e69d4:	a9b77bfd 	stp	x29, x30, [sp, #-144]!
    100e69d8:	910003fd 	mov	x29, sp
    100e69dc:	a9058be1 	stp	x1, x2, [sp, #88]
    100e69e0:	910243e1 	add	x1, sp, #0x90
    100e69e4:	a90307e1 	stp	x1, x1, [sp, #48]
    100e69e8:	910143e1 	add	x1, sp, #0x50
    100e69ec:	f90023e1 	str	x1, [sp, #64]
    100e69f0:	128006e1 	mov	w1, #0xffffffc8            	// #-56
    100e69f4:	b9004be1 	str	w1, [sp, #72]
    100e69f8:	910043e1 	add	x1, sp, #0x10
    100e69fc:	b9004fff 	str	wzr, [sp, #76]
    100e6a00:	a90693e3 	stp	x3, x4, [sp, #104]
    100e6a04:	a9430fe2 	ldp	x2, x3, [sp, #48]
    100e6a08:	a9010fe2 	stp	x2, x3, [sp, #16]
    100e6a0c:	a9440fe2 	ldp	x2, x3, [sp, #64]
    100e6a10:	a9020fe2 	stp	x2, x3, [sp, #32]
    100e6a14:	a9079be5 	stp	x5, x6, [sp, #120]
    100e6a18:	f90047e7 	str	x7, [sp, #136]
    100e6a1c:	97fffeee 	bl	100e65d4 <vprintf>
    100e6a20:	a8c97bfd 	ldp	x29, x30, [sp], #144
    100e6a24:	d65f03c0 	ret

00000000100e6a28 <putchar>:
    100e6a28:	a9be7bfd 	stp	x29, x30, [sp, #-32]!
    100e6a2c:	910003fd 	mov	x29, sp
    100e6a30:	f9000bf3 	str	x19, [sp, #16]
    100e6a34:	2a0003f3 	mov	w19, w0
    100e6a38:	12001c00 	and	w0, w0, #0xff
    100e6a3c:	97fff5c6 	bl	100e4154 <console_putc>
    100e6a40:	7100001f 	cmp	w0, #0x0
    100e6a44:	5a9fa260 	csinv	w0, w19, wzr, ge  // ge = tcont
    100e6a48:	f9400bf3 	ldr	x19, [sp, #16]
    100e6a4c:	a8c27bfd 	ldp	x29, x30, [sp], #32
    100e6a50:	d65f03c0 	ret
	...

00000000100e7000 <sync_exception_sp_el0>:
    100e7000:	17fff959 	b	100e5564 <report_unhandled_exception>
	...

00000000100e7080 <irq_sp_el0>:
    100e7080:	17fff943 	b	100e558c <report_unhandled_interrupt>
	...

00000000100e7100 <fiq_sp_el0>:
    100e7100:	17fff923 	b	100e558c <report_unhandled_interrupt>
	...

00000000100e7180 <serror_sp_el0>:
    100e7180:	97fffc2d 	bl	100e6234 <plat_handle_el3_ea>
    100e7184:	d503201f 	nop
	...

00000000100e7200 <sync_exception_sp_elx>:
    100e7200:	17fff8d9 	b	100e5564 <report_unhandled_exception>
	...

00000000100e7280 <irq_sp_elx>:
    100e7280:	17fff8c3 	b	100e558c <report_unhandled_interrupt>
	...

00000000100e7300 <fiq_sp_elx>:
    100e7300:	17fff8a3 	b	100e558c <report_unhandled_interrupt>
	...

00000000100e7380 <serror_sp_elx>:
    100e7380:	97fffbad 	bl	100e6234 <plat_handle_el3_ea>
    100e7384:	d503201f 	nop
	...

00000000100e7400 <sync_exception_aarch64>:
    100e7400:	d50344ff 	msr	daifclr, #0x4
    100e7404:	f9007bfe 	str	x30, [sp, #240]
    100e7408:	d53e521e 	mrs	x30, esr_el3
    100e740c:	d35a7fde 	ubfx	x30, x30, #26, #6
    100e7410:	f1004fdf 	cmp	x30, #0x13
    100e7414:	54ff23c0 	b.eq	100e588c <smc_handler>  // b.none
    100e7418:	f1005fdf 	cmp	x30, #0x17
    100e741c:	54ff23a0 	b.eq	100e5890 <smc_handler64>  // b.none
    100e7420:	f9407bfe 	ldr	x30, [sp, #240]
    100e7424:	17fff8cd 	b	100e5758 <enter_lower_el_sync_ea>
	...

00000000100e7480 <irq_aarch64>:
    100e7480:	d50344ff 	msr	daifclr, #0x4
    100e7484:	f9007bfe 	str	x30, [sp, #240]
    100e7488:	97fffa23 	bl	100e5d14 <save_gp_pmcr_pauth_regs>
    100e748c:	d53e4000 	mrs	x0, spsr_el3
    100e7490:	d53e4021 	mrs	x1, elr_el3
    100e7494:	a91187e0 	stp	x0, x1, [sp, #280]
    100e7498:	f9408be2 	ldr	x2, [sp, #272]
    100e749c:	910003f4 	mov	x20, sp
    100e74a0:	d50040bf 	msr	spsel, #0x0
    100e74a4:	9100005f 	mov	sp, x2
    100e74a8:	97fff447 	bl	100e45c4 <plat_ic_get_pending_interrupt_type>
    100e74ac:	f1000c1f 	cmp	x0, #0x3
    100e74b0:	54000140 	b.eq	100e74d8 <interrupt_exit_irq_aarch64>  // b.none
    100e74b4:	97ffe65f 	bl	100e0e30 <get_interrupt_type_handler>
    100e74b8:	b4000100 	cbz	x0, 100e74d8 <interrupt_exit_irq_aarch64>
    100e74bc:	aa0003f5 	mov	x21, x0
    100e74c0:	b2407fe0 	mov	x0, #0xffffffff            	// #4294967295
    100e74c4:	d53e1102 	mrs	x2, scr_el3
    100e74c8:	d3400041 	ubfx	x1, x2, #0, #1
    100e74cc:	aa1403e2 	mov	x2, x20
    100e74d0:	aa1f03e3 	mov	x3, xzr
    100e74d4:	d63f02a0 	blr	x21

00000000100e74d8 <interrupt_exit_irq_aarch64>:
    100e74d8:	17fffa46 	b	100e5df0 <el3_exit>
	...

00000000100e7500 <fiq_aarch64>:
    100e7500:	d50344ff 	msr	daifclr, #0x4
    100e7504:	f9007bfe 	str	x30, [sp, #240]
    100e7508:	97fffa03 	bl	100e5d14 <save_gp_pmcr_pauth_regs>
    100e750c:	d53e4000 	mrs	x0, spsr_el3
    100e7510:	d53e4021 	mrs	x1, elr_el3
    100e7514:	a91187e0 	stp	x0, x1, [sp, #280]
    100e7518:	f9408be2 	ldr	x2, [sp, #272]
    100e751c:	910003f4 	mov	x20, sp
    100e7520:	d50040bf 	msr	spsel, #0x0
    100e7524:	9100005f 	mov	sp, x2
    100e7528:	97fff427 	bl	100e45c4 <plat_ic_get_pending_interrupt_type>
    100e752c:	f1000c1f 	cmp	x0, #0x3
    100e7530:	54000140 	b.eq	100e7558 <interrupt_exit_fiq_aarch64>  // b.none
    100e7534:	97ffe63f 	bl	100e0e30 <get_interrupt_type_handler>
    100e7538:	b4000100 	cbz	x0, 100e7558 <interrupt_exit_fiq_aarch64>
    100e753c:	aa0003f5 	mov	x21, x0
    100e7540:	b2407fe0 	mov	x0, #0xffffffff            	// #4294967295
    100e7544:	d53e1102 	mrs	x2, scr_el3
    100e7548:	d3400041 	ubfx	x1, x2, #0, #1
    100e754c:	aa1403e2 	mov	x2, x20
    100e7550:	aa1f03e3 	mov	x3, xzr
    100e7554:	d63f02a0 	blr	x21

00000000100e7558 <interrupt_exit_fiq_aarch64>:
    100e7558:	17fffa26 	b	100e5df0 <el3_exit>
	...

00000000100e7580 <serror_aarch64>:
    100e7580:	d50344ff 	msr	daifclr, #0x4
    100e7584:	17fff893 	b	100e57d0 <enter_lower_el_async_ea>
	...

00000000100e7600 <sync_exception_aarch32>:
    100e7600:	d50344ff 	msr	daifclr, #0x4
    100e7604:	f9007bfe 	str	x30, [sp, #240]
    100e7608:	d53e521e 	mrs	x30, esr_el3
    100e760c:	d35a7fde 	ubfx	x30, x30, #26, #6
    100e7610:	f1004fdf 	cmp	x30, #0x13
    100e7614:	54ff13c0 	b.eq	100e588c <smc_handler>  // b.none
    100e7618:	f1005fdf 	cmp	x30, #0x17
    100e761c:	54ff13a0 	b.eq	100e5890 <smc_handler64>  // b.none
    100e7620:	f9407bfe 	ldr	x30, [sp, #240]
    100e7624:	17fff84d 	b	100e5758 <enter_lower_el_sync_ea>
	...

00000000100e7680 <irq_aarch32>:
    100e7680:	d50344ff 	msr	daifclr, #0x4
    100e7684:	f9007bfe 	str	x30, [sp, #240]
    100e7688:	97fff9a3 	bl	100e5d14 <save_gp_pmcr_pauth_regs>
    100e768c:	d53e4000 	mrs	x0, spsr_el3
    100e7690:	d53e4021 	mrs	x1, elr_el3
    100e7694:	a91187e0 	stp	x0, x1, [sp, #280]
    100e7698:	f9408be2 	ldr	x2, [sp, #272]
    100e769c:	910003f4 	mov	x20, sp
    100e76a0:	d50040bf 	msr	spsel, #0x0
    100e76a4:	9100005f 	mov	sp, x2
    100e76a8:	97fff3c7 	bl	100e45c4 <plat_ic_get_pending_interrupt_type>
    100e76ac:	f1000c1f 	cmp	x0, #0x3
    100e76b0:	54000140 	b.eq	100e76d8 <interrupt_exit_irq_aarch32>  // b.none
    100e76b4:	97ffe5df 	bl	100e0e30 <get_interrupt_type_handler>
    100e76b8:	b4000100 	cbz	x0, 100e76d8 <interrupt_exit_irq_aarch32>
    100e76bc:	aa0003f5 	mov	x21, x0
    100e76c0:	b2407fe0 	mov	x0, #0xffffffff            	// #4294967295
    100e76c4:	d53e1102 	mrs	x2, scr_el3
    100e76c8:	d3400041 	ubfx	x1, x2, #0, #1
    100e76cc:	aa1403e2 	mov	x2, x20
    100e76d0:	aa1f03e3 	mov	x3, xzr
    100e76d4:	d63f02a0 	blr	x21

00000000100e76d8 <interrupt_exit_irq_aarch32>:
    100e76d8:	17fff9c6 	b	100e5df0 <el3_exit>
	...

00000000100e7700 <fiq_aarch32>:
    100e7700:	d50344ff 	msr	daifclr, #0x4
    100e7704:	f9007bfe 	str	x30, [sp, #240]
    100e7708:	97fff983 	bl	100e5d14 <save_gp_pmcr_pauth_regs>
    100e770c:	d53e4000 	mrs	x0, spsr_el3
    100e7710:	d53e4021 	mrs	x1, elr_el3
    100e7714:	a91187e0 	stp	x0, x1, [sp, #280]
    100e7718:	f9408be2 	ldr	x2, [sp, #272]
    100e771c:	910003f4 	mov	x20, sp
    100e7720:	d50040bf 	msr	spsel, #0x0
    100e7724:	9100005f 	mov	sp, x2
    100e7728:	97fff3a7 	bl	100e45c4 <plat_ic_get_pending_interrupt_type>
    100e772c:	f1000c1f 	cmp	x0, #0x3
    100e7730:	54000140 	b.eq	100e7758 <interrupt_exit_fiq_aarch32>  // b.none
    100e7734:	97ffe5bf 	bl	100e0e30 <get_interrupt_type_handler>
    100e7738:	b4000100 	cbz	x0, 100e7758 <interrupt_exit_fiq_aarch32>
    100e773c:	aa0003f5 	mov	x21, x0
    100e7740:	b2407fe0 	mov	x0, #0xffffffff            	// #4294967295
    100e7744:	d53e1102 	mrs	x2, scr_el3
    100e7748:	d3400041 	ubfx	x1, x2, #0, #1
    100e774c:	aa1403e2 	mov	x2, x20
    100e7750:	aa1f03e3 	mov	x3, xzr
    100e7754:	d63f02a0 	blr	x21

00000000100e7758 <interrupt_exit_fiq_aarch32>:
    100e7758:	17fff9a6 	b	100e5df0 <el3_exit>
	...

00000000100e7780 <serror_aarch32>:
    100e7780:	d50344ff 	msr	daifclr, #0x4
    100e7784:	17fff813 	b	100e57d0 <enter_lower_el_async_ea>
	...
