
Discarded input sections

 .data          0x0000000000000000        0x0 arch/arm/cpu/armv8/start.o
 .bss           0x0000000000000000        0x0 arch/arm/cpu/armv8/start.o
 .text.sdelay   0x0000000000000000        0xc arch/arm/cpu/armv8/built-in.o
 .text.timer_read_counter
                0x0000000000000000        0xc arch/arm/cpu/armv8/built-in.o
 .text.usec2ticks
                0x0000000000000000       0x44 arch/arm/cpu/armv8/built-in.o
 .text.timer_get_boot_us
                0x0000000000000000       0x28 arch/arm/cpu/armv8/built-in.o
 .text.flush_dcache_all
                0x0000000000000000       0x14 arch/arm/cpu/armv8/built-in.o
 .text.arch_get_page_table
                0x0000000000000000       0x20 arch/arm/cpu/armv8/built-in.o
 .text.mmu_change_region_attr
                0x0000000000000000       0xe8 arch/arm/cpu/armv8/built-in.o
 .text.icache_status
                0x0000000000000000       0x34 arch/arm/cpu/armv8/built-in.o
 .text.armv8_switch_to_el1
                0x0000000000000000       0xd0 arch/arm/cpu/armv8/built-in.o
 .text.smc_call
                0x0000000000000000       0x44 arch/arm/cpu/armv8/built-in.o
 .text.psci_system_reset
                0x0000000000000000       0x20 arch/arm/cpu/armv8/built-in.o
 .text.psci_system_off
                0x0000000000000000       0x20 arch/arm/cpu/armv8/built-in.o
 .rodata.arch_get_page_table.str1.1
                0x0000000000000000       0x1e arch/arm/cpu/armv8/built-in.o
 .eh_frame      0x0000000000000000      0x4a4 arch/arm/cpu/armv8/built-in.o
 .data          0x0000000000000000        0x0 arch/arm/cpu/armv8/built-in.o
 .bss           0x0000000000000000        0x0 arch/arm/cpu/armv8/built-in.o
 .text.armv7_boot_nonsec_default
                0x0000000000000000        0x8 arch/arm/lib/built-in.o
 .text.enable_caches
                0x0000000000000000        0xc arch/arm/lib/built-in.o
 .text.invalidate_dcache_range
                0x0000000000000000        0x4 arch/arm/lib/built-in.o
 .text.flush_dcache_range
                0x0000000000000000        0x4 arch/arm/lib/built-in.o
 .text.flush_dcache_all
                0x0000000000000000        0xc arch/arm/lib/built-in.o
 .text.check_cache_range
                0x0000000000000000       0x3c arch/arm/lib/built-in.o
 .text.fdt_psci
                0x0000000000000000        0x8 arch/arm/lib/built-in.o
 .rodata.enable_caches.str1.1
                0x0000000000000000       0x1d arch/arm/lib/built-in.o
 .rodata.check_cache_range.str1.1
                0x0000000000000000       0x35 arch/arm/lib/built-in.o
 .eh_frame      0x0000000000000000      0x468 arch/arm/lib/built-in.o
 .data          0x0000000000000000        0x0 arch/arm/lib/built-in.o
 .__efi_runtime_rel_start
                0x0000000000000000        0x0 arch/arm/lib/built-in.o
 .__efi_runtime_rel_stop
                0x0000000000000000        0x0 arch/arm/lib/built-in.o
 .__efi_runtime_start
                0x0000000000000000        0x0 arch/arm/lib/built-in.o
 .__efi_runtime_stop
                0x0000000000000000        0x0 arch/arm/lib/built-in.o
 .__end         0x0000000000000000        0x0 arch/arm/lib/built-in.o
 .__secure_end  0x0000000000000000        0x0 arch/arm/lib/built-in.o
 .__secure_stack_end
                0x0000000000000000        0x0 arch/arm/lib/built-in.o
 .__secure_stack_start
                0x0000000000000000        0x0 arch/arm/lib/built-in.o
 .__secure_start
                0x0000000000000000        0x0 arch/arm/lib/built-in.o
 .bss           0x0000000000000000        0x0 arch/arm/lib/built-in.o
 .text          0x0000000000000000        0x0 arch/arm/mach-bcm283x/built-in.o
 .text.hw_watchdog_disable
                0x0000000000000000        0x4 arch/arm/mach-bcm283x/built-in.o
 .eh_frame      0x0000000000000000      0x22c arch/arm/mach-bcm283x/built-in.o
 .data          0x0000000000000000        0x0 arch/arm/mach-bcm283x/built-in.o
 .bss           0x0000000000000000        0x0 arch/arm/mach-bcm283x/built-in.o
 .text.board_fdt_blob_setup
                0x0000000000000000       0x20 board/raspberrypi/rpi/built-in.o
 .eh_frame      0x0000000000000000       0xdc board/raspberrypi/rpi/built-in.o
 .data          0x0000000000000000        0x0 board/raspberrypi/rpi/built-in.o
 .bss           0x0000000000000000        0x0 board/raspberrypi/rpi/built-in.o
 .text          0x0000000000000000        0x0 cmd/built-in.o
 .text.name_to_gpio
                0x0000000000000000       0x1c cmd/built-in.o
 .eh_frame      0x0000000000000000     0x2428 cmd/built-in.o
 .data          0x0000000000000000        0x0 cmd/built-in.o
 .bss           0x0000000000000000        0x0 cmd/built-in.o
 .text          0x0000000000000000        0x0 common/built-in.o
 .text.hash_finish_crc32
                0x0000000000000000       0x38 common/built-in.o
 .text.hash_finish_crc16_ccitt
                0x0000000000000000       0x38 common/built-in.o
 .text.hash_update_crc32
                0x0000000000000000       0x34 common/built-in.o
 .text.hash_init_crc32
                0x0000000000000000       0x30 common/built-in.o
 .text.hash_init_crc16_ccitt
                0x0000000000000000       0x30 common/built-in.o
 .text.hash_update_crc16_ccitt
                0x0000000000000000       0x34 common/built-in.o
 .text.hash_lookup_algo
                0x0000000000000000       0x68 common/built-in.o
 .text.hash_progressive_lookup_algo
                0x0000000000000000       0x7c common/built-in.o
 .text.hash_parse_string
                0x0000000000000000       0x7c common/built-in.o
 .text.hash_block
                0x0000000000000000       0x88 common/built-in.o
 .text.unset_local_var
                0x0000000000000000       0xb8 common/built-in.o
 .text.arch_cpu_init
                0x0000000000000000        0x8 common/built-in.o
 .text.coloured_LED_init
                0x0000000000000000        0x4 common/built-in.o
 .text.red_led_on
                0x0000000000000000        0x4 common/built-in.o
 .text.red_led_off
                0x0000000000000000        0x4 common/built-in.o
 .text.green_led_on
                0x0000000000000000        0x4 common/built-in.o
 .text.green_led_off
                0x0000000000000000        0x4 common/built-in.o
 .text.yellow_led_on
                0x0000000000000000        0x4 common/built-in.o
 .text.yellow_led_off
                0x0000000000000000        0x4 common/built-in.o
 .text.blue_led_on
                0x0000000000000000        0x4 common/built-in.o
 .text.blue_led_off
                0x0000000000000000        0x4 common/built-in.o
 .text.board_get_usable_ram_top
                0x0000000000000000        0xc common/built-in.o
 .text.arch_reserve_stacks
                0x0000000000000000        0x8 common/built-in.o
 .text.board_flash_wp_on
                0x0000000000000000        0x8 common/built-in.o
 .text.fixup_cpu
                0x0000000000000000        0x8 common/built-in.o
 .text.board_quiesce_devices
                0x0000000000000000        0x4 common/built-in.o
 .text.fdt_read_prop
                0x0000000000000000       0x48 common/built-in.o
 .text.fdt_getprop_u32_default_node
                0x0000000000000000       0x4c common/built-in.o
 .text.fdt_getprop_u32_default
                0x0000000000000000       0x5c common/built-in.o
 .text.do_fixup_by_path_u32
                0x0000000000000000       0x28 common/built-in.o
 .text.do_fixup_by_prop
                0x0000000000000000       0xc8 common/built-in.o
 .text.do_fixup_by_prop_u32
                0x0000000000000000       0x28 common/built-in.o
 .text.do_fixup_by_compat
                0x0000000000000000       0xa8 common/built-in.o
 .text.do_fixup_by_compat_u32
                0x0000000000000000       0x28 common/built-in.o
 .text.fdt_record_loadable
                0x0000000000000000      0x174 common/built-in.o
 .text.fdt_increase_size
                0x0000000000000000       0x14 common/built-in.o
 .text.fdt_del_node_and_alias
                0x0000000000000000       0x5c common/built-in.o
 .text.fdt_node_offset_by_compat_reg
                0x0000000000000000       0xa0 common/built-in.o
 .text.fdt_alloc_phandle
                0x0000000000000000       0x6c common/built-in.o
 .text.fdt_set_phandle
                0x0000000000000000       0x68 common/built-in.o
 .text.fdt_create_phandle
                0x0000000000000000       0x78 common/built-in.o
 .text.fdt_set_node_status
                0x0000000000000000       0xdc common/built-in.o
 .text.fdt_set_status_by_alias
                0x0000000000000000       0x40 common/built-in.o
 .text.fdt_verify_alias_address
                0x0000000000000000       0xdc common/built-in.o
 .text.fdt_get_base_address
                0x0000000000000000       0x4c common/built-in.o
 .text.fdt_read_range
                0x0000000000000000      0x154 common/built-in.o
 .text.fdt_fixup_display
                0x0000000000000000       0xe8 common/built-in.o
 .text.mdio_register_seq
                0x0000000000000000       0x48 common/built-in.o
 .text.mdio_get_list_head
                0x0000000000000000        0xc common/built-in.o
 .text.usb_get_report
                0x0000000000000000       0x5c common/built-in.o
 .text.usb_get_class_descriptor
                0x0000000000000000       0x5c common/built-in.o
 .text.board_usb_init
                0x0000000000000000        0x8 common/built-in.o
 .text.board_usb_cleanup
                0x0000000000000000        0x8 common/built-in.o
 .text.usb_hub_probe
                0x0000000000000000       0x54 common/built-in.o
 .text.iomux_printdevs
                0x0000000000000000       0x7c common/built-in.o
 .text.splash_screen_prepare
                0x0000000000000000        0x8 common/built-in.o
 .text.lcd_dt_simplefb_enable_existing_node
                0x0000000000000000       0x48 common/built-in.o
 .text.menu_default_choice
                0x0000000000000000       0x20 common/built-in.o
 .text.overwrite_console
                0x0000000000000000        0x8 common/built-in.o
 .text.cli_simple_parse_line
                0x0000000000000000       0x9c common/built-in.o
 .text.cli_simple_run_command
                0x0000000000000000      0x148 common/built-in.o
 .text.cli_simple_loop
                0x0000000000000000       0x90 common/built-in.o
 .text.cli_simple_run_command_list
                0x0000000000000000       0x74 common/built-in.o
 .text.fgetc    0x0000000000000000       0x44 common/built-in.o
 .text.ftstc    0x0000000000000000       0x14 common/built-in.o
 .text.fputc    0x0000000000000000       0x14 common/built-in.o
 .text.fprintf  0x0000000000000000       0xb4 common/built-in.o
 .text.confirm_yesno
                0x0000000000000000       0xd8 common/built-in.o
 .text.console_announce_r
                0x0000000000000000       0xbc common/built-in.o
 .text.valloc   0x0000000000000000        0xc common/built-in.o
 .text.pvalloc  0x0000000000000000       0x10 common/built-in.o
 .text.cfree    0x0000000000000000        0x4 common/built-in.o
 .text.malloc_usable_size
                0x0000000000000000       0x40 common/built-in.o
 .text.mallopt  0x0000000000000000       0x58 common/built-in.o
 .text.memalign_simple
                0x0000000000000000       0x10 common/built-in.o
 .text.malloc_simple_info
                0x0000000000000000        0x4 common/built-in.o
 .text.genimg_get_short_name
                0x0000000000000000       0x28 common/built-in.o
 .text.genimg_get_cat_name
                0x0000000000000000       0x78 common/built-in.o
 .text.genimg_get_cat_short_name
                0x0000000000000000       0x78 common/built-in.o
 .text.genimg_get_cat_count
                0x0000000000000000       0x1c common/built-in.o
 .text.genimg_get_cat_desc
                0x0000000000000000       0x1c common/built-in.o
 .text.genimg_get_type_short_name
                0x0000000000000000       0x10 common/built-in.o
 .text.genimg_get_comp_short_name
                0x0000000000000000       0x10 common/built-in.o
 .text.genimg_get_os_short_name
                0x0000000000000000       0x10 common/built-in.o
 .text.genimg_get_arch_short_name
                0x0000000000000000       0x10 common/built-in.o
 .text.get_table_entry_id
                0x0000000000000000       0x50 common/built-in.o
 .text.genimg_get_os_id
                0x0000000000000000       0x18 common/built-in.o
 .text.genimg_get_arch_id
                0x0000000000000000       0x18 common/built-in.o
 .text.genimg_get_type_id
                0x0000000000000000       0x18 common/built-in.o
 .text.genimg_get_comp_id
                0x0000000000000000       0x18 common/built-in.o
 .text.arch_fixup_fdt
                0x0000000000000000        0x8 common/built-in.o
 .text.get_ram_size
                0x0000000000000000       0xf4 common/built-in.o
 .text.stdio_deregister
                0x0000000000000000       0x38 common/built-in.o
 .text.stdio_init
                0x0000000000000000       0x1c common/built-in.o
 .text.run_command_repeatable
                0x0000000000000000       0x20 common/built-in.o
 .text.cmd_discard_repeatable
                0x0000000000000000       0x1c common/built-in.o
 .rodata.fdt_record_loadable.str1.1
                0x0000000000000000       0x2e common/built-in.o
 .rodata.fdt_set_phandle.str1.1
                0x0000000000000000       0x16 common/built-in.o
 .rodata.fdt_create_phandle.str1.1
                0x0000000000000000       0x1a common/built-in.o
 .rodata.fdt_set_node_status
                0x0000000000000000        0x4 common/built-in.o
 .rodata.fdt_verify_alias_address.str1.1
                0x0000000000000000       0xcc common/built-in.o
 .rodata.fdt_read_range.str1.1
                0x0000000000000000        0xf common/built-in.o
 .rodata.fdt_fixup_display.str1.1
                0x0000000000000000       0x1c common/built-in.o
 .rodata.__func__.8321
                0x0000000000000000       0x14 common/built-in.o
 .rodata.mdio_register_seq.str1.1
                0x0000000000000000        0x6 common/built-in.o
 .rodata.iomux_printdevs.str1.1
                0x0000000000000000        0x6 common/built-in.o
 .rodata.lcd_dt_simplefb_enable_existing_node.str1.1
                0x0000000000000000       0x13 common/built-in.o
 .rodata.cli_simple_parse_line.str1.1
                0x0000000000000000       0x1f common/built-in.o
 .rodata.cli_simple_run_command.str1.1
                0x0000000000000000       0x16 common/built-in.o
 .rodata.cli_simple_loop.str1.1
                0x0000000000000000       0x16 common/built-in.o
 .rodata.confirm_yesno.str1.1
                0x0000000000000000       0x10 common/built-in.o
 .rodata.mallopt
                0x0000000000000000        0x4 common/built-in.o
 .rodata.genimg_get_short_name.str1.1
                0x0000000000000000        0x8 common/built-in.o
 .rodata.genimg_get_os_id.str1.1
                0x0000000000000000        0x3 common/built-in.o
 .rodata.genimg_get_arch_id.str1.1
                0x0000000000000000        0x4 common/built-in.o
 .rodata.genimg_get_type_id.str1.1
                0x0000000000000000        0x6 common/built-in.o
 .rodata.genimg_get_comp_id.str1.1
                0x0000000000000000        0xc common/built-in.o
 .rodata.table_info
                0x0000000000000000       0x60 common/built-in.o
 .rodata.unknown_str.8023
                0x0000000000000000        0x9 common/built-in.o
 .eh_frame      0x0000000000000000     0x3e40 common/built-in.o
 .data          0x0000000000000000        0x0 common/built-in.o
 .data.hash_algo
                0x0000000000000000       0x70 common/built-in.o
 .bss           0x0000000000000000        0x0 common/built-in.o
 .bss.lastcommand.6681
                0x0000000000000000      0x401 common/built-in.o
 .bss.msg.8024  0x0000000000000000       0x1e common/built-in.o
 .bss.save_addr
                0x0000000000000000        0x8 common/built-in.o
 .bss.save_size
                0x0000000000000000        0x8 common/built-in.o
 .text          0x0000000000000000        0x0 disk/built-in.o
 .text.blk_get_dev
                0x0000000000000000       0x38 disk/built-in.o
 .text.is_valid_dos_buf
                0x0000000000000000       0x1c disk/built-in.o
 .text.write_mbr_partition
                0x0000000000000000       0x80 disk/built-in.o
 .text.get_disk_guid
                0x0000000000000000       0xe0 disk/built-in.o
 .text.write_gpt_table
                0x0000000000000000      0x4ec disk/built-in.o
 .text.gpt_fill_pte
                0x0000000000000000      0x398 disk/built-in.o
 .text.gpt_fill_header
                0x0000000000000000      0x250 disk/built-in.o
 .text.gpt_restore
                0x0000000000000000      0x150 disk/built-in.o
 .text.gpt_verify_headers
                0x0000000000000000       0x98 disk/built-in.o
 .text.gpt_verify_partitions
                0x0000000000000000      0x1f4 disk/built-in.o
 .text.is_valid_gpt_buf
                0x0000000000000000       0x9c disk/built-in.o
 .text.write_mbr_and_gpt_partitions
                0x0000000000000000      0x45c disk/built-in.o
 .rodata.write_mbr_partition.str1.1
                0x0000000000000000       0x2d disk/built-in.o
 .rodata.__func__.6644
                0x0000000000000000       0x14 disk/built-in.o
 .rodata.write_gpt_table.str1.1
                0x0000000000000000       0x55 disk/built-in.o
 .rodata.gpt_fill_pte.str1.1
                0x0000000000000000       0x5b disk/built-in.o
 .rodata.gpt_fill_header.str1.1
                0x0000000000000000       0x24 disk/built-in.o
 .rodata.gpt_verify_partitions.str1.1
                0x0000000000000000       0xa3 disk/built-in.o
 .rodata.write_mbr_and_gpt_partitions.str1.1
                0x0000000000000000       0x7c disk/built-in.o
 .rodata.__func__.7845
                0x0000000000000000        0xe disk/built-in.o
 .rodata.__func__.7878
                0x0000000000000000       0x13 disk/built-in.o
 .rodata.__func__.7940
                0x0000000000000000        0xc disk/built-in.o
 .rodata.__func__.7958
                0x0000000000000000       0x13 disk/built-in.o
 .rodata.__func__.7991
                0x0000000000000000       0x1d disk/built-in.o
 .rodata.partition_basic_data_guid
                0x0000000000000000       0x10 disk/built-in.o
 .eh_frame      0x0000000000000000      0x7fc disk/built-in.o
 .data          0x0000000000000000        0x0 disk/built-in.o
 .bss           0x0000000000000000        0x0 disk/built-in.o
 .text          0x0000000000000000        0x0 drivers/built-in.o
 .text._device_find_global_by_ofnode
                0x0000000000000000       0x64 drivers/built-in.o
 .text.device_bind_ofnode
                0x0000000000000000       0x10 drivers/built-in.o
 .text.device_get_child
                0x0000000000000000       0x5c drivers/built-in.o
 .text.device_find_child_by_seq
                0x0000000000000000       0x58 drivers/built-in.o
 .text.device_get_child_by_seq
                0x0000000000000000       0x60 drivers/built-in.o
 .text.device_find_child_by_of_offset
                0x0000000000000000       0x44 drivers/built-in.o
 .text.device_get_child_by_of_offset
                0x0000000000000000       0x40 drivers/built-in.o
 .text.device_find_global_by_ofnode
                0x0000000000000000       0x30 drivers/built-in.o
 .text.device_get_global_by_ofnode
                0x0000000000000000       0x44 drivers/built-in.o
 .text.device_find_first_inactive_child
                0x0000000000000000       0x54 drivers/built-in.o
 .text.device_find_first_child_by_uclass
                0x0000000000000000       0x4c drivers/built-in.o
 .text.device_find_child_by_name
                0x0000000000000000       0x68 drivers/built-in.o
 .text.dev_get_driver_ops
                0x0000000000000000       0x10 drivers/built-in.o
 .text.dev_get_uclass_name
                0x0000000000000000       0x14 drivers/built-in.o
 .text.device_has_children
                0x0000000000000000       0x14 drivers/built-in.o
 .text.device_set_name
                0x0000000000000000       0x44 drivers/built-in.o
 .text.device_is_compatible
                0x0000000000000000       0x20 drivers/built-in.o
 .text.of_machine_is_compatible
                0x0000000000000000       0x28 drivers/built-in.o
 .text.dev_disable_by_path
                0x0000000000000000       0x18 drivers/built-in.o
 .text.dev_enable_by_path
                0x0000000000000000       0x1c drivers/built-in.o
 .text.devfdt_get_addr_size_index
                0x0000000000000000       0x48 drivers/built-in.o
 .text.devfdt_get_addr_name
                0x0000000000000000       0x50 drivers/built-in.o
 .text.devfdt_remap_addr_index
                0x0000000000000000       0x20 drivers/built-in.o
 .text.devfdt_remap_addr_name
                0x0000000000000000       0x20 drivers/built-in.o
 .text.devfdt_remap_addr
                0x0000000000000000        0x8 drivers/built-in.o
 .text.devfdt_map_physmem
                0x0000000000000000       0x20 drivers/built-in.o
 .text.dm_fixup_for_gd_move
                0x0000000000000000       0x20 drivers/built-in.o
 .text.dm_set_translation_offset
                0x0000000000000000       0x28 drivers/built-in.o
 .text.dm_uninit
                0x0000000000000000       0x2c drivers/built-in.o
 .text.uclass_destroy
                0x0000000000000000       0x98 drivers/built-in.o
 .text.uclass_get_name
                0x0000000000000000       0x30 drivers/built-in.o
 .text.uclass_get_by_name
                0x0000000000000000       0x54 drivers/built-in.o
 .text.uclass_get_device_by_driver
                0x0000000000000000       0x7c drivers/built-in.o
 .text.list_count_items
                0x0000000000000000       0x28 drivers/built-in.o
 .text.dm_fdt_pre_reloc
                0x0000000000000000       0x78 drivers/built-in.o
 .text.simple_bus_translate
                0x0000000000000000       0x50 drivers/built-in.o
 .text.ofnode_read_fmap_entry
                0x0000000000000000      0x104 drivers/built-in.o
 .text.ofnode_decode_region
                0x0000000000000000       0x5c drivers/built-in.o
 .text.ofnode_decode_memory_region
                0x0000000000000000      0x118 drivers/built-in.o
 .text.ofnode_read_s32_default
                0x0000000000000000       0x20 drivers/built-in.o
 .text.ofnode_read_u64
                0x0000000000000000       0x58 drivers/built-in.o
 .text.ofnode_read_u64_default
                0x0000000000000000       0x20 drivers/built-in.o
 .text.ofnode_read_string
                0x0000000000000000       0x5c drivers/built-in.o
 .text.ofnode_find_subnode
                0x0000000000000000       0x24 drivers/built-in.o
 .text.ofnode_get_parent
                0x0000000000000000       0x20 drivers/built-in.o
 .text.ofnode_get_by_phandle
                0x0000000000000000       0x20 drivers/built-in.o
 .text.ofnode_read_size
                0x0000000000000000       0x34 drivers/built-in.o
 .text.decode_timing_property
                0x0000000000000000       0x78 drivers/built-in.o
 .text.ofnode_read_string_index
                0x0000000000000000       0x48 drivers/built-in.o
 .text.ofnode_read_string_count
                0x0000000000000000       0x10 drivers/built-in.o
 .text.ofnode_count_phandle_with_args
                0x0000000000000000       0x20 drivers/built-in.o
 .text.ofnode_get_chosen_prop
                0x0000000000000000       0x2c drivers/built-in.o
 .text.ofnode_get_chosen_node
                0x0000000000000000       0x24 drivers/built-in.o
 .text.ofnode_decode_display_timing
                0x0000000000000000      0x2e8 drivers/built-in.o
 .text.ofnode_is_available
                0x0000000000000000       0x24 drivers/built-in.o
 .text.ofnode_get_addr_size
                0x0000000000000000       0x14 drivers/built-in.o
 .text.ofnode_read_u8_array_ptr
                0x0000000000000000       0x14 drivers/built-in.o
 .text.ofnode_read_pci_addr
                0x0000000000000000       0xac drivers/built-in.o
 .text.ofnode_read_pci_vendev
                0x0000000000000000      0x104 drivers/built-in.o
 .text.ofnode_read_addr_cells
                0x0000000000000000        0xc drivers/built-in.o
 .text.ofnode_read_size_cells
                0x0000000000000000        0xc drivers/built-in.o
 .text.ofnode_get_addr_index
                0x0000000000000000       0x68 drivers/built-in.o
 .text.ofnode_get_addr
                0x0000000000000000        0x8 drivers/built-in.o
 .text.ofnode_read_simple_addr_cells
                0x0000000000000000        0x4 drivers/built-in.o
 .text.ofnode_read_simple_size_cells
                0x0000000000000000        0x4 drivers/built-in.o
 .text.ofnode_read_resource
                0x0000000000000000       0x68 drivers/built-in.o
 .text.ofnode_read_resource_byname
                0x0000000000000000       0x4c drivers/built-in.o
 .text.ofnode_translate_address
                0x0000000000000000       0x10 drivers/built-in.o
 .text.ofnode_device_is_compatible
                0x0000000000000000       0x28 drivers/built-in.o
 .text.ofnode_by_compatible
                0x0000000000000000       0x24 drivers/built-in.o
 .text.ofnode_by_prop_value
                0x0000000000000000       0x2c drivers/built-in.o
 .text.ofnode_write_prop
                0x0000000000000000        0x8 drivers/built-in.o
 .text.ofnode_write_string
                0x0000000000000000        0x8 drivers/built-in.o
 .text.ofnode_set_enabled
                0x0000000000000000        0x8 drivers/built-in.o
 .text._input_send_keycodes
                0x0000000000000000      0x420 drivers/built-in.o
 .text.input_send_keycodes
                0x0000000000000000        0x8 drivers/built-in.o
 .text.input_add_keycode
                0x0000000000000000       0x80 drivers/built-in.o
 .text.input_add_table
                0x0000000000000000       0x38 drivers/built-in.o
 .text.input_set_delays
                0x0000000000000000        0x8 drivers/built-in.o
 .text.input_allow_repeats
                0x0000000000000000        0x8 drivers/built-in.o
 .text.input_leds_changed
                0x0000000000000000       0x18 drivers/built-in.o
 .text.input_add_tables
                0x0000000000000000       0x70 drivers/built-in.o
 .text.input_stdio_register
                0x0000000000000000       0x58 drivers/built-in.o
 .text.create_keymap
                0x0000000000000000       0xa0 drivers/built-in.o
 .text.key_matrix_decode
                0x0000000000000000       0xdc drivers/built-in.o
 .text.key_matrix_decode_fdt
                0x0000000000000000       0xb4 drivers/built-in.o
 .text.key_matrix_init
                0x0000000000000000       0x50 drivers/built-in.o
 .text.pinctrl_decode_pin_config
                0x0000000000000000       0x58 drivers/built-in.o
 .text.pinctrl_decode_pin_config_dm
                0x0000000000000000       0x74 drivers/built-in.o
 .text.pinctrl_request
                0x0000000000000000       0x20 drivers/built-in.o
 .text.pinctrl_request_noflags
                0x0000000000000000        0x8 drivers/built-in.o
 .text.pinctrl_get_periph_id
                0x0000000000000000       0x20 drivers/built-in.o
 .text.blk_get_by_device
                0x0000000000000000       0x74 drivers/built-in.o
 .text.blk_get_from_parent
                0x0000000000000000       0x5c drivers/built-in.o
 .text.blk_unbind_all
                0x0000000000000000       0xa8 drivers/built-in.o
 .text.cpu_mmc_init
                0x0000000000000000        0x8 drivers/built-in.o
 .text.board_mmc_init
                0x0000000000000000        0x8 drivers/built-in.o
 .text.mmc_set_preinit
                0x0000000000000000        0x8 drivers/built-in.o
 .text.mmc_of_parse
                0x0000000000000000      0x27c drivers/built-in.o
 .text.mmc_get_next_devnum
                0x0000000000000000        0x8 drivers/built-in.o
 .text.mmc_unbind
                0x0000000000000000       0x34 drivers/built-in.o
 .text.rtc_to_tm
                0x0000000000000000      0x144 drivers/built-in.o
 .text.panel_enable_backlight
                0x0000000000000000       0x20 drivers/built-in.o
 .text.panel_set_backlight
                0x0000000000000000       0x20 drivers/built-in.o
 .text.panel_get_display_timing
                0x0000000000000000       0x20 drivers/built-in.o
 .text.fb_put_byte
                0x0000000000000000       0x24 drivers/built-in.o
 .text.video_bmp_display
                0x0000000000000000      0x3a0 drivers/built-in.o
 .rodata.devfdt_get_addr_name.str1.1
                0x0000000000000000        0xa drivers/built-in.o
 .rodata.ofnode_read_fmap_entry.str1.1
                0x0000000000000000       0x32 drivers/built-in.o
 .rodata.ofnode_decode_memory_region.str1.1
                0x0000000000000000       0x2d drivers/built-in.o
 .rodata.ofnode_get_chosen_prop.str1.1
                0x0000000000000000        0x8 drivers/built-in.o
 .rodata.ofnode_decode_display_timing.str1.1
                0x0000000000000000       0xca drivers/built-in.o
 .rodata.ofnode_read_pci_vendev.str1.1
                0x0000000000000000       0x1c drivers/built-in.o
 .rodata.ofnode_get_addr_index.str1.1
                0x0000000000000000        0x4 drivers/built-in.o
 .rodata.ofnode_read_resource_byname.str1.1
                0x0000000000000000        0xa drivers/built-in.o
 .rodata.input_stdio_register.str1.1
                0x0000000000000000        0x6 drivers/built-in.o
 .rodata.kbd_plain_xlate
                0x0000000000000000       0x64 drivers/built-in.o
 .rodata.kbd_plain_xlate_german
                0x0000000000000000       0x84 drivers/built-in.o
 .rodata.kbd_to_ansi364
                0x0000000000000000       0x40 drivers/built-in.o
 .rodata.key_matrix_decode_fdt.str1.1
                0x0000000000000000       0x1d drivers/built-in.o
 .rodata.pinctrl_decode_pin_config.str1.1
                0x0000000000000000       0x1c drivers/built-in.o
 .rodata.mmc_of_parse.str1.1
                0x0000000000000000       0xf2 drivers/built-in.o
 .rodata.rtc_days_in_month
                0x0000000000000000        0xc drivers/built-in.o
 .rodata.video_bmp_display.str1.1
                0x0000000000000000       0x56 drivers/built-in.o
 .eh_frame      0x0000000000000000     0x3440 drivers/built-in.o
 .data          0x0000000000000000        0x0 drivers/built-in.o
 .data.kbd_ctrl_xlate
                0x0000000000000000       0x64 drivers/built-in.o
 .data.kbd_entry
                0x0000000000000000       0xe0 drivers/built-in.o
 .data.kbd_right_alt_xlate_german
                0x0000000000000000       0x58 drivers/built-in.o
 .data.kbd_shift_xlate
                0x0000000000000000       0x64 drivers/built-in.o
 .data.kbd_shift_xlate_german
                0x0000000000000000       0x84 drivers/built-in.o
 .bss           0x0000000000000000        0x0 drivers/built-in.o
 .text          0x0000000000000000        0x0 drivers/gpio/built-in.o
 .text.gpio_requestf
                0x0000000000000000       0x9c drivers/gpio/built-in.o
 .text.dm_gpio_get_open_drain
                0x0000000000000000       0x60 drivers/gpio/built-in.o
 .text.dm_gpio_set_open_drain
                0x0000000000000000       0x6c drivers/gpio/built-in.o
 .text.dm_gpio_set_dir
                0x0000000000000000        0x8 drivers/gpio/built-in.o
 .text.gpio_claim_vector
                0x0000000000000000       0xac drivers/gpio/built-in.o
 .text.gpio_get_values_as_int
                0x0000000000000000       0x68 drivers/gpio/built-in.o
 .text.dm_gpio_get_values_as_int
                0x0000000000000000       0x74 drivers/gpio/built-in.o
 .text.gpio_request_by_name_nodev
                0x0000000000000000       0x78 drivers/gpio/built-in.o
 .text.gpio_get_list_count
                0x0000000000000000       0x24 drivers/gpio/built-in.o
 .text.dm_gpio_free
                0x0000000000000000       0x10 drivers/gpio/built-in.o
 .text.gpio_free_list
                0x0000000000000000       0x5c drivers/gpio/built-in.o
 .text.gpio_free_list_nodev
                0x0000000000000000       0x10 drivers/gpio/built-in.o
 .text.gpio_request_list_by_name_nodev
                0x0000000000000000       0xcc drivers/gpio/built-in.o
 .text.gpio_request_list_by_name
                0x0000000000000000        0x8 drivers/gpio/built-in.o
 .text.gpio_get_number
                0x0000000000000000       0x24 drivers/gpio/built-in.o
 .rodata.dm_gpio_get_open_drain.str1.1
                0x0000000000000000        0xf drivers/gpio/built-in.o
 .rodata.dm_gpio_set_open_drain.str1.1
                0x0000000000000000        0xf drivers/gpio/built-in.o
 .eh_frame      0x0000000000000000      0x7e4 drivers/gpio/built-in.o
 .data          0x0000000000000000        0x0 drivers/gpio/built-in.o
 .bss           0x0000000000000000        0x0 drivers/gpio/built-in.o
 .text          0x0000000000000000        0x0 drivers/net/phy/built-in.o
 .text.phy_register
                0x0000000000000000       0x24 drivers/net/phy/built-in.o
 .text.phy_set_supported
                0x0000000000000000       0x58 drivers/net/phy/built-in.o
 .text.miiphy_reset
                0x0000000000000000       0x30 drivers/net/phy/built-in.o
 .text.board_phy_config
                0x0000000000000000       0x1c drivers/net/phy/built-in.o
 .text.phy_config
                0x0000000000000000        0x4 drivers/net/phy/built-in.o
 .text.phy_shutdown
                0x0000000000000000       0x2c drivers/net/phy/built-in.o
 .text.phy_get_interface_by_name
                0x0000000000000000       0x58 drivers/net/phy/built-in.o
 .rodata.phy_interface_strings
                0x0000000000000000       0xb0 drivers/net/phy/built-in.o
 .eh_frame      0x0000000000000000      0x344 drivers/net/phy/built-in.o
 .data          0x0000000000000000        0x0 drivers/net/phy/built-in.o
 .bss           0x0000000000000000        0x0 drivers/net/phy/built-in.o
 .text          0x0000000000000000        0x0 drivers/serial/built-in.o
 .text.serial_getconfig
                0x0000000000000000       0x20 drivers/serial/built-in.o
 .text.serial_setconfig
                0x0000000000000000       0x20 drivers/serial/built-in.o
 .text.serial_getinfo
                0x0000000000000000       0x2c drivers/serial/built-in.o
 .eh_frame      0x0000000000000000      0x4b0 drivers/serial/built-in.o
 .data          0x0000000000000000        0x0 drivers/serial/built-in.o
 .bss           0x0000000000000000        0x0 drivers/serial/built-in.o
 .text          0x0000000000000000        0x0 drivers/spi/built-in.o
 .text.spi_set_wordlen
                0x0000000000000000       0x38 drivers/spi/built-in.o
 .text.spi_do_alloc_slave
                0x0000000000000000       0x6c drivers/spi/built-in.o
 .rodata.spi_set_wordlen.str1.1
                0x0000000000000000       0x19 drivers/spi/built-in.o
 .eh_frame      0x0000000000000000       0x64 drivers/spi/built-in.o
 .data          0x0000000000000000        0x0 drivers/spi/built-in.o
 .bss           0x0000000000000000        0x0 drivers/spi/built-in.o
 .comment       0x0000000000000000       0x5b drivers/spi/built-in.o
 .note.GNU-stack
                0x0000000000000000        0x0 drivers/spi/built-in.o
 .debug_aranges
                0x0000000000000000       0x40 drivers/spi/built-in.o
 .debug_info    0x0000000000000000      0xc8c drivers/spi/built-in.o
 .debug_abbrev  0x0000000000000000      0x26d drivers/spi/built-in.o
 .debug_line    0x0000000000000000      0x23f drivers/spi/built-in.o
 .debug_str     0x0000000000000000      0xa07 drivers/spi/built-in.o
 .debug_loc     0x0000000000000000      0x278 drivers/spi/built-in.o
 .debug_ranges  0x0000000000000000       0x30 drivers/spi/built-in.o
 .text          0x0000000000000000        0x0 drivers/usb/common/built-in.o
 .text.usb_get_dr_mode
                0x0000000000000000       0x88 drivers/usb/common/built-in.o
 .text.usb_get_maximum_speed
                0x0000000000000000       0x88 drivers/usb/common/built-in.o
 .rodata.usb_get_dr_mode.str1.1
                0x0000000000000000       0x1f drivers/usb/common/built-in.o
 .rodata.usb_get_maximum_speed.str1.1
                0x0000000000000000       0x2b drivers/usb/common/built-in.o
 .rodata.str1.1
                0x0000000000000000       0x52 drivers/usb/common/built-in.o
 .rodata.speed_names
                0x0000000000000000       0x30 drivers/usb/common/built-in.o
 .rodata.usb_dr_modes
                0x0000000000000000       0x20 drivers/usb/common/built-in.o
 .eh_frame      0x0000000000000000       0x6c drivers/usb/common/built-in.o
 .data          0x0000000000000000        0x0 drivers/usb/common/built-in.o
 .bss           0x0000000000000000        0x0 drivers/usb/common/built-in.o
 .comment       0x0000000000000000       0x5b drivers/usb/common/built-in.o
 .note.GNU-stack
                0x0000000000000000        0x0 drivers/usb/common/built-in.o
 .debug_aranges
                0x0000000000000000       0x40 drivers/usb/common/built-in.o
 .debug_info    0x0000000000000000     0x1263 drivers/usb/common/built-in.o
 .debug_abbrev  0x0000000000000000      0x2d4 drivers/usb/common/built-in.o
 .debug_line    0x0000000000000000      0x2e6 drivers/usb/common/built-in.o
 .debug_str     0x0000000000000000     0x120a drivers/usb/common/built-in.o
 .debug_loc     0x0000000000000000      0x22a drivers/usb/common/built-in.o
 .debug_ranges  0x0000000000000000       0x30 drivers/usb/common/built-in.o
 .text          0x0000000000000000        0x0 drivers/usb/eth/built-in.o
 .text.usb_ether_deregister
                0x0000000000000000        0x8 drivers/usb/eth/built-in.o
 .eh_frame      0x0000000000000000      0x808 drivers/usb/eth/built-in.o
 .data          0x0000000000000000        0x0 drivers/usb/eth/built-in.o
 .bss           0x0000000000000000        0x0 drivers/usb/eth/built-in.o
 .text          0x0000000000000000        0x0 drivers/usb/host/built-in.o
 .text.create_int_queue
                0x0000000000000000       0x40 drivers/usb/host/built-in.o
 .text.poll_int_queue
                0x0000000000000000       0x30 drivers/usb/host/built-in.o
 .text.destroy_int_queue
                0x0000000000000000       0x30 drivers/usb/host/built-in.o
 .text.usb_setup_ehci_gadget
                0x0000000000000000       0x7c drivers/usb/host/built-in.o
 .text.usb_detect_change
                0x0000000000000000       0xa8 drivers/usb/host/built-in.o
 .eh_frame      0x0000000000000000      0x510 drivers/usb/host/built-in.o
 .data          0x0000000000000000        0x0 drivers/usb/host/built-in.o
 .bss           0x0000000000000000        0x0 drivers/usb/host/built-in.o
 .text          0x0000000000000000        0x0 dts/built-in.o
 .data          0x0000000000000000        0x0 dts/built-in.o
 .bss           0x0000000000000000        0x0 dts/built-in.o
 .text          0x0000000000000000        0x0 env/built-in.o
 .text.env_flags_parse_varaccess_from_binflags
                0x0000000000000000       0x60 env/built-in.o
 .rodata.env_flags_parse_varaccess_from_binflags.str1.1
                0x0000000000000000       0x2c env/built-in.o
 .eh_frame      0x0000000000000000      0x5c0 env/built-in.o
 .data          0x0000000000000000        0x0 env/built-in.o
 .bss           0x0000000000000000        0x0 env/built-in.o
 .text          0x0000000000000000        0x0 fs/built-in.o
 .text.fs_get_type_name
                0x0000000000000000       0x20 fs/built-in.o
 .text.fat_register_device
                0x0000000000000000       0x80 fs/built-in.o
 .rodata.fat_register_device.str1.1
                0x0000000000000000       0x2b fs/built-in.o
 .eh_frame      0x0000000000000000     0x10b4 fs/built-in.o
 .data          0x0000000000000000        0x0 fs/built-in.o
 .bss           0x0000000000000000        0x0 fs/built-in.o
 .bss.ext4fs_symlinknest
                0x0000000000000000        0x4 fs/built-in.o
 .bss.g_parent_inode
                0x0000000000000000        0x8 fs/built-in.o
 .text          0x0000000000000000        0x0 lib/built-in.o
 .text.efi_serialize_load_option
                0x0000000000000000       0xdc lib/built-in.o
 .text.indent_string
                0x0000000000000000       0x40 lib/built-in.o
 .text.__efi_nesting
                0x0000000000000000        0xc lib/built-in.o
 .text.__efi_nesting_inc
                0x0000000000000000       0x14 lib/built-in.o
 .text.__efi_nesting_dec
                0x0000000000000000       0x14 lib/built-in.o
 .text.efi_dp_from_dev
                0x0000000000000000       0x50 lib/built-in.o
 .text.efi_print_image_infos
                0x0000000000000000      0x100 lib/built-in.o
 .text.invalidate_icache_all
                0x0000000000000000        0x4 lib/built-in.o
 .text.efi_reset_system_init
                0x0000000000000000        0x8 lib/built-in.o
 .text.LzmaDec_InitDicAndState
                0x0000000000000000       0x28 lib/built-in.o
 .text.LzmaDec_DecodeToBuf
                0x0000000000000000      0x124 lib/built-in.o
 .text.LzmaDec_Free
                0x0000000000000000       0x38 lib/built-in.o
 .text.LzmaDec_Allocate
                0x0000000000000000       0xbc lib/built-in.o
 .text.u16_strnlen
                0x0000000000000000       0x24 lib/built-in.o
 .text.crc7     0x0000000000000000       0x30 lib/built-in.o
 .text.crc8     0x0000000000000000       0x48 lib/built-in.o
 .text.crc16_ccitt_wd_buf
                0x0000000000000000       0x3c lib/built-in.o
 .text.lmb_dump_all
                0x0000000000000000        0x4 lib/built-in.o
 .text.lmb_is_reserved
                0x0000000000000000       0x4c lib/built-in.o
 .text.arch_lmb_reserve
                0x0000000000000000        0x4 lib/built-in.o
 .text.ldiv     0x0000000000000000       0x2c lib/built-in.o
 .text.rc4_encode
                0x0000000000000000       0xd8 lib/built-in.o
 .text.inflateInit_
                0x0000000000000000       0x10 lib/built-in.o
 .text.fdt_nop_property
                0x0000000000000000       0x48 lib/built-in.o
 .text.fdt_nop_node
                0x0000000000000000       0x68 lib/built-in.o
 .text.fdt_sw_check_header_
                0x0000000000000000       0x1c lib/built-in.o
 .text.fdt_grab_space_
                0x0000000000000000       0x58 lib/built-in.o
 .text.fdt_create
                0x0000000000000000       0x70 lib/built-in.o
 .text.fdt_resize
                0x0000000000000000       0xe0 lib/built-in.o
 .text.fdt_add_reservemap_entry
                0x0000000000000000       0x74 lib/built-in.o
 .text.fdt_finish_reservemap
                0x0000000000000000        0xc lib/built-in.o
 .text.fdt_begin_node
                0x0000000000000000       0x84 lib/built-in.o
 .text.fdt_end_node
                0x0000000000000000       0x44 lib/built-in.o
 .text.fdt_property_placeholder
                0x0000000000000000      0x124 lib/built-in.o
 .text.fdt_property
                0x0000000000000000       0x50 lib/built-in.o
 .text.fdt_finish
                0x0000000000000000      0x110 lib/built-in.o
 .text.fdt_appendprop
                0x0000000000000000       0xf0 lib/built-in.o
 .text.fdt_pack
                0x0000000000000000       0x6c lib/built-in.o
 .text.fdt_create_empty_tree
                0x0000000000000000       0x78 lib/built-in.o
 .text.fdt_get_alias
                0x0000000000000000       0x34 lib/built-in.o
 .text.fdt_node_offset_by_prop_value
                0x0000000000000000       0xb4 lib/built-in.o
 .text.fdt_stringlist_contains
                0x0000000000000000       0x98 lib/built-in.o
 .text.fdt_stringlist_count
                0x0000000000000000       0x7c lib/built-in.o
 .text.fdt_stringlist_get
                0x0000000000000000       0xb4 lib/built-in.o
 .text.fdt_node_check_compatible
                0x0000000000000000       0x4c lib/built-in.o
 .text.fdt_node_offset_by_compatible
                0x0000000000000000       0x84 lib/built-in.o
 .text.fdt_add_region
                0x0000000000000000       0x78 lib/built-in.o
 .text.fdt_find_regions
                0x0000000000000000      0x354 lib/built-in.o
 .text.fdt_add_alias_regions
                0x0000000000000000      0x1b0 lib/built-in.o
 .text.fdt_next_region
                0x0000000000000000      0x4e0 lib/built-in.o
 .text.fdt_first_region
                0x0000000000000000       0x2c lib/built-in.o
 .text.fdtdec_get_uint
                0x0000000000000000       0x40 lib/built-in.o
 .text.fdtdec_get_compatible
                0x0000000000000000       0x10 lib/built-in.o
 .text.fdtdec_get_uint64
                0x0000000000000000       0x40 lib/built-in.o
 .text.get_next_memory_node
                0x0000000000000000       0x68 lib/built-in.o
 .text.fdtdec_lookup
                0x0000000000000000       0x68 lib/built-in.o
 .text.fdtdec_next_compatible
                0x0000000000000000       0x10 lib/built-in.o
 .text.fdtdec_next_compatible_subnode
                0x0000000000000000       0x7c lib/built-in.o
 .text.fdtdec_next_alias
                0x0000000000000000       0xac lib/built-in.o
 .text.fdtdec_add_aliases_for_id
                0x0000000000000000      0x25c lib/built-in.o
 .text.fdtdec_find_aliases_for_id
                0x0000000000000000       0x60 lib/built-in.o
 .text.fdtdec_check_fdt
                0x0000000000000000       0x18 lib/built-in.o
 .text.fdtdec_lookup_phandle
                0x0000000000000000       0x44 lib/built-in.o
 .text.decode_timing_property
                0x0000000000000000       0x8c lib/built-in.o
 .text.fdtdec_get_int_array_count
                0x0000000000000000       0x68 lib/built-in.o
 .text.fdtdec_locate_array
                0x0000000000000000       0x28 lib/built-in.o
 .text.fdtdec_get_bool
                0x0000000000000000       0x20 lib/built-in.o
 .text.fdtdec_get_child_count
                0x0000000000000000       0x44 lib/built-in.o
 .text.fdtdec_get_byte_array
                0x0000000000000000       0x48 lib/built-in.o
 .text.fdtdec_locate_byte_array
                0x0000000000000000       0x24 lib/built-in.o
 .text.fdtdec_get_config_bool
                0x0000000000000000       0x54 lib/built-in.o
 .text.fdtdec_get_number
                0x0000000000000000       0x30 lib/built-in.o
 .text.fdtdec_get_addr_size_fixed
                0x0000000000000000       0xc4 lib/built-in.o
 .text.fdtdec_get_addr_size_auto_parent
                0x0000000000000000       0xa8 lib/built-in.o
 .text.fdtdec_get_addr_size_auto_noparent
                0x0000000000000000       0x7c lib/built-in.o
 .text.fdtdec_get_addr_size
                0x0000000000000000       0x20 lib/built-in.o
 .text.fdtdec_get_addr
                0x0000000000000000        0x8 lib/built-in.o
 .text.fdt_get_resource
                0x0000000000000000      0x118 lib/built-in.o
 .text.fdt_get_named_resource
                0x0000000000000000       0x64 lib/built-in.o
 .text.fdtdec_decode_display_timing
                0x0000000000000000      0x304 lib/built-in.o
 .text.fdtdec_setup_mem_size_base
                0x0000000000000000       0x60 lib/built-in.o
 .text.fdtdec_setup_memory_banksize
                0x0000000000000000       0xbc lib/built-in.o
 .text.fdtdec_decode_ram_size
                0x0000000000000000      0x248 lib/built-in.o
 .text.print_freq
                0x0000000000000000      0x138 lib/built-in.o
 .text.crc32_wd_buf
                0x0000000000000000       0x3c lib/built-in.o
 .text.iter_div_u64_rem
                0x0000000000000000       0x28 lib/built-in.o
 .text.copy_from_user
                0x0000000000000000       0x18 lib/built-in.o
 .text.kmalloc  0x0000000000000000       0x50 lib/built-in.o
 .text.get_mem  0x0000000000000000       0x2c lib/built-in.o
 .text.kmem_cache_alloc
                0x0000000000000000       0x14 lib/built-in.o
 .text.membuff_purge
                0x0000000000000000        0xc lib/built-in.o
 .text.membuff_putraw
                0x0000000000000000       0xb4 lib/built-in.o
 .text.membuff_putbyte
                0x0000000000000000       0x3c lib/built-in.o
 .text.membuff_getraw
                0x0000000000000000       0x80 lib/built-in.o
 .text.membuff_getbyte
                0x0000000000000000       0x3c lib/built-in.o
 .text.membuff_peekbyte
                0x0000000000000000       0x3c lib/built-in.o
 .text.membuff_get
                0x0000000000000000       0x90 lib/built-in.o
 .text.membuff_put
                0x0000000000000000       0x88 lib/built-in.o
 .text.membuff_isempty
                0x0000000000000000       0x10 lib/built-in.o
 .text.membuff_avail
                0x0000000000000000       0x54 lib/built-in.o
 .text.membuff_size
                0x0000000000000000       0x10 lib/built-in.o
 .text.membuff_makecontig
                0x0000000000000000       0xa4 lib/built-in.o
 .text.membuff_free
                0x0000000000000000       0x3c lib/built-in.o
 .text.membuff_readline
                0x0000000000000000       0xa8 lib/built-in.o
 .text.membuff_extend_by
                0x0000000000000000       0xe0 lib/built-in.o
 .text.membuff_init
                0x0000000000000000       0x10 lib/built-in.o
 .text.membuff_new
                0x0000000000000000       0x48 lib/built-in.o
 .text.membuff_uninit
                0x0000000000000000        0xc lib/built-in.o
 .text.membuff_dispose
                0x0000000000000000       0x28 lib/built-in.o
 .text.strchrnul
                0x0000000000000000       0x20 lib/built-in.o
 .text.strcspn  0x0000000000000000       0x38 lib/built-in.o
 .text.strspn   0x0000000000000000       0x38 lib/built-in.o
 .text.strpbrk  0x0000000000000000       0x34 lib/built-in.o
 .text.strtok   0x0000000000000000       0x70 lib/built-in.o
 .text.strsep   0x0000000000000000       0x3c lib/built-in.o
 .text.strswab  0x0000000000000000       0x3c lib/built-in.o
 .text.memchr_inv
                0x0000000000000000       0xe8 lib/built-in.o
 .text.table_compute_checksum
                0x0000000000000000       0x2c lib/built-in.o
 .text.get_ticks
                0x0000000000000000       0x44 lib/built-in.o
 .text.print_hex_dump
                0x0000000000000000        0x4 lib/built-in.o
 .text.print_hex_dump_bytes
                0x0000000000000000        0x4 lib/built-in.o
 .text.panic_str
                0x0000000000000000       0x10 lib/built-in.o
 .text.__assert_fail
                0x0000000000000000       0x18 lib/built-in.o
 .text.vsnprintf
                0x0000000000000000       0x50 lib/built-in.o
 .text.scnprintf
                0x0000000000000000       0x74 lib/built-in.o
 .text.print_grouped_ull
                0x0000000000000000       0x90 lib/built-in.o
 .text.str2off  0x0000000000000000       0x50 lib/built-in.o
 .text.str2long
                0x0000000000000000       0x50 lib/built-in.o
 .text.strmhz   0x0000000000000000       0x6c lib/built-in.o
 .rodata.indent_string.str1.1
                0x0000000000000000       0x15 lib/built-in.o
 .rodata.efi_guid_event_group_memory_map_change
                0x0000000000000000       0x10 lib/built-in.o
 .rodata.efi_guid_event_group_ready_to_boot
                0x0000000000000000       0x10 lib/built-in.o
 .rodata.efi_guid_event_group_virtual_address_change
                0x0000000000000000       0x10 lib/built-in.o
 .rodata.efi_print_image_infos.str1.1
                0x0000000000000000       0x2b lib/built-in.o
 .rodata.crc7_syndrome_table
                0x0000000000000000      0x100 lib/built-in.o
 .rodata.z_errmsg
                0x0000000000000000       0x50 lib/built-in.o
 .rodata.fdt_create_empty_tree.str1.1
                0x0000000000000000        0x1 lib/built-in.o
 .rodata.fdt_node_check_compatible.str1.1
                0x0000000000000000        0xb lib/built-in.o
 .rodata.fdt_find_regions
                0x0000000000000000       0x12 lib/built-in.o
 .rodata.fdt_add_alias_regions.str1.1
                0x0000000000000000        0x8 lib/built-in.o
 .rodata.fdt_next_region
                0x0000000000000000       0x12 lib/built-in.o
 .rodata.get_next_memory_node.str1.1
                0x0000000000000000       0x13 lib/built-in.o
 .rodata.fdtdec_next_alias.str1.1
                0x0000000000000000        0x7 lib/built-in.o
 .rodata.fdtdec_decode_display_timing.str1.1
                0x0000000000000000       0xca lib/built-in.o
 .rodata.fdtdec_setup_mem_size_base.str1.1
                0x0000000000000000        0xc lib/built-in.o
 .rodata.fdtdec_decode_ram_size.str1.1
                0x0000000000000000       0x21 lib/built-in.o
 .rodata.compat_names
                0x0000000000000000      0x150 lib/built-in.o
 .rodata.names.6755
                0x0000000000000000        0x3 lib/built-in.o
 .rodata.hex_asc_upper
                0x0000000000000000       0x11 lib/built-in.o
 .rodata.__assert_fail.str1.1
                0x0000000000000000       0x22 lib/built-in.o
 .rodata.print_grouped_ull.str1.1
                0x0000000000000000        0xb lib/built-in.o
 .rodata.strmhz.str1.1
                0x0000000000000000        0xb lib/built-in.o
 .eh_frame      0x0000000000000000     0x6178 lib/built-in.o
 .data          0x0000000000000000        0x0 lib/built-in.o
 .data.cur      0x0000000000000000        0x4 lib/built-in.o
 .data.current  0x0000000000000000        0x8 lib/built-in.o
 .bss           0x0000000000000000        0x0 lib/built-in.o
 .bss.nesting_level
                0x0000000000000000        0x4 lib/built-in.o
 .bss.___strtok
                0x0000000000000000        0x8 lib/built-in.o
 .text          0x0000000000000000        0x0 net/built-in.o
 .text.add_ip_checksums
                0x0000000000000000       0x3c net/built-in.o
 .text.eth_init_state_only
                0x0000000000000000       0x38 net/built-in.o
 .text.net_get_udp_handler
                0x0000000000000000        0xc net/built-in.o
 .text.net_set_arp_handler
                0x0000000000000000       0x18 net/built-in.o
 .text.random_port
                0x0000000000000000       0x20 net/built-in.o
 .text.vlan_to_string
                0x0000000000000000       0x44 net/built-in.o
 .text.env_get_vlan
                0x0000000000000000       0x14 net/built-in.o
 .rodata.vlan_to_string.str1.1
                0x0000000000000000        0x8 net/built-in.o
 .eh_frame      0x0000000000000000     0x1158 net/built-in.o
 .data          0x0000000000000000        0x0 net/built-in.o
 .data.tftp_timeout_ms
                0x0000000000000000        0x8 net/built-in.o
 .bss           0x0000000000000000        0x0 net/built-in.o

Memory Configuration

Name             Origin             Length             Attributes
*default*        0x0000000000000000 0xffffffffffffffff

Linker script and memory map

Address of section .text set to 0x11000000
                0x0000000000000000                . = 0x0
                0x0000000000000000                . = ALIGN (0x8)

.text           0x0000000011000000      0x114
 *(.__image_copy_start)
 .__image_copy_start
                0x0000000011000000        0x0 arch/arm/lib/built-in.o
                0x0000000011000000                __image_copy_start
 arch/arm/cpu/armv8/start.o(.text*)
 .text          0x0000000011000000      0x114 arch/arm/cpu/armv8/start.o
                0x0000000011000000                _start
                0x0000000011000008                _TEXT_BASE
                0x0000000011000010                _end_ofs
                0x0000000011000018                _bss_start_ofs
                0x0000000011000020                _bss_end_ofs
                0x000000001100002c                save_boot_params_ret
                0x000000001100008c                apply_core_errata
                0x00000000110000c8                lowlevel_init
                0x00000000110000d4                smp_kick_all_cpus
                0x00000000110000d8                c_runtime_cpu_setup

.efi_runtime    0x0000000011000118      0x968
                0x0000000011000118                __efi_runtime_start = .
 *(.text.efi_runtime*)
 .text.efi_runtime
                0x0000000011000118       0xb4 arch/arm/mach-bcm283x/built-in.o
                0x0000000011000118                reset_cpu
                0x000000001100016c                efi_reset_system
 .text.efi_runtime
                0x00000000110001cc      0x164 lib/built-in.o
                0x00000000110001d0                efi_get_time
                0x00000000110001f4                efi_update_capsule
                0x00000000110001fc                efi_query_capsule_caps
                0x0000000011000204                efi_query_variable_info
                0x000000001100020c                efi_update_table_header_crc32
                0x0000000011000240                crc32_no_comp
                0x0000000011000314                crc32
 .text.efi_runtime_relocate
                0x0000000011000330      0x12c lib/built-in.o
                0x0000000011000330                efi_runtime_relocate
 *(.rodata.efi_runtime*)
 .rodata.efi_runtime_relocate.str1.1
                0x000000001100045c       0x4e lib/built-in.o
 *fill*         0x00000000110004aa        0x6 
 .rodata.efi_runtime_detach_list
                0x00000000110004b0       0xa0 lib/built-in.o
 *(.data.efi_runtime*)
 .data.efi_runtime
                0x0000000011000550        0x8 arch/arm/mach-bcm283x/built-in.o
                0x0000000011000550                wdog_regs
 .data.efi_runtime
                0x0000000011000558      0x518 lib/built-in.o
                0x0000000011000558                systab
                0x00000000110005e8                efi_runtime_services
 .data.efi_runtime_mmio
                0x0000000011000a70       0x10 lib/built-in.o
                0x0000000011000a70                efi_runtime_mmio
                0x0000000011000a80                __efi_runtime_stop = .

.text_rest      0x0000000011001000    0x4eb6c
 *(.text*)
 .text          0x0000000011001000      0x390 arch/arm/cpu/armv8/built-in.o
                0x0000000011001000                vectors
 .text.cleanup_before_linux
                0x0000000011001390       0x28 arch/arm/cpu/armv8/built-in.o
                0x0000000011001390                cleanup_before_linux
 .text.get_tbclk
                0x00000000110013b8        0x8 arch/arm/cpu/armv8/built-in.o
                0x00000000110013b8                get_tbclk
 .text.get_ticks
                0x00000000110013c0       0x10 arch/arm/cpu/armv8/built-in.o
                0x00000000110013c0                get_ticks
 .text.count_required_pts
                0x00000000110013d0       0xf8 arch/arm/cpu/armv8/built-in.o
 .text.create_table
                0x00000000110014c8       0x70 arch/arm/cpu/armv8/built-in.o
 .text.split_block
                0x0000000011001538       0x90 arch/arm/cpu/armv8/built-in.o
 .text.get_tcr  0x00000000110015c8       0xe4 arch/arm/cpu/armv8/built-in.o
                0x00000000110015c8                get_tcr
 .text.find_pte
                0x00000000110016ac       0x8c arch/arm/cpu/armv8/built-in.o
 .text.set_one_region
                0x0000000011001738       0xd8 arch/arm/cpu/armv8/built-in.o
 .text.get_page_table_size
                0x0000000011001810       0x48 arch/arm/cpu/armv8/built-in.o
                0x0000000011001810                get_page_table_size
 .text.setup_pgtables
                0x0000000011001858      0x16c arch/arm/cpu/armv8/built-in.o
                0x0000000011001858                setup_pgtables
 .text.mmu_setup
                0x00000000110019c4      0x13c arch/arm/cpu/armv8/built-in.o
                0x00000000110019c4                mmu_setup
 .text.invalidate_dcache_all
                0x0000000011001b00       0x14 arch/arm/cpu/armv8/built-in.o
                0x0000000011001b00                invalidate_dcache_all
 .text.invalidate_dcache_range
                0x0000000011001b14        0x4 arch/arm/cpu/armv8/built-in.o
                0x0000000011001b14                invalidate_dcache_range
 .text.flush_dcache_range
                0x0000000011001b18        0x4 arch/arm/cpu/armv8/built-in.o
                0x0000000011001b18                flush_dcache_range
 .text.dcache_enable
                0x0000000011001b1c      0x110 arch/arm/cpu/armv8/built-in.o
                0x0000000011001b1c                dcache_enable
 .text.dcache_disable
                0x0000000011001c2c       0x84 arch/arm/cpu/armv8/built-in.o
                0x0000000011001c2c                dcache_disable
 .text.dcache_status
                0x0000000011001cb0       0x34 arch/arm/cpu/armv8/built-in.o
                0x0000000011001cb0                dcache_status
 .text.mmu_set_region_dcache_behaviour
                0x0000000011001ce4       0xa8 arch/arm/cpu/armv8/built-in.o
                0x0000000011001ce4                mmu_set_region_dcache_behaviour
 .text.icache_disable
                0x0000000011001d8c       0x64 arch/arm/cpu/armv8/built-in.o
                0x0000000011001d8c                icache_disable
 .text.invalidate_icache_all
                0x0000000011001df0       0x14 arch/arm/cpu/armv8/built-in.o
                0x0000000011001df0                invalidate_icache_all
 .text.icache_enable
                0x0000000011001e04       0x74 arch/arm/cpu/armv8/built-in.o
                0x0000000011001e04                icache_enable
 .text.enable_caches
                0x0000000011001e78       0x14 arch/arm/cpu/armv8/built-in.o
                0x0000000011001e78                enable_caches
 .text.__asm_dcache_level
                0x0000000011001e8c       0x64 arch/arm/cpu/armv8/built-in.o
                0x0000000011001e8c                __asm_dcache_level
 .text.__asm_dcache_all
                0x0000000011001ef0       0x60 arch/arm/cpu/armv8/built-in.o
                0x0000000011001ef0                __asm_dcache_all
 .text.__asm_flush_dcache_all
                0x0000000011001f50        0x8 arch/arm/cpu/armv8/built-in.o
                0x0000000011001f50                __asm_flush_dcache_all
 .text.__asm_invalidate_dcache_all
                0x0000000011001f58        0x8 arch/arm/cpu/armv8/built-in.o
                0x0000000011001f58                __asm_invalidate_dcache_all
 .text.__asm_flush_dcache_range
                0x0000000011001f60       0x34 arch/arm/cpu/armv8/built-in.o
                0x0000000011001f60                __asm_flush_dcache_range
 .text.__asm_invalidate_dcache_range
                0x0000000011001f94       0x30 arch/arm/cpu/armv8/built-in.o
                0x0000000011001f94                __asm_invalidate_dcache_range
 .text.__asm_invalidate_icache_all
                0x0000000011001fc4        0xc arch/arm/cpu/armv8/built-in.o
                0x0000000011001fc4                __asm_invalidate_icache_all
 .text.__asm_invalidate_l3_dcache
                0x0000000011001fd0        0x8 arch/arm/cpu/armv8/built-in.o
                0x0000000011001fd0                __asm_invalidate_l3_dcache
 .text.__asm_flush_l3_dcache
                0x0000000011001fd8        0x8 arch/arm/cpu/armv8/built-in.o
                0x0000000011001fd8                __asm_flush_l3_dcache
 .text.__asm_invalidate_l3_icache
                0x0000000011001fe0        0x8 arch/arm/cpu/armv8/built-in.o
                0x0000000011001fe0                __asm_invalidate_l3_icache
 .text.__asm_switch_ttbr
                0x0000000011001fe8       0xe0 arch/arm/cpu/armv8/built-in.o
                0x0000000011001fe8                __asm_switch_ttbr
 .text.__asm_invalidate_tlb_all
                0x00000000110020c8       0x4c arch/arm/cpu/armv8/built-in.o
                0x00000000110020c8                __asm_invalidate_tlb_all
 *fill*         0x0000000011002114        0x4 
 .text.armv8_switch_to_el2
                0x0000000011002118       0xb8 arch/arm/cpu/armv8/built-in.o
                0x0000000011002118                armv8_switch_to_el2
 .text.armv8_el2_to_aarch32
                0x00000000110021d0        0x4 arch/arm/cpu/armv8/built-in.o
                0x00000000110021d0                armv8_el2_to_aarch32
 *fill*         0x00000000110021d4        0x4 
 .text          0x00000000110021d8      0x140 arch/arm/lib/built-in.o
                0x00000000110021d8                _main
                0x0000000011002258                relocate_code
 .text.setjmp   0x0000000011002318       0x28 arch/arm/lib/built-in.o
                0x0000000011002318                setjmp
 .text.longjmp  0x0000000011002340       0x2c arch/arm/lib/built-in.o
                0x0000000011002340                longjmp
 .text.arch_fixup_fdt
                0x000000001100236c       0x2c arch/arm/lib/built-in.o
                0x000000001100236c                arch_fixup_fdt
 .text.setup_initrd_tag.isra.0
                0x0000000011002398       0x40 arch/arm/lib/built-in.o
 .text.arch_lmb_reserve
                0x00000000110023d8       0x40 arch/arm/lib/built-in.o
                0x00000000110023d8                arch_lmb_reserve
 .text.board_quiesce_devices
                0x0000000011002418        0x4 arch/arm/lib/built-in.o
                0x0000000011002418                board_quiesce_devices
 .text.setup_board_tags
                0x000000001100241c        0x4 arch/arm/lib/built-in.o
                0x000000001100241c                setup_board_tags
 .text.boot_prep_linux
                0x0000000011002420      0x18c arch/arm/lib/built-in.o
 .text.update_os_arch_secondary_cores
                0x00000000110025ac        0x4 arch/arm/lib/built-in.o
                0x00000000110025ac                update_os_arch_secondary_cores
 .text.boot_jump_linux
                0x00000000110025b0       0xc0 arch/arm/lib/built-in.o
 .text.do_bootm_linux
                0x0000000011002670       0x7c arch/arm/lib/built-in.o
                0x0000000011002670                do_bootm_linux
 .text.boot_prep_vxworks
                0x00000000110026ec       0x50 arch/arm/lib/built-in.o
                0x00000000110026ec                boot_prep_vxworks
 .text.boot_jump_vxworks
                0x000000001100273c       0x10 arch/arm/lib/built-in.o
                0x000000001100273c                boot_jump_vxworks
 .text.booti_setup
                0x000000001100274c       0xb8 arch/arm/lib/built-in.o
                0x000000001100274c                booti_setup
 .text.arch_reserve_stacks
                0x0000000011002804       0x10 arch/arm/lib/built-in.o
                0x0000000011002804                arch_reserve_stacks
 .text.interrupt_init
                0x0000000011002814        0x8 arch/arm/lib/built-in.o
                0x0000000011002814                interrupt_init
 .text.enable_interrupts
                0x000000001100281c        0x4 arch/arm/lib/built-in.o
                0x000000001100281c                enable_interrupts
 .text.disable_interrupts
                0x0000000011002820        0x8 arch/arm/lib/built-in.o
                0x0000000011002820                disable_interrupts
 .text.show_regs
                0x0000000011002828       0x9c arch/arm/lib/built-in.o
                0x0000000011002828                show_regs
 .text.do_bad_sync
                0x00000000110028c4       0x3c arch/arm/lib/built-in.o
                0x00000000110028c4                do_bad_sync
 .text.do_bad_irq
                0x0000000011002900       0x3c arch/arm/lib/built-in.o
                0x0000000011002900                do_bad_irq
 .text.do_bad_fiq
                0x000000001100293c       0x3c arch/arm/lib/built-in.o
                0x000000001100293c                do_bad_fiq
 .text.do_bad_error
                0x0000000011002978       0x3c arch/arm/lib/built-in.o
                0x0000000011002978                do_bad_error
 .text.do_sync  0x00000000110029b4       0x3c arch/arm/lib/built-in.o
                0x00000000110029b4                do_sync
 .text.do_irq   0x00000000110029f0       0x3c arch/arm/lib/built-in.o
                0x00000000110029f0                do_irq
 .text.do_fiq   0x0000000011002a2c       0x3c arch/arm/lib/built-in.o
                0x0000000011002a2c                do_fiq
 .text.do_error
                0x0000000011002a68       0x3c arch/arm/lib/built-in.o
                0x0000000011002a68                do_error
 .text.reset_misc
                0x0000000011002aa4        0x4 arch/arm/lib/built-in.o
                0x0000000011002aa4                reset_misc
 .text.do_reset
                0x0000000011002aa8       0x38 arch/arm/lib/built-in.o
                0x0000000011002aa8                do_reset
 .text.flush_cache
                0x0000000011002ae0        0x8 arch/arm/lib/built-in.o
                0x0000000011002ae0                flush_cache
 .text.arch_cpu_init
                0x0000000011002ae8       0x18 arch/arm/mach-bcm283x/built-in.o
                0x0000000011002ae8                arch_cpu_init
 .text.efi_reset_system_init
                0x0000000011002b00       0x10 arch/arm/mach-bcm283x/built-in.o
                0x0000000011002b00                efi_reset_system_init
 .text.bcm2835_mbox_call_raw
                0x0000000011002b10      0x138 arch/arm/mach-bcm283x/built-in.o
                0x0000000011002b10                bcm2835_mbox_call_raw
 .text.bcm2835_mbox_call_prop
                0x0000000011002c48      0x100 arch/arm/mach-bcm283x/built-in.o
                0x0000000011002c48                bcm2835_mbox_call_prop
 .text.bcm2835_power_on_module
                0x0000000011002d48       0x80 arch/arm/mach-bcm283x/built-in.o
                0x0000000011002d48                bcm2835_power_on_module
 .text.bcm2835_get_mmc_clock
                0x0000000011002dc8       0x90 arch/arm/mach-bcm283x/built-in.o
                0x0000000011002dc8                bcm2835_get_mmc_clock
 .text.bcm2835_get_video_size
                0x0000000011002e58       0x98 arch/arm/mach-bcm283x/built-in.o
                0x0000000011002e58                bcm2835_get_video_size
 .text.bcm2835_set_video_params
                0x0000000011002ef0      0x1ac arch/arm/mach-bcm283x/built-in.o
                0x0000000011002ef0                bcm2835_set_video_params
 .text.phys_to_bus
                0x000000001100309c        0x8 arch/arm/mach-bcm283x/built-in.o
                0x000000001100309c                phys_to_bus
 .text.bus_to_phys
                0x00000000110030a4        0x8 arch/arm/mach-bcm283x/built-in.o
                0x00000000110030a4                bus_to_phys
 *fill*         0x00000000110030ac       0x54 
 .text          0x0000000011003100       0x14 board/raspberrypi/rpi/built-in.o
                0x0000000011003100                fw_dtb_pointer
                0x0000000011003108                save_boot_params
 .text.dram_init
                0x0000000011003114       0x7c board/raspberrypi/rpi/built-in.o
                0x0000000011003114                dram_init
 .text.board_get_usable_ram_top
                0x0000000011003190       0x2c board/raspberrypi/rpi/built-in.o
                0x0000000011003190                board_get_usable_ram_top
 .text.misc_init_r
                0x00000000110031bc      0x264 board/raspberrypi/rpi/built-in.o
                0x00000000110031bc                misc_init_r
 .text.board_init
                0x0000000011003420      0x13c board/raspberrypi/rpi/built-in.o
                0x0000000011003420                board_init
 .text.ft_board_setup
                0x000000001100355c       0x2c board/raspberrypi/rpi/built-in.o
                0x000000001100355c                ft_board_setup
 .text.do_go_exec
                0x0000000011003588       0x10 cmd/built-in.o
                0x0000000011003588                do_go_exec
 .text.do_go    0x0000000011003598       0x88 cmd/built-in.o
 .text.do_bootm
                0x0000000011003620      0x104 cmd/built-in.o
                0x0000000011003620                do_bootm
 .text.do_bootd
                0x0000000011003724       0x2c cmd/built-in.o
                0x0000000011003724                do_bootd
 .text.image_info
                0x0000000011003750       0xdc cmd/built-in.o
 .text.do_iminfo
                0x000000001100382c       0x7c cmd/built-in.o
 .text.bootm_maybe_autostart
                0x00000000110038a8       0x74 cmd/built-in.o
                0x00000000110038a8                bootm_maybe_autostart
 .text.do_help  0x000000001100391c       0x44 cmd/built-in.o
 .text.do_version
                0x0000000011003960       0x40 cmd/built-in.o
 .text.blk_common_cmd
                0x00000000110039a0      0x330 cmd/built-in.o
                0x00000000110039a0                blk_common_cmd
 .text.source   0x0000000011003cd0       0xf4 cmd/built-in.o
                0x0000000011003cd0                source
 .text.do_source
                0x0000000011003dc4       0x54 cmd/built-in.o
 .text.print_num
                0x0000000011003e18       0x18 cmd/built-in.o
 .text.do_bdinfo
                0x0000000011003e30      0x104 cmd/built-in.o
 .text.do_blkcache
                0x0000000011003f34       0x84 cmd/built-in.o
 .text.blkc_configure
                0x0000000011003fb8       0x78 cmd/built-in.o
 .text.blkc_show
                0x0000000011004030       0x34 cmd/built-in.o
 .text.efi_do_enter
                0x0000000011004064       0x5c cmd/built-in.o
 .text.efi_install_fdt
                0x00000000110040c0      0x1f8 cmd/built-in.o
 .text.efi_run_in_el2
                0x00000000110042b8       0x3c cmd/built-in.o
 .text.do_bootefi_exec
                0x00000000110042f4      0x29c cmd/built-in.o
 .text.efi_init_obj_list
                0x0000000011004590       0x7c cmd/built-in.o
                0x0000000011004590                efi_init_obj_list
 .text.allow_unaligned
                0x000000001100460c        0x4 cmd/built-in.o
                0x000000001100460c                allow_unaligned
 .text.do_bootefi
                0x0000000011004610      0x160 cmd/built-in.o
 .text.efi_set_bootdev
                0x0000000011004770       0x84 cmd/built-in.o
                0x0000000011004770                efi_set_bootdev
 .text.do_booti
                0x00000000110047f4      0x110 cmd/built-in.o
                0x00000000110047f4                do_booti
 .text.do_coninfo
                0x0000000011004904       0xdc cmd/built-in.o
 .text.do_dm_dump_devres
                0x00000000110049e0        0x8 cmd/built-in.o
 .text.do_dm    0x00000000110049e8       0x94 cmd/built-in.o
 .text.do_dm_dump_uclass
                0x0000000011004a7c       0x18 cmd/built-in.o
 .text.do_dm_dump_all
                0x0000000011004a94       0x18 cmd/built-in.o
 .text.do_echo  0x0000000011004aac       0xd4 cmd/built-in.o
 .text.load_elf_image_phdr
                0x0000000011004b80      0x120 cmd/built-in.o
 .text.valid_elf_image
                0x0000000011004ca0       0x58 cmd/built-in.o
                0x0000000011004ca0                valid_elf_image
 .text.do_bootelf
                0x0000000011004cf8      0x290 cmd/built-in.o
                0x0000000011004cf8                do_bootelf
 .text.do_bootvx
                0x0000000011004f88      0x334 cmd/built-in.o
                0x0000000011004f88                do_bootvx
 .text.do_exit  0x00000000110052bc       0x40 cmd/built-in.o
 .text.do_ext4_size
                0x00000000110052fc        0x8 cmd/built-in.o
                0x00000000110052fc                do_ext4_size
 .text.do_ext4_load
                0x0000000011005304        0x8 cmd/built-in.o
                0x0000000011005304                do_ext4_load
 .text.do_ext4_ls
                0x000000001100530c        0x8 cmd/built-in.o
                0x000000001100530c                do_ext4_ls
 .text.do_ext2load
                0x0000000011005314        0x8 cmd/built-in.o
                0x0000000011005314                do_ext2load
 .text.do_ext2ls
                0x000000001100531c        0x8 cmd/built-in.o
 .text.do_fat_size
                0x0000000011005324        0x8 cmd/built-in.o
                0x0000000011005324                do_fat_size
 .text.do_fat_fsload
                0x000000001100532c        0x8 cmd/built-in.o
                0x000000001100532c                do_fat_fsload
 .text.do_fat_ls
                0x0000000011005334        0x8 cmd/built-in.o
 .text.do_fat_fsinfo
                0x000000001100533c       0x94 cmd/built-in.o
 .text.do_fat_fswrite
                0x00000000110053d0      0x148 cmd/built-in.o
 .text.do_fat_rm
                0x0000000011005518        0x8 cmd/built-in.o
 .text.do_fat_mkdir
                0x0000000011005520        0x8 cmd/built-in.o
 .text.fdt_valid
                0x0000000011005528       0xcc cmd/built-in.o
 .text.is_printable_string
                0x00000000110055f4       0x84 cmd/built-in.o
 .text.print_data
                0x0000000011005678      0x1bc cmd/built-in.o
 .text.set_working_fdt_addr
                0x0000000011005834       0x18 cmd/built-in.o
                0x0000000011005834                set_working_fdt_addr
 .text.do_fdt   0x000000001100584c     0x1018 cmd/built-in.o
 .text.do_size_wrapper
                0x0000000011006864        0x8 cmd/built-in.o
 .text.do_load_wrapper
                0x000000001100686c       0x80 cmd/built-in.o
 .text.do_save_wrapper
                0x00000000110068ec        0x8 cmd/built-in.o
 .text.do_ls_wrapper
                0x00000000110068f4        0x8 cmd/built-in.o
 .text.do_fstype_wrapper
                0x00000000110068fc        0x4 cmd/built-in.o
 .text.gpio_get_description
                0x0000000011006900       0xcc cmd/built-in.o
 .text.do_gpio  0x00000000110069cc      0x350 cmd/built-in.o
 .text.evalexp  0x0000000011006d1c       0x94 cmd/built-in.o
 .text.evalstr  0x0000000011006db0       0x5c cmd/built-in.o
 .text.binary_test
                0x0000000011006e0c      0x198 cmd/built-in.o
 .text.do_itest
                0x0000000011006fa4       0x8c cmd/built-in.o
 .text.bin_data_init
                0x0000000011007030       0x1c cmd/built-in.o
 .text.k_data_save
                0x000000001100704c       0x34 cmd/built-in.o
 .text.k_data_restore
                0x0000000011007080       0x34 cmd/built-in.o
 .text.getcxmodem
                0x00000000110070b4       0x24 cmd/built-in.o
 .text.load_serial_ymodem
                0x00000000110070d8       0xf0 cmd/built-in.o
 .text.bin_data_char
                0x00000000110071c8       0x28 cmd/built-in.o
 .text.chk1.constprop.0
                0x00000000110071f0       0x34 cmd/built-in.o
 .text.s1_sendpacket.constprop.0
                0x0000000011007224       0x5c cmd/built-in.o
 .text.load_serial
                0x0000000011007280      0x1d4 cmd/built-in.o
 .text.do_load_serial
                0x0000000011007454       0xe0 cmd/built-in.o
 .text.do_load_serial_bin
                0x0000000011007534      0x79c cmd/built-in.o
 .text.do_mem_md
                0x0000000011007cd0       0xf4 cmd/built-in.o
 .text.do_mem_base
                0x0000000011007dc4       0x4c cmd/built-in.o
 .text.do_mem_crc
                0x0000000011007e10       0x30 cmd/built-in.o
 .text.do_mem_loop
                0x0000000011007e40      0x128 cmd/built-in.o
 .text.do_mem_cmp
                0x0000000011007f68      0x1a4 cmd/built-in.o
 .text.mod_mem.isra.0.part.0
                0x000000001100810c      0x1b4 cmd/built-in.o
 .text.do_mem_mm
                0x00000000110082c0       0x1c cmd/built-in.o
 .text.do_mem_mw
                0x00000000110082dc      0x108 cmd/built-in.o
 .text.do_mem_cp
                0x00000000110083e4       0xc0 cmd/built-in.o
 .text.do_mem_nm
                0x00000000110084a4       0x1c cmd/built-in.o
 .text.extract_range
                0x00000000110084c0       0xfc cmd/built-in.o
 .text.do_mii   0x00000000110085bc      0x8f0 cmd/built-in.o
 .text.do_mdio  0x0000000011008eac      0x49c cmd/built-in.o
 .text.do_sleep
                0x0000000011009348       0xe8 cmd/built-in.o
 .text.do_mmcops
                0x0000000011009430       0xe8 cmd/built-in.o
 .text.init_mmc_device
                0x0000000011009518       0x84 cmd/built-in.o
 .text.do_mmc_rescan
                0x000000001100959c       0x28 cmd/built-in.o
 .text.do_mmc_hwpartition
                0x00000000110095c4      0x4e8 cmd/built-in.o
 .text.do_mmc_list
                0x0000000011009aac       0x1c cmd/built-in.o
 .text.do_mmc_dev
                0x0000000011009ac8      0x14c cmd/built-in.o
 .text.do_mmcinfo
                0x0000000011009c14      0x3b4 cmd/built-in.o
 .text.do_mmc_setdsr
                0x0000000011009fc8       0xbc cmd/built-in.o
 .text.do_mmc_part
                0x000000001100a084       0x64 cmd/built-in.o
 .text.do_mmc_erase
                0x000000001100a0e8      0x104 cmd/built-in.o
 .text.do_mmc_write
                0x000000001100a1ec      0x124 cmd/built-in.o
 .text.do_mmc_read
                0x000000001100a310       0xfc cmd/built-in.o
 .text.netboot_common
                0x000000001100a40c      0x2bc cmd/built-in.o
 .text.do_bootp
                0x000000001100a6c8        0xc cmd/built-in.o
 .text.do_dhcp  0x000000001100a6d4        0xc cmd/built-in.o
 .text.do_nfs   0x000000001100a6e0        0xc cmd/built-in.o
 .text.do_tftpb
                0x000000001100a6ec       0x58 cmd/built-in.o
                0x000000001100a6ec                do_tftpb
 .text.do_ping  0x000000001100a744       0x7c cmd/built-in.o
 .text.do_part_list
                0x000000001100a7c0      0x18c cmd/built-in.o
 .text.do_part_info
                0x000000001100a94c      0x10c cmd/built-in.o
 .text.do_part  0x000000001100aa58      0x110 cmd/built-in.o
 .text.do_pinmux
                0x000000001100ab68       0x80 cmd/built-in.o
 .text.do_list  0x000000001100abe8       0xa0 cmd/built-in.o
 .text.show_pinmux
                0x000000001100ac88       0xec cmd/built-in.o
 .text.do_status
                0x000000001100ad74       0xfc cmd/built-in.o
 .text.do_dev   0x000000001100ae70       0x90 cmd/built-in.o
 .text.eol_or_eof
                0x000000001100af00       0x24 cmd/built-in.o
 .text.do_pxe   0x000000001100af24       0x90 cmd/built-in.o
 .text.label_print
                0x000000001100afb4       0x1c cmd/built-in.o
 .text.do_get_tftp
                0x000000001100afd0       0x3c cmd/built-in.o
 .text.from_env
                0x000000001100b00c       0x3c cmd/built-in.o
 .text.get_string
                0x000000001100b048       0xe0 cmd/built-in.o
 .text.label_destroy
                0x000000001100b128       0x74 cmd/built-in.o
 .text.destroy_pxe_menu
                0x000000001100b19c       0x68 cmd/built-in.o
 .text.get_token
                0x000000001100b204      0x12c cmd/built-in.o
 .text.parse_sliteral
                0x000000001100b330       0x6c cmd/built-in.o
 .text.parse_integer
                0x000000001100b39c       0x84 cmd/built-in.o
 .text.do_get_any
                0x000000001100b420       0x44 cmd/built-in.o
 .text.do_get_fat
                0x000000001100b464       0x40 cmd/built-in.o
 .text.do_get_ext2
                0x000000001100b4a4       0x40 cmd/built-in.o
 .text.get_relfile
                0x000000001100b4e4      0x138 cmd/built-in.o
 .text.get_pxe_file
                0x000000001100b61c       0x60 cmd/built-in.o
 .text.handle_include
                0x000000001100b67c       0xc4 cmd/built-in.o
 .text.parse_pxefile_top
                0x000000001100b740      0x43c cmd/built-in.o
 .text.parse_pxefile
                0x000000001100bb7c       0x7c cmd/built-in.o
 .text.get_pxelinux_path
                0x000000001100bbf8       0x98 cmd/built-in.o
 .text.get_relfile_envaddr
                0x000000001100bc90       0x5c cmd/built-in.o
 .text.format_mac_pxe.constprop.0
                0x000000001100bcec       0x6c cmd/built-in.o
 .text.do_pxe_get
                0x000000001100bd58      0x168 cmd/built-in.o
 .text.label_boot
                0x000000001100bec0      0x5f0 cmd/built-in.o
 .text.handle_pxe_menu
                0x000000001100c4b0      0x17c cmd/built-in.o
 .text.do_pxe_boot
                0x000000001100c62c       0xf0 cmd/built-in.o
 .text.do_sysboot
                0x000000001100c71c      0x1fc cmd/built-in.o
 .text.substitute
                0x000000001100c918      0x118 cmd/built-in.o
 .text.get_arg  0x000000001100ca30       0x70 cmd/built-in.o
 .text.regex_sub.part.0
                0x000000001100caa0      0x2c4 cmd/built-in.o
 .text.do_setexpr
                0x000000001100cd64      0x1a4 cmd/built-in.o
 .text.do_false
                0x000000001100cf08        0x8 cmd/built-in.o
 .text.do_true  0x000000001100cf10        0x8 cmd/built-in.o
 .text.do_test  0x000000001100cf18      0x35c cmd/built-in.o
 .text.do_unzip
                0x000000001100d274       0xbc cmd/built-in.o
 .text.do_gzwrite
                0x000000001100d330      0x118 cmd/built-in.o
 .text.do_lzmadec
                0x000000001100d448       0xbc cmd/built-in.o
 .text.usb_get_class_desc
                0x000000001100d504       0xac cmd/built-in.o
 .text.usb_display_class_sub
                0x000000001100d5b0      0x18c cmd/built-in.o
 .text.usb_display_desc
                0x000000001100d73c      0x14c cmd/built-in.o
 .text.usb_show_tree_graph
                0x000000001100d888      0x230 cmd/built-in.o
 .text.usb_show_subtree
                0x000000001100dab8       0x38 cmd/built-in.o
 .text.usb_for_each_root_dev
                0x000000001100daf0       0x68 cmd/built-in.o
 .text.usb_display_string
                0x000000001100db58       0x4c cmd/built-in.o
 .text.usb_display_config
                0x000000001100dba4      0x254 cmd/built-in.o
 .text.usb_show_info
                0x000000001100ddf8       0x78 cmd/built-in.o
 .text.usb_find_device
                0x000000001100de70       0xb0 cmd/built-in.o
 .text.do_usbboot
                0x000000001100df20        0xc cmd/built-in.o
 .text.do_usb_start
                0x000000001100df2c       0x30 cmd/built-in.o
 .text.usb_show_tree
                0x000000001100df5c        0xc cmd/built-in.o
                0x000000001100df5c                usb_show_tree
 .text.do_usb   0x000000001100df68      0x3ec cmd/built-in.o
 .text.common_diskboot
                0x000000001100e354      0x23c cmd/built-in.o
                0x000000001100e354                common_diskboot
 .text.do_fs_uuid_wrapper
                0x000000001100e590        0x8 cmd/built-in.o
 .text.do_imgextract
                0x000000001100e598      0x2a0 cmd/built-in.o
 .text.do_env_delete
                0x000000001100e838       0xc4 cmd/built-in.o
 .text.do_env_save
                0x000000001100e8fc       0x1c cmd/built-in.o
 .text.do_env   0x000000001100e918       0x84 cmd/built-in.o
 .text.env_print
                0x000000001100e99c       0xc4 cmd/built-in.o
 .text.do_env_print
                0x000000001100ea60       0xe0 cmd/built-in.o
 .text.do_env_import
                0x000000001100eb40      0x28c cmd/built-in.o
 .text.do_env_default
                0x000000001100edcc       0x98 cmd/built-in.o
 .text.do_env_exists
                0x000000001100ee64       0x60 cmd/built-in.o
 .text._do_env_set.isra.0
                0x000000001100eec4      0x1b8 cmd/built-in.o
 .text.do_env_set
                0x000000001100f07c       0x20 cmd/built-in.o
 .text.get_env_id
                0x000000001100f09c        0xc cmd/built-in.o
                0x000000001100f09c                get_env_id
 .text.env_set  0x000000001100f0a8       0x58 cmd/built-in.o
                0x000000001100f0a8                env_set
 .text.env_set_ulong
                0x000000001100f100       0x2c cmd/built-in.o
                0x000000001100f100                env_set_ulong
 .text.env_set_hex
                0x000000001100f12c       0x3c cmd/built-in.o
                0x000000001100f12c                env_set_hex
 .text.do_env_export
                0x000000001100f168      0x21c cmd/built-in.o
 .text.eth_parse_enetaddr
                0x000000001100f384       0x70 cmd/built-in.o
                0x000000001100f384                eth_parse_enetaddr
 .text.envmatch
                0x000000001100f3f4       0x7c cmd/built-in.o
                0x000000001100f3f4                envmatch
 .text.env_get_f
                0x000000001100f470      0x100 cmd/built-in.o
                0x000000001100f470                env_get_f
 .text.env_get  0x000000001100f570       0x70 cmd/built-in.o
                0x000000001100f570                env_get
 .text.env_get_hex
                0x000000001100f5e0       0x44 cmd/built-in.o
                0x000000001100f5e0                env_get_hex
 .text.eth_env_get_enetaddr
                0x000000001100f624       0x68 cmd/built-in.o
                0x000000001100f624                eth_env_get_enetaddr
 .text.eth_env_set_enetaddr
                0x000000001100f68c       0x54 cmd/built-in.o
                0x000000001100f68c                eth_env_set_enetaddr
 .text.env_get_ulong
                0x000000001100f6e0       0x40 cmd/built-in.o
                0x000000001100f6e0                env_get_ulong
 .text.do_env_edit.part.0
                0x000000001100f720       0xb4 cmd/built-in.o
 .text.do_env_edit
                0x000000001100f7d4       0x28 cmd/built-in.o
 .text.board_init_f_alloc_reserve
                0x000000001100f7fc       0x10 common/built-in.o
                0x000000001100f7fc                board_init_f_alloc_reserve
 .text.board_init_f_init_reserve
                0x000000001100f80c       0x30 common/built-in.o
                0x000000001100f80c                board_init_f_init_reserve
 .text.show_boot_progress
                0x000000001100f83c        0x8 common/built-in.o
                0x000000001100f83c                show_boot_progress
 .text.main_loop
                0x000000001100f844       0x68 common/built-in.o
                0x000000001100f844                main_loop
 .text.mdelay   0x000000001100f8ac        0xc common/built-in.o
 .text.dummy    0x000000001100f8b8        0x4 common/built-in.o
 .text.get_version
                0x000000001100f8bc        0x8 common/built-in.o
                0x000000001100f8bc                get_version
 .text.jumptable_init
                0x000000001100f8c4      0x1e8 common/built-in.o
                0x000000001100f8c4                jumptable_init
 .text.hash_command
                0x000000001100faac       0xd0 common/built-in.o
                0x000000001100faac                hash_command
 .text.b_reset  0x000000001100fb7c       0x18 common/built-in.o
 .text.static_get
                0x000000001100fb94       0x1c common/built-in.o
 .text.static_peek
                0x000000001100fbb0        0xc common/built-in.o
 .text.mapset   0x000000001100fbbc       0x20 common/built-in.o
 .text.syntax_err
                0x000000001100fbdc        0xc common/built-in.o
 .text.free_pipe_list
                0x000000001100fbe8       0xf0 common/built-in.o
 .text.xmalloc  0x000000001100fcd8       0x28 common/built-in.o
 .text.new_pipe
                0x000000001100fd00       0x24 common/built-in.o
 .text.xrealloc
                0x000000001100fd24       0x28 common/built-in.o
 .text.done_command
                0x000000001100fd4c       0x94 common/built-in.o
 .text.done_pipe
                0x000000001100fde0       0x58 common/built-in.o
 .text.done_word
                0x000000001100fe38      0x2a0 common/built-in.o
 .text.is_assignment
                0x00000000110100d8       0x50 common/built-in.o
 .text.file_get
                0x0000000011010128      0x1e4 common/built-in.o
 .text.do_showvar
                0x000000001101030c      0x10c common/built-in.o
 .text.b_addchr
                0x0000000011010418       0x94 common/built-in.o
 .text.b_addqchr
                0x00000000110104ac       0x58 common/built-in.o
 .text.file_peek
                0x0000000011010504        0xc common/built-in.o
 .text.get_local_var
                0x0000000011010510       0x9c common/built-in.o
                0x0000000011010510                get_local_var
 .text.set_local_var
                0x00000000110105ac      0x1a0 common/built-in.o
                0x00000000110105ac                set_local_var
 .text.insert_var_value_sub
                0x000000001101074c      0x2b8 common/built-in.o
 .text.parse_string_outer
                0x0000000011010a04       0xe4 common/built-in.o
                0x0000000011010a04                parse_string_outer
 .text.run_list_real
                0x0000000011010ae8      0x724 common/built-in.o
 .text.parse_stream_outer
                0x000000001101120c      0x670 common/built-in.o
 .text.parse_file_outer
                0x000000001101187c       0x40 common/built-in.o
                0x000000001101187c                parse_file_outer
 .text.u_boot_hush_start
                0x00000000110118bc       0x58 common/built-in.o
                0x00000000110118bc                u_boot_hush_start
 .text.bootdelay_process
                0x0000000011011914       0xd4 common/built-in.o
                0x0000000011011914                bootdelay_process
 .text.autoboot_command
                0x00000000110119e8      0x114 common/built-in.o
                0x00000000110119e8                autoboot_command
 .text.log_init
                0x0000000011011afc       0x10 common/built-in.o
 .text.display_text_info
                0x0000000011011b0c        0x8 common/built-in.o
 .text.setup_mon_len
                0x0000000011011b14       0x20 common/built-in.o
 .text.reserve_round_4k
                0x0000000011011b34       0x14 common/built-in.o
 .text.reserve_uboot
                0x0000000011011b48       0x38 common/built-in.o
 .text.reserve_malloc
                0x0000000011011b80       0x14 common/built-in.o
 .text.reserve_global_data
                0x0000000011011b94       0x1c common/built-in.o
 .text.dram_init_banksize
                0x0000000011011bb0       0x30 common/built-in.o
                0x0000000011011bb0                dram_init_banksize
 .text.reserve_mmu
                0x0000000011011be0       0x4c common/built-in.o
                0x0000000011011be0                reserve_mmu
 .text.setup_reloc
                0x0000000011011c2c       0x48 common/built-in.o
 .text.reserve_board
                0x0000000011011c74       0x48 common/built-in.o
 .text.reserve_video
                0x0000000011011cbc       0x2c common/built-in.o
 .text.announce_dram_init
                0x0000000011011ce8       0x20 common/built-in.o
 .text.init_baud_rate
                0x0000000011011d08       0x30 common/built-in.o
 .text.initf_dm
                0x0000000011011d38        0x8 common/built-in.o
 .text.initf_bootstage
                0x0000000011011d40       0x1c common/built-in.o
 .text.arch_cpu_init_dm
                0x0000000011011d5c        0x8 common/built-in.o
                0x0000000011011d5c                arch_cpu_init_dm
 .text.setup_spl_handoff
                0x0000000011011d64        0x8 common/built-in.o
 .text.mach_cpu_init
                0x0000000011011d6c        0x8 common/built-in.o
                0x0000000011011d6c                mach_cpu_init
 .text.reserve_trace
                0x0000000011011d74        0x8 common/built-in.o
 .text.setup_machine
                0x0000000011011d7c        0x8 common/built-in.o
 .text.reserve_fdt
                0x0000000011011d84        0x8 common/built-in.o
 .text.reserve_bootstage
                0x0000000011011d8c        0x8 common/built-in.o
 .text.reserve_bloblist
                0x0000000011011d94        0x8 common/built-in.o
 .text.display_new_sp
                0x0000000011011d9c        0x8 common/built-in.o
 .text.reloc_fdt
                0x0000000011011da4        0x8 common/built-in.o
 .text.reloc_bootstage
                0x0000000011011dac        0x8 common/built-in.o
 .text.reloc_bloblist
                0x0000000011011db4        0x8 common/built-in.o
 .text.initf_console_record
                0x0000000011011dbc        0x8 common/built-in.o
 .text.reserve_arch
                0x0000000011011dc4        0x8 common/built-in.o
                0x0000000011011dc4                reserve_arch
 .text.board_add_ram_info
                0x0000000011011dcc        0x4 common/built-in.o
                0x0000000011011dcc                board_add_ram_info
 .text.show_dram_config
                0x0000000011011dd0       0x38 common/built-in.o
 .text.setup_dest_addr
                0x0000000011011e08       0x48 common/built-in.o
 .text.reserve_stacks
                0x0000000011011e50       0x1c common/built-in.o
 .text.board_init_f
                0x0000000011011e6c       0x2c common/built-in.o
                0x0000000011011e6c                board_init_f
 .text.initr_trace
                0x0000000011011e98        0x8 common/built-in.o
 .text.initr_reloc
                0x0000000011011ea0       0x18 common/built-in.o
 .text.run_main_loop
                0x0000000011011eb8       0x10 common/built-in.o
 .text.initr_net
                0x0000000011011ec8       0x24 common/built-in.o
 .text.initr_ethaddr
                0x0000000011011eec       0x28 common/built-in.o
 .text.initr_enable_interrupts
                0x0000000011011f14       0x18 common/built-in.o
 .text.initr_jumptable
                0x0000000011011f2c       0x18 common/built-in.o
 .text.initr_env
                0x0000000011011f44       0x74 common/built-in.o
 .text.initr_mmc
                0x0000000011011fb8       0x28 common/built-in.o
 .text.initr_serial
                0x0000000011011fe0       0x18 common/built-in.o
 .text.initr_dm
                0x0000000011011ff8       0x14 common/built-in.o
 .text.initr_bootstage
                0x000000001101200c       0x1c common/built-in.o
 .text.initr_malloc
                0x0000000011012028       0x28 common/built-in.o
 .text.initr_reloc_global_data
                0x0000000011012050       0x5c common/built-in.o
 .text.initr_caches
                0x00000000110120ac       0x18 common/built-in.o
 .text.bootstage_relocate
                0x00000000110120c4        0x8 common/built-in.o
 .text.initr_barrier
                0x00000000110120cc        0x8 common/built-in.o
 .text.initr_console_record
                0x00000000110120d4        0x8 common/built-in.o
 .text.power_init_board
                0x00000000110120dc        0x8 common/built-in.o
                0x00000000110120dc                power_init_board
 .text.initr_announce
                0x00000000110120e4        0x8 common/built-in.o
 .text.cpu_secondary_init_r
                0x00000000110120ec        0x4 common/built-in.o
                0x00000000110120ec                cpu_secondary_init_r
 .text.initr_secondary_cpu
                0x00000000110120f0       0x18 common/built-in.o
 .text.board_init_r
                0x0000000011012108       0x24 common/built-in.o
                0x0000000011012108                board_init_r
 .text.bootm_find_images
                0x000000001101212c       0xa8 common/built-in.o
                0x000000001101212c                bootm_find_images
 .text.bootm_decomp_image
                0x00000000110121d4      0x1ac common/built-in.o
                0x00000000110121d4                bootm_decomp_image
 .text.bootm_disable_interrupts
                0x0000000011012380       0x28 common/built-in.o
                0x0000000011012380                bootm_disable_interrupts
 .text.do_bootm_states
                0x00000000110123a8      0x72c common/built-in.o
                0x00000000110123a8                do_bootm_states
 .text.do_bootm_vxworks
                0x0000000011012ad4      0x128 common/built-in.o
                0x0000000011012ad4                do_bootm_vxworks
 .text.copy_args
                0x0000000011012bfc       0x6c common/built-in.o
 .text.do_bootm_rtems
                0x0000000011012c68       0x50 common/built-in.o
 .text.do_bootm_plan9
                0x0000000011012cb8       0xb8 common/built-in.o
 .text.do_bootm_standalone
                0x0000000011012d70       0x74 common/built-in.o
 .text.do_bootm_qnxelf
                0x0000000011012de4       0x7c common/built-in.o
 .text.do_bootm_netbsd
                0x0000000011012e60      0x118 common/built-in.o
 .text.arch_preboot_os
                0x0000000011012f78        0x4 common/built-in.o
                0x0000000011012f78                arch_preboot_os
 .text.board_preboot_os
                0x0000000011012f7c        0x4 common/built-in.o
                0x0000000011012f7c                board_preboot_os
 .text.boot_selected_os
                0x0000000011012f80       0x7c common/built-in.o
                0x0000000011012f80                boot_selected_os
 .text.bootm_os_get_boot_func
                0x0000000011012ffc       0x10 common/built-in.o
                0x0000000011012ffc                bootm_os_get_boot_func
 .text.of_bus_default_map
                0x000000001101300c       0xa8 common/built-in.o
 .text.of_bus_default_translate
                0x00000000110130b4       0xb8 common/built-in.o
 .text.fdt_support_default_count_cells
                0x000000001101316c       0x70 common/built-in.o
                0x000000001101316c                fdt_support_default_count_cells
 .text.fdt_find_and_setprop
                0x00000000110131dc       0x94 common/built-in.o
                0x00000000110131dc                fdt_find_and_setprop
 .text.fdt_find_or_add_subnode
                0x0000000011013270       0x74 common/built-in.o
                0x0000000011013270                fdt_find_or_add_subnode
 .text.fdt_root
                0x00000000110132e4       0x98 common/built-in.o
                0x00000000110132e4                fdt_root
 .text.fdt_initrd
                0x000000001101337c      0x1b4 common/built-in.o
                0x000000001101337c                fdt_initrd
 .text.fdt_chosen
                0x0000000011013530       0xbc common/built-in.o
                0x0000000011013530                fdt_chosen
 .text.do_fixup_by_path
                0x00000000110135ec       0x4c common/built-in.o
                0x00000000110135ec                do_fixup_by_path
 .text.fdt_fixup_memory_banks
                0x0000000011013638      0x238 common/built-in.o
                0x0000000011013638                fdt_fixup_memory_banks
 .text.fdt_fixup_memory
                0x0000000011013870       0x24 common/built-in.o
                0x0000000011013870                fdt_fixup_memory
 .text.fdt_fixup_ethernet
                0x0000000011013894      0x1ac common/built-in.o
                0x0000000011013894                fdt_fixup_ethernet
 .text.fdt_shrink_to_minimum
                0x0000000011013a40       0xc8 common/built-in.o
                0x0000000011013a40                fdt_shrink_to_minimum
 .text.fdt_translate_address
                0x0000000011013b08      0x268 common/built-in.o
                0x0000000011013b08                fdt_translate_address
 .text.fdt_setup_simplefb_node
                0x0000000011013d70      0x1f8 common/built-in.o
                0x0000000011013d70                fdt_setup_simplefb_node
 .text.fdt_overlay_apply_verbose
                0x0000000011013f68       0x80 common/built-in.o
                0x0000000011013f68                fdt_overlay_apply_verbose
 .text.miiphy_get_dev_by_name
                0x0000000011013fe8       0x68 common/built-in.o
                0x0000000011013fe8                miiphy_get_dev_by_name
 .text.miiphy_init
                0x0000000011014050       0x1c common/built-in.o
                0x0000000011014050                miiphy_init
 .text.mdio_alloc
                0x000000001101406c       0x3c common/built-in.o
                0x000000001101406c                mdio_alloc
 .text.mdio_free
                0x00000000110140a8        0x4 common/built-in.o
                0x00000000110140a8                mdio_free
 .text.mdio_register
                0x00000000110140ac       0x8c common/built-in.o
                0x00000000110140ac                mdio_register
 .text.mdio_unregister
                0x0000000011014138       0x30 common/built-in.o
                0x0000000011014138                mdio_unregister
 .text.mdio_list_devices
                0x0000000011014168       0xc8 common/built-in.o
                0x0000000011014168                mdio_list_devices
 .text.miiphy_set_current_dev
                0x0000000011014230       0x48 common/built-in.o
                0x0000000011014230                miiphy_set_current_dev
 .text.miiphy_get_active_dev
                0x0000000011014278       0x60 common/built-in.o
 .text.mdio_get_current_dev
                0x00000000110142d8        0xc common/built-in.o
                0x00000000110142d8                mdio_get_current_dev
 .text.mdio_phydev_for_ethname
                0x00000000110142e4       0xa0 common/built-in.o
                0x00000000110142e4                mdio_phydev_for_ethname
 .text.miiphy_get_current_dev
                0x0000000011014384       0x14 common/built-in.o
                0x0000000011014384                miiphy_get_current_dev
 .text.miiphy_read
                0x0000000011014398       0x5c common/built-in.o
                0x0000000011014398                miiphy_read
 .text.miiphy_write
                0x00000000110143f4       0x60 common/built-in.o
                0x00000000110143f4                miiphy_write
 .text.miiphy_listdev
                0x0000000011014454       0x90 common/built-in.o
                0x0000000011014454                miiphy_listdev
 .text.miiphy_info
                0x00000000110144e4       0xa0 common/built-in.o
                0x00000000110144e4                miiphy_info
 .text.miiphy_speed
                0x0000000011014584       0xc8 common/built-in.o
                0x0000000011014584                miiphy_speed
 .text.miiphy_duplex
                0x000000001101464c       0xc8 common/built-in.o
                0x000000001101464c                miiphy_duplex
 .text.miiphy_is_1000base_x
                0x0000000011014714        0x8 common/built-in.o
                0x0000000011014714                miiphy_is_1000base_x
 .text.usb_set_maxpacket_ep
                0x000000001101471c       0x84 common/built-in.o
 .text.usb_submit_int_msg
                0x00000000110147a0        0x4 common/built-in.o
                0x00000000110147a0                usb_submit_int_msg
 .text.usb_control_msg
                0x00000000110147a4       0xa0 common/built-in.o
                0x00000000110147a4                usb_control_msg
 .text.usb_get_descriptor
                0x0000000011014844       0x5c common/built-in.o
 .text.get_descriptor_len
                0x00000000110148a0       0xa4 common/built-in.o
 .text.usb_setup_descriptor
                0x0000000011014944       0xec common/built-in.o
 .text.usb_get_string
                0x0000000011014a30       0xa4 common/built-in.o
 .text.usb_string_sub
                0x0000000011014ad4      0x114 common/built-in.o
 .text.usb_bulk_msg
                0x0000000011014be8       0x80 common/built-in.o
                0x0000000011014be8                usb_bulk_msg
 .text.usb_maxpacket
                0x0000000011014c68       0x1c common/built-in.o
                0x0000000011014c68                usb_maxpacket
 .text.usb_clear_halt
                0x0000000011014c84       0x9c common/built-in.o
                0x0000000011014c84                usb_clear_halt
 .text.usb_get_configuration_len
                0x0000000011014d20       0x78 common/built-in.o
                0x0000000011014d20                usb_get_configuration_len
 .text.usb_get_configuration_no
                0x0000000011014d98       0x40 common/built-in.o
                0x0000000011014d98                usb_get_configuration_no
 .text.usb_set_interface
                0x0000000011014dd8       0xb0 common/built-in.o
                0x0000000011014dd8                usb_set_interface
 .text.usb_set_protocol
                0x0000000011014e88       0x4c common/built-in.o
                0x0000000011014e88                usb_set_protocol
 .text.usb_set_idle
                0x0000000011014ed4       0x4c common/built-in.o
                0x0000000011014ed4                usb_set_idle
 .text.usb_string
                0x0000000011014f20      0x118 common/built-in.o
                0x0000000011014f20                usb_string
 .text.usb_select_config
                0x0000000011015038      0x4b8 common/built-in.o
                0x0000000011015038                usb_select_config
 .text.usb_setup_device
                0x00000000110154f0      0x114 common/built-in.o
                0x00000000110154f0                usb_setup_device
 .text.usb_device_has_child_on_port
                0x0000000011015604        0x8 common/built-in.o
                0x0000000011015604                usb_device_has_child_on_port
 .text.usb_find_usb2_hub_address_port
                0x000000001101560c       0x90 common/built-in.o
                0x000000001101560c                usb_find_usb2_hub_address_port
 .text.usb_set_port_feature
                0x000000001101569c       0x4c common/built-in.o
 .text.usb_clear_port_feature
                0x00000000110156e8       0x4c common/built-in.o
 .text.usb_get_hub_descriptor
                0x0000000011015734       0x64 common/built-in.o
 .text.usb_hub_reset_devices
                0x0000000011015798        0x4 common/built-in.o
                0x0000000011015798                usb_hub_reset_devices
 .text.usb_hub_is_root_hub
                0x000000001101579c       0x20 common/built-in.o
                0x000000001101579c                usb_hub_is_root_hub
 .text.usb_get_port_status
                0x00000000110157bc       0xc8 common/built-in.o
                0x00000000110157bc                usb_get_port_status
 .text.usb_hub_port_connect_change
                0x0000000011015884      0x180 common/built-in.o
                0x0000000011015884                usb_hub_port_connect_change
 .text.usb_hub_configure
                0x0000000011015a04      0x5a4 common/built-in.o
 .text.usb_hub_scan
                0x0000000011015fa8       0x14 common/built-in.o
                0x0000000011015fa8                usb_hub_scan
 .text.usb_hub_post_probe
                0x0000000011015fbc        0x4 common/built-in.o
 .text.usb_stor_irq
                0x0000000011015fc0       0x18 common/built-in.o
 .text.usb_stor_BBB_reset
                0x0000000011015fd8       0xec common/built-in.o
 .text.usb_stor_CB_reset
                0x00000000110160c4       0xd4 common/built-in.o
 .text.usb_stor_BBB_clear_endpt_stall.isra.0
                0x0000000011016198       0x4c common/built-in.o
 .text.usb_stor_BBB_transport
                0x00000000110161e4      0x248 common/built-in.o
 .text.usb_stor_CB_comdat
                0x000000001101642c      0x1ec common/built-in.o
 .text.usb_stor_CBI_get_status.isra.0
                0x0000000011016618       0xd0 common/built-in.o
 .text.usb_stor_CB_transport
                0x00000000110166e8      0x1f4 common/built-in.o
 .text.usb_request_sense.constprop.0
                0x00000000110168dc       0x8c common/built-in.o
 .text.usb_stor_read
                0x0000000011016968      0x174 common/built-in.o
 .text.usb_stor_write
                0x0000000011016adc      0x174 common/built-in.o
 .text.usb_stor_info
                0x0000000011016c50       0x88 common/built-in.o
                0x0000000011016c50                usb_stor_info
 .text.usb_stor_reset
                0x0000000011016cd8        0xc common/built-in.o
                0x0000000011016cd8                usb_stor_reset
 .text.usb_stor_scan
                0x0000000011016ce4       0x4c common/built-in.o
                0x0000000011016ce4                usb_stor_scan
 .text.usb_storage_probe
                0x0000000011016d30      0x264 common/built-in.o
                0x0000000011016d30                usb_storage_probe
 .text.usb_stor_get_info
                0x0000000011016f94      0x2e4 common/built-in.o
                0x0000000011016f94                usb_stor_get_info
 .text.usb_mass_storage_probe
                0x0000000011017278      0x18c common/built-in.o
 .text.iomux_doenv
                0x0000000011017404      0x1cc common/built-in.o
                0x0000000011017404                iomux_doenv
 .text.lcd_dt_simplefb_configure_node
                0x00000000110175d0       0xa0 common/built-in.o
 .text.lcd_dt_simplefb_add_node
                0x0000000011017670       0x94 common/built-in.o
                0x0000000011017670                lcd_dt_simplefb_add_node
 .text.menu_display_statusline
                0x0000000011017704        0x4 common/built-in.o
                0x0000000011017704                menu_display_statusline
 .text.menu_default_set
                0x0000000011017708       0x94 common/built-in.o
                0x0000000011017708                menu_default_set
 .text.menu_get_choice
                0x000000001101779c      0x1cc common/built-in.o
                0x000000001101779c                menu_get_choice
 .text.menu_item_add
                0x0000000011017968       0xd8 common/built-in.o
                0x0000000011017968                menu_item_add
 .text.menu_create
                0x0000000011017a40       0xa4 common/built-in.o
                0x0000000011017a40                menu_create
 .text.menu_destroy
                0x0000000011017ae4       0x80 common/built-in.o
                0x0000000011017ae4                menu_destroy
 .text.usb_kbd_remove
                0x0000000011017b64       0xa4 common/built-in.o
 .text.usb_kbd_translate.part.0
                0x0000000011017c08      0x15c common/built-in.o
 .text.usb_kbd_probe
                0x0000000011017d64      0x1cc common/built-in.o
 .text.usb_kbd_irq_worker
                0x0000000011017f30      0x1bc common/built-in.o
 .text.usb_kbd_getc
                0x00000000110180ec       0x6c common/built-in.o
 .text.usb_kbd_testc
                0x0000000011018158       0x88 common/built-in.o
 .text.usb_kbd_irq
                0x00000000110181e0       0x20 common/built-in.o
 .text.delete_char.part.0
                0x0000000011018200       0xfc common/built-in.o
 .text.cread_add_char
                0x00000000110182fc      0x100 common/built-in.o
 .text.cli_readline_into_buffer
                0x00000000110183fc      0x8c8 common/built-in.o
                0x00000000110183fc                cli_readline_into_buffer
 .text.cli_readline
                0x0000000011018cc4       0x14 common/built-in.o
                0x0000000011018cc4                cli_readline
 .text.cli_simple_process_macros
                0x0000000011018cd8      0x208 common/built-in.o
                0x0000000011018cd8                cli_simple_process_macros
 .text.console_tstc
                0x0000000011018ee0       0xa8 common/built-in.o
 .text.console_putc
                0x0000000011018f88       0x70 common/built-in.o
 .text.console_puts
                0x0000000011018ff8       0x70 common/built-in.o
 .text.on_console
                0x0000000011019068       0xc0 common/built-in.o
 .text.serial_printf
                0x0000000011019128       0xb0 common/built-in.o
                0x0000000011019128                serial_printf
 .text.puts     0x00000000110191d8       0x28 common/built-in.o
                0x00000000110191d8                puts
 .text.putc     0x0000000011019200       0x2c common/built-in.o
                0x0000000011019200                putc
 .text.console_getc.isra.0
                0x000000001101922c       0x30 common/built-in.o
 .text.tstc     0x000000001101925c       0x24 common/built-in.o
                0x000000001101925c                tstc
 .text.getc     0x0000000011019280       0x4c common/built-in.o
                0x0000000011019280                getc
 .text.fputs    0x00000000110192cc       0x10 common/built-in.o
                0x00000000110192cc                fputs
 .text.ctrlc    0x00000000110192dc       0x54 common/built-in.o
                0x00000000110192dc                ctrlc
 .text.disable_ctrlc
                0x0000000011019330       0x14 common/built-in.o
                0x0000000011019330                disable_ctrlc
 .text.had_ctrlc
                0x0000000011019344        0xc common/built-in.o
                0x0000000011019344                had_ctrlc
 .text.clear_ctrlc
                0x0000000011019350        0xc common/built-in.o
                0x0000000011019350                clear_ctrlc
 .text.search_device
                0x000000001101935c       0x34 common/built-in.o
                0x000000001101935c                search_device
 .text.console_assign
                0x0000000011019390       0xd8 common/built-in.o
                0x0000000011019390                console_assign
 .text.console_init_f
                0x0000000011019468       0x10 common/built-in.o
                0x0000000011019468                console_init_f
 .text.stdio_print_current_devices
                0x0000000011019478       0xbc common/built-in.o
                0x0000000011019478                stdio_print_current_devices
 .text.console_init_r
                0x0000000011019534      0x1a0 common/built-in.o
                0x0000000011019534                console_init_r
 .text.sbrk     0x00000000110196d4       0x74 common/built-in.o
                0x00000000110196d4                sbrk
 .text.mem_malloc_init
                0x0000000011019748       0x28 common/built-in.o
                0x0000000011019748                mem_malloc_init
 .text.malloc_trim
                0x0000000011019770       0xd8 common/built-in.o
                0x0000000011019770                malloc_trim
 .text.free     0x0000000011019848      0x21c common/built-in.o
                0x0000000011019848                free
 .text.malloc   0x0000000011019a64      0x62c common/built-in.o
                0x0000000011019a64                malloc
 .text.calloc   0x000000001101a090      0x10c common/built-in.o
                0x000000001101a090                calloc
 .text.realloc  0x000000001101a19c      0x460 common/built-in.o
                0x000000001101a19c                realloc
 .text.memalign
                0x000000001101a5fc      0x1bc common/built-in.o
                0x000000001101a5fc                memalign
 .text.initf_malloc
                0x000000001101a7b8       0x18 common/built-in.o
                0x000000001101a7b8                initf_malloc
 .text.alloc_simple
                0x000000001101a7d0       0x54 common/built-in.o
 .text.malloc_simple
                0x000000001101a824        0x8 common/built-in.o
                0x000000001101a824                malloc_simple
 .text.on_loadaddr
                0x000000001101a82c       0x3c common/built-in.o
 .text.image_check_hcrc
                0x000000001101a868       0x50 common/built-in.o
                0x000000001101a868                image_check_hcrc
 .text.image_check_dcrc
                0x000000001101a8b8       0x44 common/built-in.o
                0x000000001101a8b8                image_check_dcrc
 .text.image_multi_count
                0x000000001101a8fc       0x20 common/built-in.o
                0x000000001101a8fc                image_multi_count
 .text.image_multi_getimg
                0x000000001101a91c       0x84 common/built-in.o
                0x000000001101a91c                image_multi_getimg
 .text.env_get_bootm_low
                0x000000001101a9a0       0x30 common/built-in.o
                0x000000001101a9a0                env_get_bootm_low
 .text.env_get_bootm_size
                0x000000001101a9d0       0x78 common/built-in.o
                0x000000001101a9d0                env_get_bootm_size
 .text.env_get_bootm_mapsize
                0x000000001101aa48       0x30 common/built-in.o
                0x000000001101aa48                env_get_bootm_mapsize
 .text.memmove_wd
                0x000000001101aa78       0x10 common/built-in.o
                0x000000001101aa78                memmove_wd
 .text.genimg_print_size
                0x000000001101aa88       0x38 common/built-in.o
                0x000000001101aa88                genimg_print_size
 .text.get_table_entry
                0x000000001101aac0       0x20 common/built-in.o
                0x000000001101aac0                get_table_entry
 .text.get_table_entry_name
                0x000000001101aae0       0x28 common/built-in.o
                0x000000001101aae0                get_table_entry_name
 .text.genimg_get_os_name
                0x000000001101ab08       0x18 common/built-in.o
                0x000000001101ab08                genimg_get_os_name
 .text.genimg_get_arch_name
                0x000000001101ab20       0x18 common/built-in.o
                0x000000001101ab20                genimg_get_arch_name
 .text.genimg_get_type_name
                0x000000001101ab38       0x18 common/built-in.o
                0x000000001101ab38                genimg_get_type_name
 .text.genimg_get_comp_name
                0x000000001101ab50       0x18 common/built-in.o
                0x000000001101ab50                genimg_get_comp_name
 .text.image_print_contents
                0x000000001101ab68      0x1c4 common/built-in.o
                0x000000001101ab68                image_print_contents
 .text.genimg_get_kernel_addr_fit
                0x000000001101ad2c       0x1c common/built-in.o
                0x000000001101ad2c                genimg_get_kernel_addr_fit
 .text.genimg_get_kernel_addr
                0x000000001101ad48       0x20 common/built-in.o
                0x000000001101ad48                genimg_get_kernel_addr
 .text.genimg_get_format
                0x000000001101ad68       0x3c common/built-in.o
                0x000000001101ad68                genimg_get_format
 .text.genimg_has_config
                0x000000001101ada4        0x8 common/built-in.o
                0x000000001101ada4                genimg_has_config
 .text.boot_get_ramdisk
                0x000000001101adac      0x26c common/built-in.o
                0x000000001101adac                boot_get_ramdisk
 .text.boot_ramdisk_high
                0x000000001101b018      0x12c common/built-in.o
                0x000000001101b018                boot_ramdisk_high
 .text.boot_get_setup
                0x000000001101b144        0x8 common/built-in.o
                0x000000001101b144                boot_get_setup
 .text.image_setup_linux
                0x000000001101b14c       0x6c common/built-in.o
                0x000000001101b14c                image_setup_linux
 .text.fdt_error
                0x000000001101b1b8       0x38 common/built-in.o
 .text.boot_fdt_add_mem_rsv_regions
                0x000000001101b1f0       0x94 common/built-in.o
                0x000000001101b1f0                boot_fdt_add_mem_rsv_regions
 .text.boot_relocate_fdt
                0x000000001101b284      0x1a8 common/built-in.o
                0x000000001101b284                boot_relocate_fdt
 .text.boot_get_fdt
                0x000000001101b42c      0x29c common/built-in.o
                0x000000001101b42c                boot_get_fdt
 .text.ft_verify_fdt
                0x000000001101b6c8        0x8 common/built-in.o
                0x000000001101b6c8                ft_verify_fdt
 .text.image_setup_libfdt
                0x000000001101b6d0      0x148 common/built-in.o
                0x000000001101b6d0                image_setup_libfdt
 .text.get_effective_memsize
                0x000000001101b818        0x8 common/built-in.o
                0x000000001101b818                get_effective_memsize
 .text.nulldev_putc
                0x000000001101b820        0x4 common/built-in.o
 .text.nulldev_puts
                0x000000001101b824        0x4 common/built-in.o
 .text.nulldev_input
                0x000000001101b828        0x8 common/built-in.o
 .text.stdio_serial_tstc
                0x000000001101b830        0x4 common/built-in.o
 .text.stdio_serial_getc
                0x000000001101b834        0x4 common/built-in.o
 .text.stdio_serial_puts
                0x000000001101b838        0x8 common/built-in.o
 .text.stdio_serial_putc
                0x000000001101b840        0x8 common/built-in.o
 .text.stdio_get_list
                0x000000001101b848       0x10 common/built-in.o
                0x000000001101b848                stdio_get_list
 .text.stdio_get_by_name
                0x000000001101b858       0xfc common/built-in.o
                0x000000001101b858                stdio_get_by_name
 .text.stdio_clone
                0x000000001101b954       0x4c common/built-in.o
                0x000000001101b954                stdio_clone
 .text.stdio_register_dev
                0x000000001101b9a0       0x58 common/built-in.o
                0x000000001101b9a0                stdio_register_dev
 .text.stdio_register
                0x000000001101b9f8        0x8 common/built-in.o
                0x000000001101b9f8                stdio_register
 .text.stdio_deregister_dev
                0x000000001101ba00      0x120 common/built-in.o
                0x000000001101ba00                stdio_deregister_dev
 .text.stdio_init_tables
                0x000000001101bb20       0x18 common/built-in.o
                0x000000001101bb20                stdio_init_tables
 .text.stdio_add_devices
                0x000000001101bb38      0x13c common/built-in.o
                0x000000001101bb38                stdio_add_devices
 .text.run_command
                0x000000001101bc74       0x14 common/built-in.o
                0x000000001101bc74                run_command
 .text.run_command_list
                0x000000001101bc88       0x90 common/built-in.o
                0x000000001101bc88                run_command_list
 .text.do_run   0x000000001101bd18       0x88 common/built-in.o
                0x000000001101bd18                do_run
 .text.cli_process_fdt
                0x000000001101bda0       0x50 common/built-in.o
                0x000000001101bda0                cli_process_fdt
 .text.cli_secure_boot_cmd
                0x000000001101bdf0       0x74 common/built-in.o
                0x000000001101bdf0                cli_secure_boot_cmd
 .text.cli_loop
                0x000000001101be64       0x10 common/built-in.o
                0x000000001101be64                cli_loop
 .text.cli_init
                0x000000001101be74        0x4 common/built-in.o
                0x000000001101be74                cli_init
 .text.find_cmd_tbl
                0x000000001101be78       0xc0 common/built-in.o
                0x000000001101be78                find_cmd_tbl
 .text.find_cmd
                0x000000001101bf38       0x30 common/built-in.o
                0x000000001101bf38                find_cmd
 .text.cmd_usage
                0x000000001101bf68       0x68 common/built-in.o
                0x000000001101bf68                cmd_usage
 .text._do_help
                0x000000001101bfd0      0x188 common/built-in.o
                0x000000001101bfd0                _do_help
 .text.var_complete
                0x000000001101c158       0x80 common/built-in.o
                0x000000001101c158                var_complete
 .text.complete_subcmdv
                0x000000001101c1d8      0x1b8 common/built-in.o
                0x000000001101c1d8                complete_subcmdv
 .text.cmd_auto_complete
                0x000000001101c390      0x3f0 common/built-in.o
                0x000000001101c390                cmd_auto_complete
 .text.cmd_get_data_size
                0x000000001101c780       0x6c common/built-in.o
                0x000000001101c780                cmd_get_data_size
 .text.cmd_always_repeatable
                0x000000001101c7ec       0x14 common/built-in.o
                0x000000001101c7ec                cmd_always_repeatable
 .text.cmd_never_repeatable
                0x000000001101c800       0x10 common/built-in.o
                0x000000001101c800                cmd_never_repeatable
 .text.cmd_process
                0x000000001101c810      0x108 common/built-in.o
                0x000000001101c810                cmd_process
 .text.cmd_process_error
                0x000000001101c918       0x40 common/built-in.o
                0x000000001101c918                cmd_process_error
 .text.hex1_bin
                0x000000001101c958       0x44 common/built-in.o
 .text.hex2_bin
                0x000000001101c99c       0x40 common/built-in.o
 .text.srec_decode
                0x000000001101c9dc      0x214 common/built-in.o
                0x000000001101c9dc                srec_decode
 .text.CYGACC_COMM_IF_GETC_TIMEOUT.isra.0
                0x000000001101cbf0       0x54 common/built-in.o
 .text.xyzModem_flush
                0x000000001101cc44       0x1c common/built-in.o
 .text.xyzModem_get_hdr
                0x000000001101cc60      0x200 common/built-in.o
 .text.xyzModem_stream_open
                0x000000001101ce60      0x238 common/built-in.o
                0x000000001101ce60                xyzModem_stream_open
 .text.xyzModem_stream_read
                0x000000001101d098      0x254 common/built-in.o
                0x000000001101d098                xyzModem_stream_read
 .text.xyzModem_stream_close
                0x000000001101d2ec       0x3c common/built-in.o
                0x000000001101d2ec                xyzModem_stream_close
 .text.xyzModem_stream_terminate
                0x000000001101d328       0xa4 common/built-in.o
                0x000000001101d328                xyzModem_stream_terminate
 .text.xyzModem_error
                0x000000001101d3cc       0x24 common/built-in.o
                0x000000001101d3cc                xyzModem_error
 .text.part_driver_lookup_type
                0x000000001101d3f0       0xa4 disk/built-in.o
 .text.dev_print
                0x000000001101d494      0x1e4 disk/built-in.o
                0x000000001101d494                dev_print
 .text.part_init
                0x000000001101d678       0x88 disk/built-in.o
                0x000000001101d678                part_init
 .text.part_print
                0x000000001101d700      0x13c disk/built-in.o
                0x000000001101d700                part_print
 .text.part_get_info
                0x000000001101d83c       0x68 disk/built-in.o
                0x000000001101d83c                part_get_info
 .text.part_get_info_whole_disk
                0x000000001101d8a4       0x5c disk/built-in.o
                0x000000001101d8a4                part_get_info_whole_disk
 .text.blk_get_device_by_str
                0x000000001101d900      0x144 disk/built-in.o
                0x000000001101d900                blk_get_device_by_str
 .text.blk_get_device_part_str
                0x000000001101da44      0x360 disk/built-in.o
                0x000000001101da44                blk_get_device_part_str
 .text.part_get_info_by_name_type
                0x000000001101dda4       0x8c disk/built-in.o
                0x000000001101dda4                part_get_info_by_name_type
 .text.part_get_info_by_name
                0x000000001101de30        0x8 disk/built-in.o
                0x000000001101de30                part_get_info_by_name
 .text.part_set_generic_name
                0x000000001101de38       0x48 disk/built-in.o
                0x000000001101de38                part_set_generic_name
 .text.test_block_type
                0x000000001101de80       0x80 disk/built-in.o
 .text.print_partition_extended
                0x000000001101df00      0x25c disk/built-in.o
 .text.part_print_dos
                0x000000001101e15c       0x3c disk/built-in.o
                0x000000001101e15c                part_print_dos
 .text.part_test_dos
                0x000000001101e198       0x78 disk/built-in.o
 .text.part_get_info_extended
                0x000000001101e210      0x2b4 disk/built-in.o
 .text.part_get_info_dos
                0x000000001101e4c4       0x1c disk/built-in.o
                0x000000001101e4c4                part_get_info_dos
 .text.iso_dread
                0x000000001101e4e0       0x48 disk/built-in.o
                0x000000001101e4e0                iso_dread
 .text.part_get_info_iso_verb
                0x000000001101e528      0x374 disk/built-in.o
                0x000000001101e528                part_get_info_iso_verb
 .text.part_test_iso
                0x000000001101e89c       0x20 disk/built-in.o
 .text.part_print_iso
                0x000000001101e8bc       0xa4 disk/built-in.o
 .text.part_get_info_iso
                0x000000001101e960        0x8 disk/built-in.o
 .text.print_efiname
                0x000000001101e968       0x54 disk/built-in.o
 .text.part_test_efi
                0x000000001101e9bc       0xb4 disk/built-in.o
 .text.validate_gpt_entries
                0x000000001101ea70       0xa8 disk/built-in.o
 .text.validate_gpt_header
                0x000000001101eb18      0x230 disk/built-in.o
 .text.is_gpt_valid
                0x000000001101ed48      0x278 disk/built-in.o
 .text.is_pte_valid
                0x000000001101efc0       0x64 disk/built-in.o
 .text.part_print_efi
                0x000000001101f024      0x274 disk/built-in.o
                0x000000001101f024                part_print_efi
 .text.part_get_info_efi
                0x000000001101f298      0x240 disk/built-in.o
                0x000000001101f298                part_get_info_efi
 .text.device_bind_common.isra.0
                0x000000001101f4d8      0x310 drivers/built-in.o
 .text.alloc_priv
                0x000000001101f7e8       0x64 drivers/built-in.o
 .text.device_bind_with_driver_data
                0x000000001101f84c       0x14 drivers/built-in.o
                0x000000001101f84c                device_bind_with_driver_data
 .text.device_bind
                0x000000001101f860       0x10 drivers/built-in.o
                0x000000001101f860                device_bind
 .text.device_bind_by_name
                0x000000001101f870       0x7c drivers/built-in.o
                0x000000001101f870                device_bind_by_name
 .text.device_probe
                0x000000001101f8ec      0x250 drivers/built-in.o
                0x000000001101f8ec                device_probe
 .text.dev_get_platdata
                0x000000001101fb3c       0x40 drivers/built-in.o
                0x000000001101fb3c                dev_get_platdata
 .text.dev_get_parent_platdata
                0x000000001101fb7c       0x40 drivers/built-in.o
                0x000000001101fb7c                dev_get_parent_platdata
 .text.dev_get_uclass_platdata
                0x000000001101fbbc       0x40 drivers/built-in.o
                0x000000001101fbbc                dev_get_uclass_platdata
 .text.dev_get_priv
                0x000000001101fbfc       0x40 drivers/built-in.o
                0x000000001101fbfc                dev_get_priv
 .text.dev_get_uclass_priv
                0x000000001101fc3c       0x40 drivers/built-in.o
                0x000000001101fc3c                dev_get_uclass_priv
 .text.dev_get_parent_priv
                0x000000001101fc7c       0x40 drivers/built-in.o
                0x000000001101fc7c                dev_get_parent_priv
 .text.device_find_first_child
                0x000000001101fcbc       0x20 drivers/built-in.o
                0x000000001101fcbc                device_find_first_child
 .text.device_find_next_child
                0x000000001101fcdc       0x28 drivers/built-in.o
                0x000000001101fcdc                device_find_next_child
 .text.dev_get_parent
                0x000000001101fd04        0x8 drivers/built-in.o
                0x000000001101fd04                dev_get_parent
 .text.dev_get_driver_data
                0x000000001101fd0c        0x8 drivers/built-in.o
                0x000000001101fd0c                dev_get_driver_data
 .text.device_get_uclass_id
                0x000000001101fd14       0x10 drivers/built-in.o
                0x000000001101fd14                device_get_uclass_id
 .text.device_has_active_children
                0x000000001101fd24       0x3c drivers/built-in.o
                0x000000001101fd24                device_has_active_children
 .text.device_is_last_sibling
                0x000000001101fd60       0x24 drivers/built-in.o
                0x000000001101fd60                device_is_last_sibling
 .text.device_set_name_alloced
                0x000000001101fd84       0x10 drivers/built-in.o
                0x000000001101fd84                device_set_name_alloced
 .text.devfdt_get_addr_index
                0x000000001101fd94       0xe4 drivers/built-in.o
                0x000000001101fd94                devfdt_get_addr_index
 .text.devfdt_get_addr
                0x000000001101fe78        0x8 drivers/built-in.o
                0x000000001101fe78                devfdt_get_addr
 .text.devfdt_get_addr_ptr
                0x000000001101fe80        0x8 drivers/built-in.o
                0x000000001101fe80                devfdt_get_addr_ptr
 .text.lists_driver_lookup_name
                0x000000001101fe88       0x78 drivers/built-in.o
                0x000000001101fe88                lists_driver_lookup_name
 .text.lists_uclass_lookup
                0x000000001101ff00       0x54 drivers/built-in.o
                0x000000001101ff00                lists_uclass_lookup
 .text.lists_bind_drivers
                0x000000001101ff54       0xb0 drivers/built-in.o
                0x000000001101ff54                lists_bind_drivers
 .text.device_bind_driver_to_node
                0x0000000011020004       0x68 drivers/built-in.o
                0x0000000011020004                device_bind_driver_to_node
 .text.device_bind_driver
                0x000000001102006c        0xc drivers/built-in.o
                0x000000001102006c                device_bind_driver
 .text.lists_bind_fdt
                0x0000000011020078      0x1b8 drivers/built-in.o
                0x0000000011020078                lists_bind_fdt
 .text.dm_scan_fdt_node
                0x0000000011020230      0x108 drivers/built-in.o
 .text.dm_scan_fdt_ofnode_path
                0x0000000011020338       0x48 drivers/built-in.o
 .text.dm_root  0x0000000011020380       0x38 drivers/built-in.o
                0x0000000011020380                dm_root
 .text.dm_get_translation_offset
                0x00000000110203b8       0x1c drivers/built-in.o
                0x00000000110203b8                dm_get_translation_offset
 .text.dm_init  0x00000000110203d4       0x64 drivers/built-in.o
                0x00000000110203d4                dm_init
 .text.dm_remove_devices_flags
                0x0000000011020438       0x2c drivers/built-in.o
                0x0000000011020438                dm_remove_devices_flags
 .text.dm_scan_platdata
                0x0000000011020464       0x34 drivers/built-in.o
                0x0000000011020464                dm_scan_platdata
 .text.dm_scan_fdt_dev
                0x0000000011020498       0x28 drivers/built-in.o
                0x0000000011020498                dm_scan_fdt_dev
 .text.dm_scan_fdt
                0x00000000110204c0       0x14 drivers/built-in.o
                0x00000000110204c0                dm_scan_fdt
 .text.dm_extended_scan_fdt
                0x00000000110204d4       0x58 drivers/built-in.o
                0x00000000110204d4                dm_extended_scan_fdt
 .text.dm_scan_other
                0x000000001102052c        0x8 drivers/built-in.o
                0x000000001102052c                dm_scan_other
 .text.dm_init_and_scan
                0x0000000011020534       0x54 drivers/built-in.o
                0x0000000011020534                dm_init_and_scan
 .text.uclass_find
                0x0000000011020588       0x48 drivers/built-in.o
                0x0000000011020588                uclass_find
 .text.uclass_get
                0x00000000110205d0      0x130 drivers/built-in.o
                0x00000000110205d0                uclass_get
 .text.dev_get_uclass_index
                0x0000000011020700       0x58 drivers/built-in.o
                0x0000000011020700                dev_get_uclass_index
 .text.uclass_find_device
                0x0000000011020758       0x78 drivers/built-in.o
                0x0000000011020758                uclass_find_device
 .text.uclass_find_first_device
                0x00000000110207d0       0x48 drivers/built-in.o
                0x00000000110207d0                uclass_find_first_device
 .text.uclass_find_next_device
                0x0000000011020818       0x2c drivers/built-in.o
                0x0000000011020818                uclass_find_next_device
 .text.uclass_find_device_by_name
                0x0000000011020844       0x98 drivers/built-in.o
                0x0000000011020844                uclass_find_device_by_name
 .text.uclass_find_device_by_seq
                0x00000000110208dc       0x90 drivers/built-in.o
                0x00000000110208dc                uclass_find_device_by_seq
 .text.uclass_find_device_by_of_offset
                0x000000001102096c       0x78 drivers/built-in.o
                0x000000001102096c                uclass_find_device_by_of_offset
 .text.uclass_find_device_by_ofnode
                0x00000000110209e4       0x7c drivers/built-in.o
                0x00000000110209e4                uclass_find_device_by_ofnode
 .text.uclass_find_device_by_phandle
                0x0000000011020a60       0xb4 drivers/built-in.o
                0x0000000011020a60                uclass_find_device_by_phandle
 .text.uclass_get_device_tail
                0x0000000011020b14       0x40 drivers/built-in.o
                0x0000000011020b14                uclass_get_device_tail
 .text.uclass_get_device
                0x0000000011020b54       0x38 drivers/built-in.o
                0x0000000011020b54                uclass_get_device
 .text.uclass_get_device_by_name
                0x0000000011020b8c       0x38 drivers/built-in.o
                0x0000000011020b8c                uclass_get_device_by_name
 .text.uclass_get_device_by_seq
                0x0000000011020bc4       0x68 drivers/built-in.o
                0x0000000011020bc4                uclass_get_device_by_seq
 .text.uclass_get_device_by_of_offset
                0x0000000011020c2c       0x38 drivers/built-in.o
                0x0000000011020c2c                uclass_get_device_by_of_offset
 .text.uclass_get_device_by_ofnode
                0x0000000011020c64       0x38 drivers/built-in.o
                0x0000000011020c64                uclass_get_device_by_ofnode
 .text.uclass_get_device_by_phandle_id
                0x0000000011020c9c       0x90 drivers/built-in.o
                0x0000000011020c9c                uclass_get_device_by_phandle_id
 .text.uclass_get_device_by_phandle
                0x0000000011020d2c       0x38 drivers/built-in.o
                0x0000000011020d2c                uclass_get_device_by_phandle
 .text.uclass_first_device
                0x0000000011020d64       0x44 drivers/built-in.o
                0x0000000011020d64                uclass_first_device
 .text.uclass_first_device_err
                0x0000000011020da8       0x34 drivers/built-in.o
                0x0000000011020da8                uclass_first_device_err
 .text.uclass_next_device
                0x0000000011020ddc       0x44 drivers/built-in.o
                0x0000000011020ddc                uclass_next_device
 .text.uclass_next_device_err
                0x0000000011020e20       0x34 drivers/built-in.o
                0x0000000011020e20                uclass_next_device_err
 .text.uclass_first_device_check
                0x0000000011020e54       0x40 drivers/built-in.o
                0x0000000011020e54                uclass_first_device_check
 .text.uclass_next_device_check
                0x0000000011020e94       0x30 drivers/built-in.o
                0x0000000011020e94                uclass_next_device_check
 .text.uclass_bind_device
                0x0000000011020ec4       0x70 drivers/built-in.o
                0x0000000011020ec4                uclass_bind_device
 .text.uclass_unbind_device
                0x0000000011020f34       0x4c drivers/built-in.o
                0x0000000011020f34                uclass_unbind_device
 .text.uclass_resolve_seq
                0x0000000011020f80       0xb8 drivers/built-in.o
                0x0000000011020f80                uclass_resolve_seq
 .text.uclass_pre_probe_device
                0x0000000011021038       0x68 drivers/built-in.o
                0x0000000011021038                uclass_pre_probe_device
 .text.uclass_post_probe_device
                0x00000000110210a0       0x68 drivers/built-in.o
                0x00000000110210a0                uclass_post_probe_device
 .text.uclass_pre_remove_device
                0x0000000011021108       0x20 drivers/built-in.o
                0x0000000011021108                uclass_pre_remove_device
 .text.dm_warn  0x0000000011021128       0x78 drivers/built-in.o
                0x0000000011021128                dm_warn
 .text.dm_ofnode_pre_reloc
                0x00000000110211a0       0x64 drivers/built-in.o
                0x00000000110211a0                dm_ofnode_pre_reloc
 .text.device_unbind
                0x0000000011021204       0xe8 drivers/built-in.o
                0x0000000011021204                device_unbind
 .text.device_chld_unbind
                0x00000000110212ec       0x78 drivers/built-in.o
                0x00000000110212ec                device_chld_unbind
 .text.device_free
                0x0000000011021364       0x80 drivers/built-in.o
                0x0000000011021364                device_free
 .text.device_remove
                0x00000000110213e4      0x154 drivers/built-in.o
                0x00000000110213e4                device_remove
 .text.device_chld_remove
                0x0000000011021538       0x78 drivers/built-in.o
                0x0000000011021538                device_chld_remove
 .text.simple_bus_post_bind
                0x00000000110215b0       0x60 drivers/built-in.o
 .text.show_devices
                0x0000000011021610      0x134 drivers/built-in.o
 .text.dm_dump_all
                0x0000000011021744       0x54 drivers/built-in.o
                0x0000000011021744                dm_dump_all
 .text.dm_dump_uclass
                0x0000000011021798      0x120 drivers/built-in.o
                0x0000000011021798                dm_dump_uclass
 .text.ofnode_read_u32
                0x00000000110218b8       0x58 drivers/built-in.o
                0x00000000110218b8                ofnode_read_u32
 .text.ofnode_read_u32_default
                0x0000000011021910       0x20 drivers/built-in.o
                0x0000000011021910                ofnode_read_u32_default
 .text.ofnode_read_u32_array
                0x0000000011021930       0x18 drivers/built-in.o
                0x0000000011021930                ofnode_read_u32_array
 .text.ofnode_first_subnode
                0x0000000011021948       0x20 drivers/built-in.o
                0x0000000011021948                ofnode_first_subnode
 .text.ofnode_next_subnode
                0x0000000011021968       0x20 drivers/built-in.o
                0x0000000011021968                ofnode_next_subnode
 .text.ofnode_get_name
                0x0000000011021988       0x10 drivers/built-in.o
                0x0000000011021988                ofnode_get_name
 .text.ofnode_stringlist_search
                0x0000000011021998       0x40 drivers/built-in.o
                0x0000000011021998                ofnode_stringlist_search
 .text.ofnode_parse_phandle_with_args
                0x00000000110219d8       0x68 drivers/built-in.o
                0x00000000110219d8                ofnode_parse_phandle_with_args
 .text.ofnode_path
                0x0000000011021a40       0x20 drivers/built-in.o
                0x0000000011021a40                ofnode_path
 .text.ofnode_get_property
                0x0000000011021a60       0x14 drivers/built-in.o
                0x0000000011021a60                ofnode_get_property
 .text.ofnode_read_bool
                0x0000000011021a74       0x20 drivers/built-in.o
                0x0000000011021a74                ofnode_read_bool
 .text.ofnode_pre_reloc
                0x0000000011021a94       0x7c drivers/built-in.o
                0x0000000011021a94                ofnode_pre_reloc
 .text.input_tstc
                0x0000000011021b10       0x48 drivers/built-in.o
                0x0000000011021b10                input_tstc
 .text.input_getc
                0x0000000011021b58       0x58 drivers/built-in.o
                0x0000000011021b58                input_getc
 .text.input_init
                0x0000000011021bb0       0x34 drivers/built-in.o
                0x0000000011021bb0                input_init
 .text.keyboard_start
                0x0000000011021be4       0x24 drivers/built-in.o
 .text.keyboard_stop
                0x0000000011021c08       0x24 drivers/built-in.o
 .text.keyboard_pre_probe
                0x0000000011021c2c       0x78 drivers/built-in.o
 .text.keyboard_tstc
                0x0000000011021ca4       0x64 drivers/built-in.o
 .text.keyboard_getc
                0x0000000011021d08       0x64 drivers/built-in.o
 .text.pinconfig_post_bind
                0x0000000011021d6c       0xdc drivers/built-in.o
 .text.pinctrl_post_bind
                0x0000000011021e48       0x28 drivers/built-in.o
 .text.pinctrl_select_state
                0x0000000011021e70      0x164 drivers/built-in.o
                0x0000000011021e70                pinctrl_select_state
 .text.pinctrl_get_gpio_mux
                0x0000000011021fd4       0x20 drivers/built-in.o
                0x0000000011021fd4                pinctrl_get_gpio_mux
 .text.pinctrl_get_pins_count
                0x0000000011021ff4       0x20 drivers/built-in.o
                0x0000000011021ff4                pinctrl_get_pins_count
 .text.pinctrl_get_pin_name
                0x0000000011022014       0x50 drivers/built-in.o
                0x0000000011022014                pinctrl_get_pin_name
 .text.pinctrl_get_pin_muxing
                0x0000000011022064       0x20 drivers/built-in.o
                0x0000000011022064                pinctrl_get_pin_muxing
 .text.bcm283x_pinctrl_set_state
                0x0000000011022084      0x10c drivers/built-in.o
                0x0000000011022084                bcm283x_pinctrl_set_state
 .text.bcm283x_pinctrl_get_gpio_mux
                0x0000000011022190       0x54 drivers/built-in.o
 .text.bcm283x_pinctl_probe
                0x00000000110221e4       0x88 drivers/built-in.o
                0x00000000110221e4                bcm283x_pinctl_probe
 .text.get_desc
                0x000000001102226c       0xd0 drivers/built-in.o
 .text.blk_post_probe
                0x000000001102233c       0x1c drivers/built-in.o
 .text.blk_get_if_type_name
                0x0000000011022358       0x10 drivers/built-in.o
                0x0000000011022358                blk_get_if_type_name
 .text.blk_get_devnum_by_typename
                0x0000000011022368       0xf4 drivers/built-in.o
                0x0000000011022368                blk_get_devnum_by_typename
 .text.blk_list_part
                0x000000001102245c       0x7c drivers/built-in.o
                0x000000001102245c                blk_list_part
 .text.blk_print_part_devnum
                0x00000000110224d8       0x48 drivers/built-in.o
                0x00000000110224d8                blk_print_part_devnum
 .text.blk_list_devices
                0x0000000011022520       0x78 drivers/built-in.o
                0x0000000011022520                blk_list_devices
 .text.blk_print_device_num
                0x0000000011022598       0x48 drivers/built-in.o
                0x0000000011022598                blk_print_device_num
 .text.blk_show_device
                0x00000000110225e0       0x7c drivers/built-in.o
                0x00000000110225e0                blk_show_device
 .text.blk_select_hwpart
                0x000000001102265c       0x2c drivers/built-in.o
                0x000000001102265c                blk_select_hwpart
 .text.blk_dselect_hwpart
                0x0000000011022688        0x8 drivers/built-in.o
                0x0000000011022688                blk_dselect_hwpart
 .text.blk_first_device
                0x0000000011022690       0x70 drivers/built-in.o
                0x0000000011022690                blk_first_device
 .text.blk_next_device
                0x0000000011022700       0x64 drivers/built-in.o
                0x0000000011022700                blk_next_device
 .text.blk_find_device
                0x0000000011022764       0xa0 drivers/built-in.o
                0x0000000011022764                blk_find_device
 .text.blk_get_device
                0x0000000011022804       0x34 drivers/built-in.o
                0x0000000011022804                blk_get_device
 .text.blk_get_devnum_by_type
                0x0000000011022838       0x2c drivers/built-in.o
                0x0000000011022838                blk_get_devnum_by_type
 .text.blk_select_hwpart_devnum
                0x0000000011022864       0x34 drivers/built-in.o
                0x0000000011022864                blk_select_hwpart_devnum
 .text.blk_dread
                0x0000000011022898       0xb8 drivers/built-in.o
                0x0000000011022898                blk_dread
 .text.blk_read_devnum
                0x0000000011022950       0x54 drivers/built-in.o
                0x0000000011022950                blk_read_devnum
 .text.blk_dwrite
                0x00000000110229a4       0x84 drivers/built-in.o
                0x00000000110229a4                blk_dwrite
 .text.blk_write_devnum
                0x0000000011022a28       0x54 drivers/built-in.o
                0x0000000011022a28                blk_write_devnum
 .text.blk_derase
                0x0000000011022a7c       0x70 drivers/built-in.o
                0x0000000011022a7c                blk_derase
 .text.blk_find_max_devnum
                0x0000000011022aec       0x90 drivers/built-in.o
                0x0000000011022aec                blk_find_max_devnum
 .text.blk_next_free_devnum
                0x0000000011022b7c       0x2c drivers/built-in.o
                0x0000000011022b7c                blk_next_free_devnum
 .text.blk_create_device
                0x0000000011022ba8      0x158 drivers/built-in.o
                0x0000000011022ba8                blk_create_device
 .text.blk_create_devicef
                0x0000000011022d00       0xc4 drivers/built-in.o
                0x0000000011022d00                blk_create_devicef
 .text.blkcache_read
                0x0000000011022dc4       0xf4 drivers/built-in.o
                0x0000000011022dc4                blkcache_read
 .text.blkcache_fill
                0x0000000011022eb8      0x14c drivers/built-in.o
                0x0000000011022eb8                blkcache_fill
 .text.blkcache_invalidate
                0x0000000011023004       0xa0 drivers/built-in.o
                0x0000000011023004                blkcache_invalidate
 .text.blkcache_configure
                0x00000000110230a4       0xa0 drivers/built-in.o
                0x00000000110230a4                blkcache_configure
 .text.blkcache_stats
                0x0000000011023144       0x34 drivers/built-in.o
                0x0000000011023144                blkcache_stats
 .text.mmc_send_ext_csd
                0x0000000011023178       0x40 drivers/built-in.o
 .text.mmc_send_op_cond_iter
                0x00000000110231b8       0x74 drivers/built-in.o
 .text.mmc_go_idle
                0x000000001102322c       0x50 drivers/built-in.o
 .text.mmc_set_capacity
                0x000000001102327c       0x84 drivers/built-in.o
 .text.mmc_read_and_compare_ext_csd
                0x0000000011023300       0xb0 drivers/built-in.o
 .text.sd_get_capabilities
                0x00000000110233b0      0x1b0 drivers/built-in.o
 .text.mmc_mode_name
                0x0000000011023560       0x24 drivers/built-in.o
                0x0000000011023560                mmc_mode_name
 .text.mmc_send_status
                0x0000000011023584       0xe0 drivers/built-in.o
                0x0000000011023584                mmc_send_status
 .text.mmc_set_blocklen
                0x0000000011023664       0x7c drivers/built-in.o
                0x0000000011023664                mmc_set_blocklen
 .text.mmc_bread
                0x00000000110236e0      0x17c drivers/built-in.o
                0x00000000110236e0                mmc_bread
 .text.mmc_switch
                0x000000001102385c       0x6c drivers/built-in.o
                0x000000001102385c                mmc_switch
 .text.mmc_startup_v4
                0x00000000110238c8      0x2b0 drivers/built-in.o
 .text.mmc_set_card_speed.isra.0
                0x0000000011023b78       0xa0 drivers/built-in.o
 .text.mmc_switch_part
                0x0000000011023c18       0x74 drivers/built-in.o
                0x0000000011023c18                mmc_switch_part
 .text.mmc_hwpart_config
                0x0000000011023c8c      0x3e0 drivers/built-in.o
                0x0000000011023c8c                mmc_hwpart_config
 .text.mmc_set_clock
                0x000000001102406c       0x30 drivers/built-in.o
                0x000000001102406c                mmc_set_clock
 .text.mmc_dump_capabilities
                0x000000001102409c        0x4 drivers/built-in.o
                0x000000001102409c                mmc_dump_capabilities
 .text.mmc_get_op_cond
                0x00000000110240a0      0x228 drivers/built-in.o
                0x00000000110240a0                mmc_get_op_cond
 .text.mmc_start_init
                0x00000000110242c8       0x68 drivers/built-in.o
                0x00000000110242c8                mmc_start_init
 .text.mmc_init
                0x0000000011024330      0xa74 drivers/built-in.o
                0x0000000011024330                mmc_init
 .text.mmc_set_dsr
                0x0000000011024da4       0x10 drivers/built-in.o
                0x0000000011024da4                mmc_set_dsr
 .text.mmc_initialize
                0x0000000011024db4       0xd8 drivers/built-in.o
                0x0000000011024db4                mmc_initialize
 .text.mmc_blk_probe
                0x0000000011024e8c       0x1c drivers/built-in.o
 .text.dm_mmc_set_ios
                0x0000000011024ea8       0x20 drivers/built-in.o
                0x0000000011024ea8                dm_mmc_set_ios
 .text.mmc_set_ios
                0x0000000011024ec8        0x8 drivers/built-in.o
                0x0000000011024ec8                mmc_set_ios
 .text.dm_mmc_send_init_stream
                0x0000000011024ed0       0x1c drivers/built-in.o
                0x0000000011024ed0                dm_mmc_send_init_stream
 .text.mmc_send_init_stream
                0x0000000011024eec        0x8 drivers/built-in.o
                0x0000000011024eec                mmc_send_init_stream
 .text.dm_mmc_get_wp
                0x0000000011024ef4       0x20 drivers/built-in.o
                0x0000000011024ef4                dm_mmc_get_wp
 .text.mmc_getwp
                0x0000000011024f14        0x8 drivers/built-in.o
                0x0000000011024f14                mmc_getwp
 .text.dm_mmc_get_cd
                0x0000000011024f1c       0x20 drivers/built-in.o
                0x0000000011024f1c                dm_mmc_get_cd
 .text.mmc_getcd
                0x0000000011024f3c        0x8 drivers/built-in.o
                0x0000000011024f3c                mmc_getcd
 .text.mmc_get_mmc_dev
                0x0000000011024f44       0x28 drivers/built-in.o
                0x0000000011024f44                mmc_get_mmc_dev
 .text.dm_mmc_send_cmd
                0x0000000011024f6c       0x64 drivers/built-in.o
                0x0000000011024f6c                dm_mmc_send_cmd
 .text.mmc_send_cmd
                0x0000000011024fd0        0x8 drivers/built-in.o
                0x0000000011024fd0                mmc_send_cmd
 .text.mmc_select_hwpart
                0x0000000011024fd8       0x78 drivers/built-in.o
 .text.find_mmc_device
                0x0000000011025050       0x54 drivers/built-in.o
                0x0000000011025050                find_mmc_device
 .text.get_mmc_num
                0x00000000110250a4       0x20 drivers/built-in.o
                0x00000000110250a4                get_mmc_num
 .text.mmc_get_blk_desc
                0x00000000110250c4       0x28 drivers/built-in.o
                0x00000000110250c4                mmc_get_blk_desc
 .text.mmc_do_preinit
                0x00000000110250ec       0x68 drivers/built-in.o
                0x00000000110250ec                mmc_do_preinit
 .text.print_mmc_devices
                0x0000000011025154       0xfc drivers/built-in.o
                0x0000000011025154                print_mmc_devices
 .text.mmc_bind
                0x0000000011025250       0xcc drivers/built-in.o
                0x0000000011025250                mmc_bind
 .text.mmc_berase
                0x000000001102531c      0x1dc drivers/built-in.o
                0x000000001102531c                mmc_berase
 .text.mmc_bwrite
                0x00000000110254f8      0x1a4 drivers/built-in.o
                0x00000000110254f8                mmc_bwrite
 .text.sdhci_reset
                0x000000001102569c       0xc4 drivers/built-in.o
 .text.sdhci_set_clock.isra.0
                0x0000000011025760      0x254 drivers/built-in.o
 .text.sdhci_set_ios
                0x00000000110259b4      0x15c drivers/built-in.o
 .text.sdhci_send_command
                0x0000000011025b10      0x72c drivers/built-in.o
 .text.sdhci_probe
                0x000000001102623c      0x214 drivers/built-in.o
                0x000000001102623c                sdhci_probe
 .text.sdhci_setup_cfg
                0x0000000011026450      0x2e8 drivers/built-in.o
                0x0000000011026450                sdhci_setup_cfg
 .text.sdhci_bind
                0x0000000011026738        0x4 drivers/built-in.o
                0x0000000011026738                sdhci_bind
 .text.bcm2835_sdhci_readl
                0x000000001102673c       0x14 drivers/built-in.o
 .text.bcm2835_sdhci_readw
                0x0000000011026750       0x24 drivers/built-in.o
 .text.bcm2835_sdhci_readb
                0x0000000011026774       0x20 drivers/built-in.o
 .text.bcm2835_sdhci_probe
                0x0000000011026794       0xf0 drivers/built-in.o
 .text.bcm2835_sdhci_writel
                0x0000000011026884       0x60 drivers/built-in.o
 .text.bcm2835_sdhci_writew
                0x00000000110268e4       0xbc drivers/built-in.o
 .text.bcm2835_sdhci_writeb
                0x00000000110269a0       0x88 drivers/built-in.o
 .text.bcm2835_sdhci_bind
                0x0000000011026a28       0x2c drivers/built-in.o
 .text.bcm2835_set_ios
                0x0000000011026a54      0x13c drivers/built-in.o
 .text.bcm2835_probe
                0x0000000011026b90      0x1b8 drivers/built-in.o
 .text.bcm2835_bind
                0x0000000011026d48       0x2c drivers/built-in.o
 .text.bcm2835_read_wait_sdcmd.isra.0
                0x0000000011026d74       0x7c drivers/built-in.o
 .text.bcm2835_finish_command
                0x0000000011026df0       0xe8 drivers/built-in.o
 .text.bcm2835_send_cmd
                0x0000000011026ed8      0x520 drivers/built-in.o
 .text.console_normal_set_row
                0x00000000110273f8       0xbc drivers/built-in.o
 .text.console_normal_putc_xy
                0x00000000110274b4      0x158 drivers/built-in.o
 .text.console_normal_probe
                0x000000001102760c       0x54 drivers/built-in.o
 .text.console_normal_move_rows
                0x0000000011027660       0x64 drivers/built-in.o
 .text.backlight_enable
                0x00000000110276c4       0x20 drivers/built-in.o
                0x00000000110276c4                backlight_enable
 .text.backlight_set_brightness
                0x00000000110276e4       0x20 drivers/built-in.o
                0x00000000110276e4                backlight_set_brightness
 .text.simple_panel_probe
                0x0000000011027704       0x18 drivers/built-in.o
 .text.simple_panel_set_backlight
                0x000000001102771c       0x38 drivers/built-in.o
 .text.simple_panel_enable_backlight
                0x0000000011027754       0x30 drivers/built-in.o
 .text.simple_panel_ofdata_to_platdata
                0x0000000011027784       0x6c drivers/built-in.o
 .text.alloc_fb
                0x00000000110277f0       0x60 drivers/built-in.o
 .text.video_pre_remove
                0x0000000011027850       0x20 drivers/built-in.o
 .text.video_pre_probe
                0x0000000011027870       0x3c drivers/built-in.o
 .text.video_post_bind
                0x00000000110278ac       0x64 drivers/built-in.o
 .text.video_set_flush_dcache
                0x0000000011027910       0x24 drivers/built-in.o
                0x0000000011027910                video_set_flush_dcache
 .text.video_reserve
                0x0000000011027934       0x58 drivers/built-in.o
                0x0000000011027934                video_reserve
 .text.video_clear
                0x000000001102798c       0x78 drivers/built-in.o
                0x000000001102798c                video_clear
 .text.video_set_default_colors
                0x0000000011027a04       0x58 drivers/built-in.o
                0x0000000011027a04                video_set_default_colors
 .text.video_post_probe
                0x0000000011027a5c       0xf8 drivers/built-in.o
 .text.video_sync
                0x0000000011027b54       0x3c drivers/built-in.o
                0x0000000011027b54                video_sync
 .text.video_sync_all
                0x0000000011027b90       0x40 drivers/built-in.o
                0x0000000011027b90                video_sync_all
 .text.video_get_xsize
                0x0000000011027bd0       0x18 drivers/built-in.o
                0x0000000011027bd0                video_get_xsize
 .text.video_get_ysize
                0x0000000011027be8       0x18 drivers/built-in.o
                0x0000000011027be8                video_get_ysize
 .text.vidconsole_pre_probe
                0x0000000011027c00       0x3c drivers/built-in.o
 .text.parsenum
                0x0000000011027c3c       0x30 drivers/built-in.o
 .text.vidconsole_post_probe
                0x0000000011027c6c       0x8c drivers/built-in.o
 .text.vidconsole_putc_xy
                0x0000000011027cf8       0x24 drivers/built-in.o
                0x0000000011027cf8                vidconsole_putc_xy
 .text.vidconsole_move_rows
                0x0000000011027d1c       0x20 drivers/built-in.o
                0x0000000011027d1c                vidconsole_move_rows
 .text.vidconsole_set_row
                0x0000000011027d3c       0x20 drivers/built-in.o
                0x0000000011027d3c                vidconsole_set_row
 .text.vidconsole_newline
                0x0000000011027d5c       0xbc drivers/built-in.o
 .text.vid_console_color
                0x0000000011027e18       0x98 drivers/built-in.o
                0x0000000011027e18                vid_console_color
 .text.vidconsole_put_char
                0x0000000011027eb0      0x434 drivers/built-in.o
                0x0000000011027eb0                vidconsole_put_char
 .text.vidconsole_puts
                0x00000000110282e4       0x3c drivers/built-in.o
 .text.vidconsole_putc
                0x0000000011028320       0x2c drivers/built-in.o
 .text.do_video_puts
                0x000000001102834c       0x70 drivers/built-in.o
 .text.vidconsole_position_cursor
                0x00000000110283bc       0x80 drivers/built-in.o
                0x00000000110283bc                vidconsole_position_cursor
 .text.do_video_setcursor
                0x000000001102843c       0x88 drivers/built-in.o
 .text.bcm2835_video_probe
                0x00000000110284c4       0xd4 drivers/built-in.o
 .text.gpio_post_bind
                0x0000000011028598        0x8 drivers/gpio/built-in.o
 .text.get_function
                0x00000000110285a0       0xb4 drivers/gpio/built-in.o
 .text.gpio_to_device
                0x0000000011028654       0x90 drivers/gpio/built-in.o
 .text.check_reserved
                0x00000000110286e4       0x78 drivers/gpio/built-in.o
 .text.gpio_renumber
                0x000000001102875c       0x90 drivers/gpio/built-in.o
 .text.gpio_pre_remove
                0x00000000110287ec       0x5c drivers/gpio/built-in.o
 .text.gpio_post_probe
                0x0000000011028848       0x48 drivers/gpio/built-in.o
 .text.dm_gpio_lookup_name
                0x0000000011028890      0x114 drivers/gpio/built-in.o
                0x0000000011028890                dm_gpio_lookup_name
 .text.gpio_lookup_name
                0x00000000110289a4       0x7c drivers/gpio/built-in.o
                0x00000000110289a4                gpio_lookup_name
 .text.gpio_xlate_offs_flags
                0x0000000011028a20       0x40 drivers/gpio/built-in.o
                0x0000000011028a20                gpio_xlate_offs_flags
 .text.dm_gpio_request
                0x0000000011028a60       0xb8 drivers/gpio/built-in.o
                0x0000000011028a60                dm_gpio_request
 .text.dm_gpio_requestf
                0x0000000011028b18       0x9c drivers/gpio/built-in.o
 .text.gpio_request
                0x0000000011028bb4       0x34 drivers/gpio/built-in.o
                0x0000000011028bb4                gpio_request
 .text._dm_gpio_free
                0x0000000011028be8       0x84 drivers/gpio/built-in.o
                0x0000000011028be8                _dm_gpio_free
 .text.gpio_free
                0x0000000011028c6c       0x28 drivers/gpio/built-in.o
                0x0000000011028c6c                gpio_free
 .text.gpio_direction_input
                0x0000000011028c94       0x48 drivers/gpio/built-in.o
                0x0000000011028c94                gpio_direction_input
 .text.gpio_direction_output
                0x0000000011028cdc       0x58 drivers/gpio/built-in.o
                0x0000000011028cdc                gpio_direction_output
 .text.dm_gpio_get_value
                0x0000000011028d34       0x54 drivers/gpio/built-in.o
                0x0000000011028d34                dm_gpio_get_value
 .text.dm_gpio_set_value
                0x0000000011028d88       0x6c drivers/gpio/built-in.o
                0x0000000011028d88                dm_gpio_set_value
 .text.dm_gpio_set_dir_flags
                0x0000000011028df4       0x9c drivers/gpio/built-in.o
                0x0000000011028df4                dm_gpio_set_dir_flags
 .text.gpio_request_tail
                0x0000000011028e90       0xfc drivers/gpio/built-in.o
 .text.gpio_get_value
                0x0000000011028f8c       0x24 drivers/gpio/built-in.o
                0x0000000011028f8c                gpio_get_value
 .text.gpio_set_value
                0x0000000011028fb0       0x34 drivers/gpio/built-in.o
                0x0000000011028fb0                gpio_set_value
 .text.gpio_get_bank_info
                0x0000000011028fe4       0x2c drivers/gpio/built-in.o
                0x0000000011028fe4                gpio_get_bank_info
 .text.gpio_get_function
                0x0000000011029010        0xc drivers/gpio/built-in.o
                0x0000000011029010                gpio_get_function
 .text.gpio_get_raw_function
                0x000000001102901c        0xc drivers/gpio/built-in.o
                0x000000001102901c                gpio_get_raw_function
 .text.gpio_get_status
                0x0000000011029028      0x130 drivers/gpio/built-in.o
                0x0000000011029028                gpio_get_status
 .text.gpio_request_by_name
                0x0000000011029158       0x7c drivers/gpio/built-in.o
                0x0000000011029158                gpio_request_by_name
 .text.bcm2835_gpio_set_value
                0x00000000110291d4       0x58 drivers/gpio/built-in.o
 .text.bcm2835_gpio_direction_input
                0x000000001102922c       0x58 drivers/gpio/built-in.o
 .text.bcm2835_gpio_get_function
                0x0000000011029284       0x40 drivers/gpio/built-in.o
 .text.bcm2835_gpio_direction_output
                0x00000000110292c4       0x80 drivers/gpio/built-in.o
 .text.bcm2835_gpio_ofdata_to_platdata
                0x0000000011029344       0x48 drivers/gpio/built-in.o
 .text.bcm2835_gpio_probe
                0x000000001102938c       0x68 drivers/gpio/built-in.o
 .text.bcm2835_gpio_get_value
                0x00000000110293f4       0x44 drivers/gpio/built-in.o
 .text.genphy_shutdown
                0x0000000011029438        0x8 drivers/net/phy/built-in.o
                0x0000000011029438                genphy_shutdown
 .text.genphy_restart_aneg
                0x0000000011029440       0x68 drivers/net/phy/built-in.o
                0x0000000011029440                genphy_restart_aneg
 .text.genphy_config_aneg
                0x00000000110294a8      0x1f0 drivers/net/phy/built-in.o
                0x00000000110294a8                genphy_config_aneg
 .text.genphy_config
                0x0000000011029698       0xcc drivers/net/phy/built-in.o
                0x0000000011029698                genphy_config
 .text.genphy_update_link
                0x0000000011029764      0x158 drivers/net/phy/built-in.o
                0x0000000011029764                genphy_update_link
 .text.genphy_parse_link
                0x00000000110298bc      0x1ac drivers/net/phy/built-in.o
                0x00000000110298bc                genphy_parse_link
 .text.genphy_startup
                0x0000000011029a68       0x34 drivers/net/phy/built-in.o
                0x0000000011029a68                genphy_startup
 .text.phy_init
                0x0000000011029a9c        0x8 drivers/net/phy/built-in.o
                0x0000000011029a9c                phy_init
 .text.get_phy_id
                0x0000000011029aa4       0x80 drivers/net/phy/built-in.o
                0x0000000011029aa4                get_phy_id
 .text.get_phy_device_by_mask
                0x0000000011029b24      0x2e4 drivers/net/phy/built-in.o
 .text.phy_reset
                0x0000000011029e08       0xc0 drivers/net/phy/built-in.o
                0x0000000011029e08                phy_reset
 .text.phy_find_by_mask
                0x0000000011029ec8       0x4c drivers/net/phy/built-in.o
                0x0000000011029ec8                phy_find_by_mask
 .text.phy_connect_dev
                0x0000000011029f14       0x58 drivers/net/phy/built-in.o
                0x0000000011029f14                phy_connect_dev
 .text.phy_connect
                0x0000000011029f6c       0x68 drivers/net/phy/built-in.o
                0x0000000011029f6c                phy_connect
 .text.phy_startup
                0x0000000011029fd4       0x1c drivers/net/phy/built-in.o
                0x0000000011029fd4                phy_startup
 .text._serial_putc
                0x0000000011029ff0       0x58 drivers/serial/built-in.o
 .text.__serial_getc
                0x000000001102a048       0x40 drivers/serial/built-in.o
 .text.__serial_tstc
                0x000000001102a088       0x24 drivers/serial/built-in.o
 .text.serial_stub_putc
                0x000000001102a0ac        0x8 drivers/serial/built-in.o
 .text.serial_stub_getc
                0x000000001102a0b4        0x8 drivers/serial/built-in.o
 .text.serial_stub_tstc
                0x000000001102a0bc        0x8 drivers/serial/built-in.o
 .text.serial_pre_remove
                0x000000001102a0c4       0x28 drivers/serial/built-in.o
 .text.serial_post_probe
                0x000000001102a0ec       0xc4 drivers/serial/built-in.o
 .text.serial_stub_puts
                0x000000001102a1b0       0x38 drivers/serial/built-in.o
 .text.serial_init
                0x000000001102a1e8      0x178 drivers/serial/built-in.o
                0x000000001102a1e8                serial_init
 .text.serial_initialize
                0x000000001102a360        0x4 drivers/serial/built-in.o
                0x000000001102a360                serial_initialize
 .text.serial_putc
                0x000000001102a364       0x18 drivers/serial/built-in.o
                0x000000001102a364                serial_putc
 .text.serial_puts
                0x000000001102a37c       0x44 drivers/serial/built-in.o
                0x000000001102a37c                serial_puts
 .text.serial_getc
                0x000000001102a3c0       0x18 drivers/serial/built-in.o
                0x000000001102a3c0                serial_getc
 .text.serial_tstc
                0x000000001102a3d8       0x18 drivers/serial/built-in.o
                0x000000001102a3d8                serial_tstc
 .text.serial_setbrg
                0x000000001102a3f0       0x30 drivers/serial/built-in.o
                0x000000001102a3f0                serial_setbrg
 .text.on_baudrate
                0x000000001102a420      0x10c drivers/serial/built-in.o
 .text.serial_stdio_init
                0x000000001102a52c        0x4 drivers/serial/built-in.o
                0x000000001102a52c                serial_stdio_init
 .text.pl01x_serial_setbrg
                0x000000001102a530      0x130 drivers/serial/built-in.o
                0x000000001102a530                pl01x_serial_setbrg
 .text.pl01x_serial_probe
                0x000000001102a660       0x70 drivers/serial/built-in.o
                0x000000001102a660                pl01x_serial_probe
 .text.pl01x_serial_getc
                0x000000001102a6d0       0x48 drivers/serial/built-in.o
                0x000000001102a6d0                pl01x_serial_getc
 .text.pl01x_serial_putc
                0x000000001102a718       0x44 drivers/serial/built-in.o
                0x000000001102a718                pl01x_serial_putc
 .text.pl01x_serial_pending
                0x000000001102a75c       0x50 drivers/serial/built-in.o
                0x000000001102a75c                pl01x_serial_pending
 .text.pl01x_serial_ofdata_to_platdata
                0x000000001102a7ac       0x80 drivers/serial/built-in.o
                0x000000001102a7ac                pl01x_serial_ofdata_to_platdata
 .text.bcm283x_mu_serial_pending
                0x000000001102a82c       0x40 drivers/serial/built-in.o
 .text.bcm283x_mu_serial_putc
                0x000000001102a86c       0x44 drivers/serial/built-in.o
 .text.bcm283x_mu_serial_getc
                0x000000001102a8b0       0x34 drivers/serial/built-in.o
 .text.bcm283x_mu_serial_setbrg
                0x000000001102a8e4       0x7c drivers/serial/built-in.o
 .text.bcm283x_mu_serial_probe
                0x000000001102a960       0x38 drivers/serial/built-in.o
 .text.bcm283x_mu_serial_ofdata_to_platdata
                0x000000001102a998       0xa8 drivers/serial/built-in.o
 .text.bcm283x_pl011_serial_setbrg
                0x000000001102aa40       0x38 drivers/serial/built-in.o
 .text.bcm283x_pl011_serial_ofdata_to_platdata
                0x000000001102aa78       0x6c drivers/serial/built-in.o
 .text.usb_ether_register
                0x000000001102aae4      0x12c drivers/usb/eth/built-in.o
                0x000000001102aae4                usb_ether_register
 .text.usb_ether_receive
                0x000000001102ac10       0xbc drivers/usb/eth/built-in.o
                0x000000001102ac10                usb_ether_receive
 .text.usb_ether_advance_rxbuf
                0x000000001102accc       0x24 drivers/usb/eth/built-in.o
                0x000000001102accc                usb_ether_advance_rxbuf
 .text.usb_ether_get_rx_bytes
                0x000000001102acf0       0x28 drivers/usb/eth/built-in.o
                0x000000001102acf0                usb_ether_get_rx_bytes
 .text.smsc95xx_eth_stop
                0x000000001102ad18        0x4 drivers/usb/eth/built-in.o
                0x000000001102ad18                smsc95xx_eth_stop
 .text.smsc95xx_send_common
                0x000000001102ad1c       0xb8 drivers/usb/eth/built-in.o
 .text.smsc95xx_eth_send
                0x000000001102add4       0x2c drivers/usb/eth/built-in.o
                0x000000001102add4                smsc95xx_eth_send
 .text.smsc95xx_eth_recv
                0x000000001102ae00       0xcc drivers/usb/eth/built-in.o
                0x000000001102ae00                smsc95xx_eth_recv
 .text.smsc95xx_free_pkt
                0x000000001102aecc       0x34 drivers/usb/eth/built-in.o
 .text.smsc95xx_write_reg
                0x000000001102af00       0x60 drivers/usb/eth/built-in.o
 .text.smsc95xx_read_reg
                0x000000001102af60       0x7c drivers/usb/eth/built-in.o
 .text.smsc95xx_phy_wait_not_busy
                0x000000001102afdc       0x5c drivers/usb/eth/built-in.o
 .text.smsc95xx_mdio_read
                0x000000001102b038       0x70 drivers/usb/eth/built-in.o
 .text.smsc95xx_eth_probe
                0x000000001102b0a8       0x2c drivers/usb/eth/built-in.o
 .text.smsc95xx_write_hwaddr_common.isra.0
                0x000000001102b0d4       0x78 drivers/usb/eth/built-in.o
 .text.smsc95xx_write_hwaddr
                0x000000001102b14c       0x4c drivers/usb/eth/built-in.o
                0x000000001102b14c                smsc95xx_write_hwaddr
 .text.smsc95xx_mdio_write
                0x000000001102b198       0x74 drivers/usb/eth/built-in.o
 .text.smsc95xx_eth_start
                0x000000001102b20c      0x480 drivers/usb/eth/built-in.o
 .text.smsc95xx_read_rom_hwaddr
                0x000000001102b68c      0x17c drivers/usb/eth/built-in.o
                0x000000001102b68c                smsc95xx_read_rom_hwaddr
 .text.lan7x_write_reg
                0x000000001102b808       0x60 drivers/usb/eth/built-in.o
                0x000000001102b808                lan7x_write_reg
 .text.lan7x_read_reg
                0x000000001102b868       0x7c drivers/usb/eth/built-in.o
                0x000000001102b868                lan7x_read_reg
 .text.lan7x_phy_wait_not_busy
                0x000000001102b8e4       0x70 drivers/usb/eth/built-in.o
 .text.lan7x_eeprom_confirm_not_busy
                0x000000001102b954       0x70 drivers/usb/eth/built-in.o
 .text.lan7x_read_eeprom.part.0
                0x000000001102b9c4       0xe0 drivers/usb/eth/built-in.o
 .text.lan7x_mdio_read
                0x000000001102baa4       0x74 drivers/usb/eth/built-in.o
                0x000000001102baa4                lan7x_mdio_read
 .text.lan7x_phylib_mdio_read
                0x000000001102bb18       0x30 drivers/usb/eth/built-in.o
 .text.lan7x_mdio_write
                0x000000001102bb48       0x74 drivers/usb/eth/built-in.o
                0x000000001102bb48                lan7x_mdio_write
 .text.lan7x_phylib_mdio_write
                0x000000001102bbbc       0x48 drivers/usb/eth/built-in.o
 .text.lan7x_phylib_register
                0x000000001102bc04       0xb8 drivers/usb/eth/built-in.o
                0x000000001102bc04                lan7x_phylib_register
 .text.lan7x_eth_phylib_connect
                0x000000001102bcbc       0x64 drivers/usb/eth/built-in.o
                0x000000001102bcbc                lan7x_eth_phylib_connect
 .text.lan7x_eth_phylib_config_start
                0x000000001102bd20       0x80 drivers/usb/eth/built-in.o
                0x000000001102bd20                lan7x_eth_phylib_config_start
 .text.lan7x_update_flowcontrol
                0x000000001102bda0       0xd0 drivers/usb/eth/built-in.o
                0x000000001102bda0                lan7x_update_flowcontrol
 .text.lan7x_read_eeprom_mac
                0x000000001102be70       0xd0 drivers/usb/eth/built-in.o
                0x000000001102be70                lan7x_read_eeprom_mac
 .text.lan7x_pmt_phy_reset
                0x000000001102bf40       0xe4 drivers/usb/eth/built-in.o
                0x000000001102bf40                lan7x_pmt_phy_reset
 .text.lan7x_basic_reset
                0x000000001102c024       0x9c drivers/usb/eth/built-in.o
                0x000000001102c024                lan7x_basic_reset
 .text.lan7x_eth_stop
                0x000000001102c0c0        0x4 drivers/usb/eth/built-in.o
                0x000000001102c0c0                lan7x_eth_stop
 .text.lan7x_eth_send
                0x000000001102c0c4       0xc0 drivers/usb/eth/built-in.o
                0x000000001102c0c4                lan7x_eth_send
 .text.lan7x_eth_recv
                0x000000001102c184       0xc8 drivers/usb/eth/built-in.o
                0x000000001102c184                lan7x_eth_recv
 .text.lan7x_free_pkt
                0x000000001102c24c       0x34 drivers/usb/eth/built-in.o
                0x000000001102c24c                lan7x_free_pkt
 .text.lan7x_eth_remove
                0x000000001102c280       0x3c drivers/usb/eth/built-in.o
                0x000000001102c280                lan7x_eth_remove
 .text.lan78xx_write_hwaddr
                0x000000001102c2bc       0xb4 drivers/usb/eth/built-in.o
                0x000000001102c2bc                lan78xx_write_hwaddr
 .text.lan78xx_read_raw_otp
                0x000000001102c370      0x17c drivers/usb/eth/built-in.o
 .text.lan78xx_eth_start
                0x000000001102c4ec      0x1a0 drivers/usb/eth/built-in.o
 .text.lan78xx_read_mac.isra.0
                0x000000001102c68c      0x184 drivers/usb/eth/built-in.o
 .text.lan78xx_read_rom_hwaddr
                0x000000001102c810       0x6c drivers/usb/eth/built-in.o
                0x000000001102c810                lan78xx_read_rom_hwaddr
 .text.lan78xx_eth_probe
                0x000000001102c87c       0xec drivers/usb/eth/built-in.o
 .text.usb_match_device
                0x000000001102c968       0xc4 drivers/usb/host/built-in.o
 .text.usb_child_post_bind
                0x000000001102ca2c       0x88 drivers/usb/host/built-in.o
 .text.usb_match_one_id_intf.isra.0
                0x000000001102cab4       0x80 drivers/usb/host/built-in.o
 .text.remove_inactive_children.isra.0
                0x000000001102cb34       0x80 drivers/usb/host/built-in.o
 .text.usb_disable_asynch
                0x000000001102cbb4       0x1c drivers/usb/host/built-in.o
                0x000000001102cbb4                usb_disable_asynch
 .text.submit_int_msg
                0x000000001102cbd0       0x3c drivers/usb/host/built-in.o
                0x000000001102cbd0                submit_int_msg
 .text.submit_control_msg
                0x000000001102cc0c       0x9c drivers/usb/host/built-in.o
                0x000000001102cc0c                submit_control_msg
 .text.submit_bulk_msg
                0x000000001102cca8       0x38 drivers/usb/host/built-in.o
                0x000000001102cca8                submit_bulk_msg
 .text.usb_alloc_device
                0x000000001102cce0       0x28 drivers/usb/host/built-in.o
                0x000000001102cce0                usb_alloc_device
 .text.usb_reset_root_port
                0x000000001102cd08       0x28 drivers/usb/host/built-in.o
                0x000000001102cd08                usb_reset_root_port
 .text.usb_update_hub_device
                0x000000001102cd30       0x28 drivers/usb/host/built-in.o
                0x000000001102cd30                usb_update_hub_device
 .text.usb_get_max_xfer_size
                0x000000001102cd58       0x24 drivers/usb/host/built-in.o
                0x000000001102cd58                usb_get_max_xfer_size
 .text.usb_stop
                0x000000001102cd7c       0xb8 drivers/usb/host/built-in.o
                0x000000001102cd7c                usb_stop
 .text.usb_get_bus
                0x000000001102ce34       0x3c drivers/usb/host/built-in.o
                0x000000001102ce34                usb_get_bus
 .text.usb_scan_device
                0x000000001102ce70      0x2a4 drivers/usb/host/built-in.o
                0x000000001102ce70                usb_scan_device
 .text.usb_scan_bus.isra.0
                0x000000001102d114       0x80 drivers/usb/host/built-in.o
 .text.usb_init
                0x000000001102d194      0x1c8 drivers/usb/host/built-in.o
                0x000000001102d194                usb_init
 .text.usb_child_pre_probe
                0x000000001102d35c       0x84 drivers/usb/host/built-in.o
                0x000000001102d35c                usb_child_pre_probe
 .text.dwc_otg_core_reset
                0x000000001102d3e0       0x98 drivers/usb/host/built-in.o
 .text.dwc2_usb_remove
                0x000000001102d478       0x34 drivers/usb/host/built-in.o
 .text.dwc2_usb_ofdata_to_platdata
                0x000000001102d4ac       0x74 drivers/usb/host/built-in.o
 .text.dwc2_usb_probe
                0x000000001102d520      0x3b8 drivers/usb/host/built-in.o
 .text.wait_for_chhltd
                0x000000001102d8d8       0xa8 drivers/usb/host/built-in.o
                0x000000001102d8d8                wait_for_chhltd
 .text.chunk_msg
                0x000000001102d980      0x3dc drivers/usb/host/built-in.o
                0x000000001102d980                chunk_msg
 .text.dwc2_submit_control_msg
                0x000000001102dd5c      0x4f4 drivers/usb/host/built-in.o
 .text._submit_bulk_msg
                0x000000001102e250       0x6c drivers/usb/host/built-in.o
                0x000000001102e250                _submit_bulk_msg
 .text.dwc2_submit_bulk_msg
                0x000000001102e2bc       0x44 drivers/usb/host/built-in.o
 .text._submit_int_msg
                0x000000001102e300       0xa0 drivers/usb/host/built-in.o
                0x000000001102e300                _submit_int_msg
 .text.dwc2_submit_int_msg
                0x000000001102e3a0       0x54 drivers/usb/host/built-in.o
 .text.env_get_yesno
                0x000000001102e3f4       0x4c env/built-in.o
                0x000000001102e3f4                env_get_yesno
 .text.env_get_default
                0x000000001102e440       0x3c env/built-in.o
                0x000000001102e440                env_get_default
 .text.set_default_env
                0x000000001102e47c       0x98 env/built-in.o
                0x000000001102e47c                set_default_env
 .text.set_default_vars
                0x000000001102e514       0x2c env/built-in.o
                0x000000001102e514                set_default_vars
 .text.env_import
                0x000000001102e540       0xc4 env/built-in.o
                0x000000001102e540                env_import
 .text.env_export
                0x000000001102e604       0x80 env/built-in.o
                0x000000001102e604                env_export
 .text.env_relocate
                0x000000001102e684       0x30 env/built-in.o
                0x000000001102e684                env_relocate
 .text.env_complete
                0x000000001102e6b4      0x1b0 env/built-in.o
                0x000000001102e6b4                env_complete
 .text.env_get_location
                0x000000001102e864       0x18 env/built-in.o
                0x000000001102e864                env_get_location
 .text.env_driver_lookup
                0x000000001102e87c       0x68 env/built-in.o
 .text.env_get_char_spec
                0x000000001102e8e4        0xc env/built-in.o
                0x000000001102e8e4                env_get_char_spec
 .text.env_get_char
                0x000000001102e8f0       0x1c env/built-in.o
                0x000000001102e8f0                env_get_char
 .text.env_load
                0x000000001102e90c       0xa8 env/built-in.o
                0x000000001102e90c                env_load
 .text.env_save
                0x000000001102e9b4       0x94 env/built-in.o
                0x000000001102e9b4                env_save
 .text.env_init
                0x000000001102ea48       0xa0 env/built-in.o
                0x000000001102ea48                env_init
 .text.regex_callback
                0x000000001102eae8      0x144 env/built-in.o
 .text.env_attr_walk
                0x000000001102ec2c      0x134 env/built-in.o
                0x000000001102ec2c                env_attr_walk
 .text.env_attr_lookup
                0x000000001102ed60       0x7c env/built-in.o
                0x000000001102ed60                env_attr_lookup
 .text.clear_callback
                0x000000001102eddc        0xc env/built-in.o
 .text.find_env_callback
                0x000000001102ede8       0x74 env/built-in.o
 .text.on_callbacks
                0x000000001102ee5c       0x60 env/built-in.o
 .text.set_callback
                0x000000001102eebc       0x90 env/built-in.o
 .text.env_callback_init
                0x000000001102ef4c       0xb4 env/built-in.o
                0x000000001102ef4c                env_callback_init
 .text.skip_num
                0x000000001102f000       0x68 env/built-in.o
 .text.clear_flags
                0x000000001102f068        0xc env/built-in.o
 .text.on_flags
                0x000000001102f074       0x60 env/built-in.o
 .text.env_flags_parse_vartype
                0x000000001102f0d4       0x58 env/built-in.o
                0x000000001102f0d4                env_flags_parse_vartype
 .text.env_flags_parse_varaccess
                0x000000001102f12c       0x5c env/built-in.o
                0x000000001102f12c                env_flags_parse_varaccess
 .text.set_flags
                0x000000001102f188       0xac env/built-in.o
 .text.eth_validate_ethaddr_str
                0x000000001102f234       0x98 env/built-in.o
                0x000000001102f234                eth_validate_ethaddr_str
 .text.env_flags_init
                0x000000001102f2cc       0xbc env/built-in.o
                0x000000001102f2cc                env_flags_init
 .text.env_flags_validate
                0x000000001102f388      0x278 env/built-in.o
                0x000000001102f388                env_flags_validate
 .text.env_fat_save
                0x000000001102f600      0x100 env/built-in.o
 .text.env_fat_load
                0x000000001102f700      0x114 env/built-in.o
 .text.fs_probe_unsupported
                0x000000001102f814       0x20 fs/built-in.o
 .text.fs_ls_unsupported
                0x000000001102f834        0x8 fs/built-in.o
 .text.fs_exists_unsupported
                0x000000001102f83c        0x8 fs/built-in.o
 .text.fs_size_unsupported
                0x000000001102f844        0x8 fs/built-in.o
 .text.fs_read_unsupported
                0x000000001102f84c        0x8 fs/built-in.o
 .text.fs_close_unsupported
                0x000000001102f854        0x4 fs/built-in.o
 .text.fs_opendir_unsupported
                0x000000001102f858        0x8 fs/built-in.o
 .text.fs_get_info
                0x000000001102f860       0x30 fs/built-in.o
 .text.fs_close
                0x000000001102f890       0x30 fs/built-in.o
 .text.fs_write_unsupported
                0x000000001102f8c0        0x8 fs/built-in.o
 .text.fs_mkdir_unsupported
                0x000000001102f8c8        0x8 fs/built-in.o
 .text.fs_uuid_unsupported
                0x000000001102f8d0        0x8 fs/built-in.o
 .text.fs_unlink_unsupported
                0x000000001102f8d8        0x8 fs/built-in.o
 .text.fs_set_blk_dev
                0x000000001102f8e0       0xbc fs/built-in.o
                0x000000001102f8e0                fs_set_blk_dev
 .text.fs_set_blk_dev_with_part
                0x000000001102f99c       0xb8 fs/built-in.o
                0x000000001102f99c                fs_set_blk_dev_with_part
 .text.fs_uuid  0x000000001102fa54       0x2c fs/built-in.o
                0x000000001102fa54                fs_uuid
 .text.fs_ls    0x000000001102fa80       0x44 fs/built-in.o
                0x000000001102fa80                fs_ls
 .text.fs_exists
                0x000000001102fac4       0x40 fs/built-in.o
                0x000000001102fac4                fs_exists
 .text.fs_size  0x000000001102fb04       0x48 fs/built-in.o
                0x000000001102fb04                fs_size
 .text.fs_read  0x000000001102fb4c       0x58 fs/built-in.o
                0x000000001102fb4c                fs_read
 .text.fs_write
                0x000000001102fba4       0x88 fs/built-in.o
                0x000000001102fba4                fs_write
 .text.fs_opendir
                0x000000001102fc2c       0x7c fs/built-in.o
                0x000000001102fc2c                fs_opendir
 .text.fs_readdir
                0x000000001102fca8       0x68 fs/built-in.o
                0x000000001102fca8                fs_readdir
 .text.fs_closedir
                0x000000001102fd10       0x48 fs/built-in.o
                0x000000001102fd10                fs_closedir
 .text.fs_ls_generic
                0x000000001102fd58       0xc0 fs/built-in.o
 .text.fs_unlink
                0x000000001102fe18       0x44 fs/built-in.o
                0x000000001102fe18                fs_unlink
 .text.fs_mkdir
                0x000000001102fe5c       0x44 fs/built-in.o
                0x000000001102fe5c                fs_mkdir
 .text.do_size  0x000000001102fea0       0x6c fs/built-in.o
                0x000000001102fea0                do_size
 .text.do_load  0x000000001102ff0c      0x208 fs/built-in.o
                0x000000001102ff0c                do_load
 .text.do_ls    0x0000000011030114       0x84 fs/built-in.o
                0x0000000011030114                do_ls
 .text.file_exists
                0x0000000011030198       0x3c fs/built-in.o
                0x0000000011030198                file_exists
 .text.do_save  0x00000000110301d4      0x14c fs/built-in.o
                0x00000000110301d4                do_save
 .text.do_fs_uuid
                0x0000000011030320       0xa0 fs/built-in.o
                0x0000000011030320                do_fs_uuid
 .text.do_fs_type
                0x00000000110303c0       0x8c fs/built-in.o
                0x00000000110303c0                do_fs_type
 .text.do_rm    0x000000001103044c       0x54 fs/built-in.o
                0x000000001103044c                do_rm
 .text.do_mkdir
                0x00000000110304a0       0x5c fs/built-in.o
                0x00000000110304a0                do_mkdir
 .text.get_fs   0x00000000110304fc        0xc fs/built-in.o
                0x00000000110304fc                get_fs
 .text.ext4fs_free_node
                0x0000000011030508       0x24 fs/built-in.o
                0x0000000011030508                ext4fs_free_node
 .text.ext4fs_read_file
                0x000000001103052c      0x2c8 fs/built-in.o
                0x000000001103052c                ext4fs_read_file
 .text.ext4fs_ls
                0x00000000110307f4       0x90 fs/built-in.o
                0x00000000110307f4                ext4fs_ls
 .text.ext4fs_exists
                0x0000000011030884       0x20 fs/built-in.o
                0x0000000011030884                ext4fs_exists
 .text.ext4fs_size
                0x00000000110308a4        0x4 fs/built-in.o
                0x00000000110308a4                ext4fs_size
 .text.ext4fs_read
                0x00000000110308a8       0x30 fs/built-in.o
                0x00000000110308a8                ext4fs_read
 .text.ext4fs_probe
                0x00000000110308d8       0x3c fs/built-in.o
                0x00000000110308d8                ext4fs_probe
 .text.ext4_read_file
                0x0000000011030914       0x7c fs/built-in.o
                0x0000000011030914                ext4_read_file
 .text.ext4fs_uuid
                0x0000000011030990       0x38 fs/built-in.o
                0x0000000011030990                ext4fs_uuid
 .text.ext4fs_bg_get_inode_table_id
                0x00000000110309c8       0x20 fs/built-in.o
                0x00000000110309c8                ext4fs_bg_get_inode_table_id
 .text.ext4fs_read_inode
                0x00000000110309e8      0x108 fs/built-in.o
                0x00000000110309e8                ext4fs_read_inode
 .text.read_allocated_block
                0x0000000011030af0      0x83c fs/built-in.o
                0x0000000011030af0                read_allocated_block
 .text.ext4fs_reinit_global
                0x000000001103132c       0x90 fs/built-in.o
                0x000000001103132c                ext4fs_reinit_global
 .text.ext4fs_close
                0x00000000110313bc       0x4c fs/built-in.o
                0x00000000110313bc                ext4fs_close
 .text.ext4fs_iterate_dir
                0x0000000011031408      0x290 fs/built-in.o
                0x0000000011031408                ext4fs_iterate_dir
 .text.ext4fs_find_file1
                0x0000000011031698      0x294 fs/built-in.o
 .text.ext4fs_find_file
                0x000000001103192c       0x74 fs/built-in.o
                0x000000001103192c                ext4fs_find_file
 .text.ext4fs_open
                0x00000000110319a0       0xa0 fs/built-in.o
                0x00000000110319a0                ext4fs_open
 .text.ext4fs_mount
                0x0000000011031a40       0xec fs/built-in.o
                0x0000000011031a40                ext4fs_mount
 .text.ext4fs_set_blk_dev
                0x0000000011031b2c       0x5c fs/built-in.o
                0x0000000011031b2c                ext4fs_set_blk_dev
 .text.ext4fs_devread
                0x0000000011031b88       0x50 fs/built-in.o
                0x0000000011031b88                ext4fs_devread
 .text.ext4_read_superblock
                0x0000000011031bd8       0x48 fs/built-in.o
                0x0000000011031bd8                ext4_read_superblock
 .text.downcase
                0x0000000011031c20       0x3c fs/built-in.o
 .text.mkcksum  0x0000000011031c5c       0x54 fs/built-in.o
 .text.fat_itr_child
                0x0000000011031cb0       0x74 fs/built-in.o
 .text.disk_read
                0x0000000011031d24       0x64 fs/built-in.o
 .text.get_cluster
                0x0000000011031d88      0x16c fs/built-in.o
 .text.read_bootsectandvi
                0x0000000011031ef4      0x134 fs/built-in.o
 .text.fat_itr_root
                0x0000000011032028      0x1c8 fs/built-in.o
 .text.split_filename
                0x00000000110321f0       0xf4 fs/built-in.o
 .text.disk_write
                0x00000000110322e4       0x84 fs/built-in.o
 .text.flush_dirty_fat_buffer
                0x0000000011032368       0xac fs/built-in.o
 .text.get_fatent
                0x0000000011032414      0x190 fs/built-in.o
 .text.next_dent
                0x00000000110325a4      0x140 fs/built-in.o
 .text.set_fatent_value
                0x00000000110326e4      0x230 fs/built-in.o
 .text.determine_fatent
                0x0000000011032914       0x58 fs/built-in.o
 .text.clear_fatent
                0x000000001103296c       0x9c fs/built-in.o
 .text.set_cluster
                0x0000000011032a08      0x184 fs/built-in.o
 .text.set_contents
                0x0000000011032b8c      0x81c fs/built-in.o
 .text.normalize_longname
                0x00000000110333a8       0xf8 fs/built-in.o
 .text.set_name
                0x00000000110334a0      0x170 fs/built-in.o
 .text.fat_itr_next
                0x0000000011033610      0x270 fs/built-in.o
 .text.fat_itr_resolve
                0x0000000011033880      0x188 fs/built-in.o
 .text.flush_dir_table
                0x0000000011033a08      0x114 fs/built-in.o
 .text.fill_dir_slot
                0x0000000011033b1c      0x288 fs/built-in.o
 .text.find_directory_entry
                0x0000000011033da4       0xa0 fs/built-in.o
 .text.fat_set_blk_dev
                0x0000000011033e44       0xcc fs/built-in.o
                0x0000000011033e44                fat_set_blk_dev
 .text.file_fat_detectfs
                0x0000000011033f10      0x140 fs/built-in.o
                0x0000000011033f10                file_fat_detectfs
 .text.fat_exists
                0x0000000011034050       0x80 fs/built-in.o
                0x0000000011034050                fat_exists
 .text.fat_size
                0x00000000110340d0       0xc4 fs/built-in.o
                0x00000000110340d0                fat_size
 .text.file_fat_read_at
                0x0000000011034194      0x33c fs/built-in.o
                0x0000000011034194                file_fat_read_at
 .text.file_fat_read
                0x00000000110344d0       0x2c fs/built-in.o
                0x00000000110344d0                file_fat_read
 .text.fat_read_file
                0x00000000110344fc       0x48 fs/built-in.o
                0x00000000110344fc                fat_read_file
 .text.fat_opendir
                0x0000000011034544       0xac fs/built-in.o
                0x0000000011034544                fat_opendir
 .text.fat_readdir
                0x00000000110345f0       0x8c fs/built-in.o
                0x00000000110345f0                fat_readdir
 .text.fat_closedir
                0x000000001103467c       0x28 fs/built-in.o
                0x000000001103467c                fat_closedir
 .text.fat_close
                0x00000000110346a4        0x4 fs/built-in.o
                0x00000000110346a4                fat_close
 .text.file_fat_write_at
                0x00000000110346a8      0x2a0 fs/built-in.o
                0x00000000110346a8                file_fat_write_at
 .text.file_fat_write
                0x0000000011034948       0x10 fs/built-in.o
                0x0000000011034948                file_fat_write
 .text.fat_unlink
                0x0000000011034958      0x2b0 fs/built-in.o
                0x0000000011034958                fat_unlink
 .text.fat_mkdir
                0x0000000011034c08      0x3b4 fs/built-in.o
                0x0000000011034c08                fat_mkdir
 .text.fs_devread
                0x0000000011034fbc      0x24c fs/built-in.o
                0x0000000011034fbc                fs_devread
 .text.efi_uc_destroy
                0x0000000011035208       0x20 lib/built-in.o
 .text.efi_uc_init
                0x0000000011035228       0x20 lib/built-in.o
 .text.check_node_type
                0x0000000011035248       0x80 lib/built-in.o
 .text.efi_uc_start
                0x00000000110352c8       0xe0 lib/built-in.o
 .text.efi_uc_supported
                0x00000000110353a8       0xd0 lib/built-in.o
 .text.disconnect_child
                0x0000000011035478       0x84 lib/built-in.o
 .text.efi_uc_stop
                0x00000000110354fc      0x15c lib/built-in.o
 .text.efi_driver_init
                0x0000000011035658      0x12c lib/built-in.o
                0x0000000011035658                efi_driver_init
 .text.efi_bl_write
                0x0000000011035784       0x6c lib/built-in.o
 .text.efi_bl_read
                0x00000000110357f0       0x6c lib/built-in.o
 .text.efi_bl_bind
                0x000000001103585c      0x128 lib/built-in.o
 .text.get_var.constprop.0
                0x0000000011035984       0xd4 lib/built-in.o
 .text.efi_deserialize_load_option
                0x0000000011035a58       0x74 lib/built-in.o
                0x0000000011035a58                efi_deserialize_load_option
 .text.efi_bootmgr_load
                0x0000000011035acc      0x170 lib/built-in.o
                0x0000000011035acc                efi_bootmgr_load
 .text.efi_is_event
                0x0000000011035c3c       0x3c lib/built-in.o
 .text.__efi_entry_check
                0x0000000011035c78       0x2c lib/built-in.o
                0x0000000011035c78                __efi_entry_check
 .text.__efi_exit_check
                0x0000000011035ca4       0x20 lib/built-in.o
                0x0000000011035ca4                __efi_exit_check
 .text.efi_queue_event
                0x0000000011035cc4       0x60 lib/built-in.o
 .text.efi_set_mem
                0x0000000011035d24       0x30 lib/built-in.o
 .text.efi_copy_mem
                0x0000000011035d54       0x30 lib/built-in.o
 .text.efi_calculate_crc32
                0x0000000011035d84       0x44 lib/built-in.o
 .text.efi_set_watchdog_timer
                0x0000000011035dc8       0x2c lib/built-in.o
 .text.efi_stall
                0x0000000011035df4       0x28 lib/built-in.o
 .text.efi_get_next_monotonic_count
                0x0000000011035e1c       0x34 lib/built-in.o
 .text.efi_start_image
                0x0000000011035e50       0x9c lib/built-in.o
 .text.efi_register_protocol_notify
                0x0000000011035eec       0x20 lib/built-in.o
 .text.efi_close_event
                0x0000000011035f0c       0x60 lib/built-in.o
 .text.efi_free_pool_ext
                0x0000000011035f6c       0x2c lib/built-in.o
 .text.efi_allocate_pool_ext
                0x0000000011035f98       0x3c lib/built-in.o
 .text.efi_get_memory_map_ext
                0x0000000011035fd4       0x3c lib/built-in.o
 .text.efi_free_pages_ext
                0x0000000011036010       0x34 lib/built-in.o
 .text.efi_allocate_pages_ext
                0x0000000011036044       0x3c lib/built-in.o
 .text.efi_raise_tpl
                0x0000000011036080       0x38 lib/built-in.o
 .text.efi_save_gd
                0x00000000110360b8        0xc lib/built-in.o
                0x00000000110360b8                efi_save_gd
 .text.efi_restore_gd
                0x00000000110360c4       0x14 lib/built-in.o
                0x00000000110360c4                efi_restore_gd
 .text.efi_exit
                0x00000000110360d8       0x38 lib/built-in.o
 .text.is_valid_tpl
                0x0000000011036110       0x38 lib/built-in.o
                0x0000000011036110                is_valid_tpl
 .text.efi_signal_event
                0x0000000011036148      0x100 lib/built-in.o
                0x0000000011036148                efi_signal_event
 .text.efi_exit_boot_services
                0x0000000011036248      0x10c lib/built-in.o
 .text.efi_signal_event_ext
                0x0000000011036354       0x54 lib/built-in.o
 .text.efi_add_handle
                0x00000000110363a8       0x2c lib/built-in.o
                0x00000000110363a8                efi_add_handle
 .text.efi_create_handle
                0x00000000110363d4       0x48 lib/built-in.o
                0x00000000110363d4                efi_create_handle
 .text.efi_create_event
                0x000000001103641c      0x114 lib/built-in.o
                0x000000001103641c                efi_create_event
 .text.efi_create_event_ex
                0x0000000011036530       0x3c lib/built-in.o
                0x0000000011036530                efi_create_event_ex
 .text.efi_create_event_ext
                0x000000001103656c       0x44 lib/built-in.o
 .text.efi_timer_check
                0x00000000110365b0       0xa4 lib/built-in.o
                0x00000000110365b0                efi_timer_check
 .text.efi_check_event
                0x0000000011036654       0x80 lib/built-in.o
 .text.efi_wait_for_event
                0x00000000110366d4       0xf8 lib/built-in.o
 .text.efi_restore_tpl
                0x00000000110367cc       0x30 lib/built-in.o
 .text.efi_set_timer
                0x00000000110367fc       0x84 lib/built-in.o
                0x00000000110367fc                efi_set_timer
 .text.efi_set_timer_ext
                0x0000000011036880       0x3c lib/built-in.o
 .text.efi_search_obj
                0x00000000110368bc       0x30 lib/built-in.o
                0x00000000110368bc                efi_search_obj
 .text.efi_search_protocol
                0x00000000110368ec       0x94 lib/built-in.o
                0x00000000110368ec                efi_search_protocol
 .text.efi_remove_protocol
                0x0000000011036980       0x88 lib/built-in.o
                0x0000000011036980                efi_remove_protocol
 .text.efi_locate_protocol
                0x0000000011036a08       0xa0 lib/built-in.o
 .text.efi_open_protocol_information
                0x0000000011036aa8      0x10c lib/built-in.o
 .text.efi_close_protocol
                0x0000000011036bb4       0xb8 lib/built-in.o
 .text.efi_locate_handle
                0x0000000011036c6c      0x130 lib/built-in.o
 .text.efi_locate_handle_buffer
                0x0000000011036d9c       0xdc lib/built-in.o
 .text.efi_locate_device_path
                0x0000000011036e78      0x140 lib/built-in.o
 .text.efi_locate_handle_ext
                0x0000000011036fb8       0x3c lib/built-in.o
 .text.efi_remove_all_protocols
                0x0000000011036ff4       0x70 lib/built-in.o
                0x0000000011036ff4                efi_remove_all_protocols
 .text.efi_delete_handle
                0x0000000011037064       0x3c lib/built-in.o
                0x0000000011037064                efi_delete_handle
 .text.efi_protocols_per_handle
                0x00000000110370a0       0xdc lib/built-in.o
 .text.efi_disconnect_controller
                0x000000001103717c      0x268 lib/built-in.o
 .text.efi_disconnect_all_drivers
                0x00000000110373e4      0x188 lib/built-in.o
 .text.efi_open_protocol
                0x000000001103756c      0x26c lib/built-in.o
 .text.efi_bind_controller
                0x00000000110377d8       0xcc lib/built-in.o
 .text.efi_handle_protocol
                0x00000000110378a4       0x10 lib/built-in.o
 .text.efi_uninstall_protocol
                0x00000000110378b4       0xe4 lib/built-in.o
 .text.efi_uninstall_protocol_interface
                0x0000000011037998       0x70 lib/built-in.o
 .text.efi_connect_controller
                0x0000000011037a08      0x1c8 lib/built-in.o
 .text.efi_unload_image
                0x0000000011037bd0       0x3c lib/built-in.o
 .text.efi_add_protocol
                0x0000000011037c0c       0xb8 lib/built-in.o
                0x0000000011037c0c                efi_add_protocol
 .text.efi_reinstall_protocol_interface
                0x0000000011037cc4       0x88 lib/built-in.o
 .text.efi_install_protocol_interface
                0x0000000011037d4c       0x88 lib/built-in.o
 .text.efi_uninstall_multiple_protocol_interfaces
                0x0000000011037dd4      0x1d0 lib/built-in.o
 .text.efi_install_multiple_protocol_interfaces
                0x0000000011037fa4      0x1c4 lib/built-in.o
 .text.efi_install_configuration_table
                0x0000000011038168      0x158 lib/built-in.o
                0x0000000011038168                efi_install_configuration_table
 .text.efi_install_configuration_table_ext
                0x00000000110382c0       0x34 lib/built-in.o
 .text.efi_setup_loaded_image
                0x00000000110382f4      0x100 lib/built-in.o
                0x00000000110382f4                efi_setup_loaded_image
 .text.efi_load_image_from_path
                0x00000000110383f4      0x13c lib/built-in.o
                0x00000000110383f4                efi_load_image_from_path
 .text.efi_load_image
                0x0000000011038530      0x124 lib/built-in.o
 .text.efi_initialize_system_table
                0x0000000011038654       0x58 lib/built-in.o
                0x0000000011038654                efi_initialize_system_table
 .text.efi_cout_enable_cursor
                0x00000000110386ac       0x44 lib/built-in.o
 .text.efi_cout_set_cursor_position
                0x00000000110386f0       0xb0 lib/built-in.o
 .text.efi_cout_clear_screen
                0x00000000110387a0       0x34 lib/built-in.o
 .text.efi_cout_set_attribute
                0x00000000110387d4       0x68 lib/built-in.o
 .text.efi_cout_set_mode
                0x000000001103883c       0x50 lib/built-in.o
 .text.efi_cout_test_string
                0x000000001103888c       0x1c lib/built-in.o
 .text.efi_cout_reset
                0x00000000110388a8       0x44 lib/built-in.o
 .text.efi_cin_set_state
                0x00000000110388ec       0x1c lib/built-in.o
 .text.efi_cout_output_string
                0x0000000011038908      0x154 lib/built-in.o
 .text.efi_cin_unregister_key_notify
                0x0000000011038a5c       0x84 lib/built-in.o
 .text.efi_cin_empty_buffer
                0x0000000011038ae0       0x28 lib/built-in.o
 .text.efi_cin_reset
                0x0000000011038b08       0x40 lib/built-in.o
 .text.efi_cin_reset_ex
                0x0000000011038b48       0x40 lib/built-in.o
 .text.efi_cin_register_key_notify
                0x0000000011038b88       0xb4 lib/built-in.o
 .text.efi_cout_query_mode
                0x0000000011038c3c       0x94 lib/built-in.o
 .text.set_shift_mask
                0x0000000011038cd0       0x5c lib/built-in.o
                0x0000000011038cd0                set_shift_mask
 .text.analyze_modifiers.constprop.0
                0x0000000011038d2c       0xa8 lib/built-in.o
 .text.efi_cin_check
                0x0000000011038dd4      0x2c8 lib/built-in.o
 .text.efi_cin_read_key_stroke
                0x000000001103909c       0x8c lib/built-in.o
 .text.efi_console_timer_notify
                0x0000000011039128       0x18 lib/built-in.o
 .text.efi_cin_read_key_stroke_ex
                0x0000000011039140       0x94 lib/built-in.o
 .text.efi_key_notify
                0x00000000110391d4       0x18 lib/built-in.o
 .text.efi_console_register
                0x00000000110391ec      0x33c lib/built-in.o
                0x00000000110391ec                efi_console_register
 .text.dp_size  0x0000000011039528       0x9c lib/built-in.o
 .text.dp_alloc
                0x00000000110395c4       0x4c lib/built-in.o
 .text.dp_part_size
                0x0000000011039610       0x60 lib/built-in.o
 .text.dp_part_node
                0x0000000011039670      0x1f4 lib/built-in.o
 .text.dp_fill  0x0000000011039864      0x208 lib/built-in.o
 .text.dp_part_fill
                0x0000000011039a6c       0x74 lib/built-in.o
 .text.efi_dp_next
                0x0000000011039ae0       0x38 lib/built-in.o
                0x0000000011039ae0                efi_dp_next
 .text.efi_dp_match
                0x0000000011039b18       0x80 lib/built-in.o
                0x0000000011039b18                efi_dp_match
 .text.efi_dp_last_node
                0x0000000011039b98       0x3c lib/built-in.o
                0x0000000011039b98                efi_dp_last_node
 .text.efi_dp_instance_size
                0x0000000011039bd4       0x4c lib/built-in.o
                0x0000000011039bd4                efi_dp_instance_size
 .text.find_obj
                0x0000000011039c20      0x114 lib/built-in.o
 .text.efi_dp_find_obj
                0x0000000011039d34       0x5c lib/built-in.o
                0x0000000011039d34                efi_dp_find_obj
 .text.efi_dp_size
                0x0000000011039d90       0x44 lib/built-in.o
                0x0000000011039d90                efi_dp_size
 .text.efi_dp_dup
                0x0000000011039dd4       0x58 lib/built-in.o
                0x0000000011039dd4                efi_dp_dup
 .text.efi_dp_append
                0x0000000011039e2c       0xb4 lib/built-in.o
                0x0000000011039e2c                efi_dp_append
 .text.efi_dp_append_node
                0x0000000011039ee0      0x100 lib/built-in.o
                0x0000000011039ee0                efi_dp_append_node
 .text.efi_dp_create_device_node
                0x0000000011039fe0       0x50 lib/built-in.o
                0x0000000011039fe0                efi_dp_create_device_node
 .text.efi_dp_append_instance
                0x000000001103a030       0xc4 lib/built-in.o
                0x000000001103a030                efi_dp_append_instance
 .text.efi_dp_get_next_instance
                0x000000001103a0f4       0xa0 lib/built-in.o
                0x000000001103a0f4                efi_dp_get_next_instance
 .text.efi_dp_is_multi_instance
                0x000000001103a194       0x38 lib/built-in.o
                0x000000001103a194                efi_dp_is_multi_instance
 .text.efi_dp_from_part
                0x000000001103a1cc       0x60 lib/built-in.o
                0x000000001103a1cc                efi_dp_from_part
 .text.efi_dp_part_node
                0x000000001103a22c       0x54 lib/built-in.o
                0x000000001103a22c                efi_dp_part_node
 .text.efi_dp_from_file
                0x000000001103a280       0xd4 lib/built-in.o
                0x000000001103a280                efi_dp_from_file
 .text.efi_dp_from_eth
                0x000000001103a354       0x5c lib/built-in.o
                0x000000001103a354                efi_dp_from_eth
 .text.efi_dp_from_mem
                0x000000001103a3b0      0x104 lib/built-in.o
                0x000000001103a3b0                efi_dp_from_mem
 .text.efi_dp_split_file_path
                0x000000001103a4b4       0xac lib/built-in.o
                0x000000001103a4b4                efi_dp_split_file_path
 .text.efi_dp_from_name
                0x000000001103a560      0x138 lib/built-in.o
                0x000000001103a560                efi_dp_from_name
 .text.dp_unknown
                0x000000001103a698       0x34 lib/built-in.o
 .text.efi_convert_single_device_node_to_text
                0x000000001103a6cc      0x478 lib/built-in.o
 .text.efi_str_to_u16
                0x000000001103ab44       0x60 lib/built-in.o
 .text.efi_convert_device_path_to_text
                0x000000001103aba4       0x88 lib/built-in.o
 .text.efi_convert_device_node_to_text
                0x000000001103ac2c       0x4c lib/built-in.o
 .text.efi_dp_str
                0x000000001103ac78       0x3c lib/built-in.o
                0x000000001103ac78                efi_dp_str
 .text.create_device_node
                0x000000001103acb4       0x4c lib/built-in.o
 .text.is_device_path_multi_instance
                0x000000001103ad00       0x34 lib/built-in.o
 .text.get_next_device_path_instance
                0x000000001103ad34       0x3c lib/built-in.o
 .text.append_device_path_instance
                0x000000001103ad70       0x3c lib/built-in.o
 .text.append_device_node
                0x000000001103adac       0x3c lib/built-in.o
 .text.append_device_path
                0x000000001103ade8       0x3c lib/built-in.o
 .text.duplicate_device_path
                0x000000001103ae24       0x34 lib/built-in.o
 .text.get_device_path_size
                0x000000001103ae58       0x40 lib/built-in.o
 .text.efi_file_flush
                0x000000001103ae98       0x1c lib/built-in.o
 .text.efi_file_setinfo
                0x000000001103aeb4       0x1c lib/built-in.o
 .text.efi_file_getpos
                0x000000001103aed0       0x48 lib/built-in.o
 .text.set_blk_dev.isra.0
                0x000000001103af18        0xc lib/built-in.o
 .text.file_open
                0x000000001103af24      0x298 lib/built-in.o
 .text.efi_open_volume
                0x000000001103b1bc       0x48 lib/built-in.o
 .text.efi_file_open
                0x000000001103b204       0xb4 lib/built-in.o
 .text.efi_file_getinfo
                0x000000001103b2b8      0x1d0 lib/built-in.o
 .text.efi_file_setpos
                0x000000001103b488       0x88 lib/built-in.o
 .text.efi_file_write
                0x000000001103b510       0x80 lib/built-in.o
 .text.efi_file_read
                0x000000001103b590      0x1b0 lib/built-in.o
 .text.efi_file_delete
                0x000000001103b740       0x60 lib/built-in.o
 .text.efi_file_close
                0x000000001103b7a0       0x38 lib/built-in.o
 .text.efi_file_from_path
                0x000000001103b7d8      0x10c lib/built-in.o
                0x000000001103b7d8                efi_file_from_path
 .text.efi_simple_file_system
                0x000000001103b8e4       0x54 lib/built-in.o
                0x000000001103b8e4                efi_simple_file_system
 .text.efi_set_code_and_data_type
                0x000000001103b938       0x7c lib/built-in.o
 .text.efi_load_pe
                0x000000001103b9b4      0x314 lib/built-in.o
                0x000000001103b9b4                efi_load_pe
 .text.efi_mem_cmp
                0x000000001103bcc8       0x1c lib/built-in.o
 .text.efi_find_free_memory
                0x000000001103bce4       0x68 lib/built-in.o
 .text.efi_add_memory_map
                0x000000001103bd4c      0x2ac lib/built-in.o
                0x000000001103bd4c                efi_add_memory_map
 .text.efi_allocate_pages
                0x000000001103bff8       0xac lib/built-in.o
                0x000000001103bff8                efi_allocate_pages
 .text.efi_alloc
                0x000000001103c0a4       0x34 lib/built-in.o
                0x000000001103c0a4                efi_alloc
 .text.efi_free_pages
                0x000000001103c0d8       0x38 lib/built-in.o
                0x000000001103c0d8                efi_free_pages
 .text.efi_allocate_pool
                0x000000001103c110       0x78 lib/built-in.o
                0x000000001103c110                efi_allocate_pool
 .text.efi_free_pool
                0x000000001103c188       0x1c lib/built-in.o
                0x000000001103c188                efi_free_pool
 .text.efi_get_memory_map
                0x000000001103c1a4       0xe8 lib/built-in.o
                0x000000001103c1a4                efi_get_memory_map
 .text.efi_add_known_memory
                0x000000001103c28c       0xc0 lib/built-in.o
                0x000000001103c28c                efi_add_known_memory
 .text.efi_memory_init
                0x000000001103c34c       0x74 lib/built-in.o
                0x000000001103c34c                efi_memory_init
 .text.efi_root_node_register
                0x000000001103c3c0       0xf8 lib/built-in.o
                0x000000001103c3c0                efi_root_node_register
 .text.efi_reset_system_boottime
                0x000000001103c4b8       0x88 lib/built-in.o
 .text.efi_get_time_boottime
                0x000000001103c540       0x1c lib/built-in.o
 .text.efi_set_virtual_address_map
                0x000000001103c55c      0x190 lib/built-in.o
 .text.efi_add_runtime_mmio
                0x000000001103c6ec       0x90 lib/built-in.o
                0x000000001103c6ec                efi_add_runtime_mmio
 .text.metai_match
                0x000000001103c77c      0x11c lib/built-in.o
 .text.efi_str_to_fat
                0x000000001103c898       0xd8 lib/built-in.o
 .text.efi_fat_to_str
                0x000000001103c970       0x6c lib/built-in.o
 .text.efi_str_upr
                0x000000001103c9dc       0x34 lib/built-in.o
 .text.efi_metai_match
                0x000000001103ca10       0x3c lib/built-in.o
 .text.efi_stri_coll
                0x000000001103ca4c       0x7c lib/built-in.o
 .text.efi_str_lwr
                0x000000001103cac8       0x34 lib/built-in.o
 .text.hex      0x000000001103cafc       0x3c lib/built-in.o
 .text.efi_to_native
                0x000000001103cb38       0x9c lib/built-in.o
 .text.prefix   0x000000001103cbd4       0x50 lib/built-in.o
 .text.parse_attr.part.0
                0x000000001103cc24       0xc0 lib/built-in.o
 .text.efi_get_variable
                0x000000001103cce4      0x1d4 lib/built-in.o
                0x000000001103cce4                efi_get_variable
 .text.efi_get_next_variable_name
                0x000000001103ceb8       0x1c lib/built-in.o
                0x000000001103ceb8                efi_get_next_variable_name
 .text.efi_set_variable
                0x000000001103ced4      0x244 lib/built-in.o
                0x000000001103ced4                efi_set_variable
 .text.efi_watchdog_timer_notify
                0x000000001103d118       0x44 lib/built-in.o
 .text.efi_set_watchdog
                0x000000001103d15c       0x30 lib/built-in.o
                0x000000001103d15c                efi_set_watchdog
 .text.efi_watchdog_register
                0x000000001103d18c       0x80 lib/built-in.o
                0x000000001103d18c                efi_watchdog_register
 .text.gop_set_mode
                0x000000001103d20c       0x3c lib/built-in.o
 .text.gop_query_mode
                0x000000001103d248       0x44 lib/built-in.o
 .text.gop_blt  0x000000001103d28c      0x4d8 lib/built-in.o
                0x000000001103d28c                gop_blt
 .text.efi_gop_register
                0x000000001103d764      0x154 lib/built-in.o
                0x000000001103d764                efi_gop_register
 .text.efi_disk_flush_blocks
                0x000000001103d8b8       0x1c lib/built-in.o
 .text.efi_disk_reset
                0x000000001103d8d4       0x1c lib/built-in.o
 .text.efi_disk_add_dev.isra.0.part.0
                0x000000001103d8f0      0x1c8 lib/built-in.o
 .text.efi_disk_read_blocks
                0x000000001103dab8       0x94 lib/built-in.o
 .text.efi_disk_write_blocks
                0x000000001103db4c       0x94 lib/built-in.o
 .text.efi_fs_from_path
                0x000000001103dbe0       0x74 lib/built-in.o
                0x000000001103dbe0                efi_fs_from_path
 .text.efi_disk_create_partitions
                0x000000001103dc54       0xfc lib/built-in.o
                0x000000001103dc54                efi_disk_create_partitions
 .text.efi_disk_register
                0x000000001103dd50      0x12c lib/built-in.o
                0x000000001103dd50                efi_disk_register
 .text.efi_net_push
                0x000000001103de7c       0x1c lib/built-in.o
 .text.efi_network_timer_notify
                0x000000001103de98       0x58 lib/built-in.o
 .text.efi_net_nvdata
                0x000000001103def0       0x1c lib/built-in.o
 .text.efi_net_mcastiptomac
                0x000000001103df0c       0x20 lib/built-in.o
 .text.efi_net_statistics
                0x000000001103df2c       0x1c lib/built-in.o
 .text.efi_net_station_address
                0x000000001103df48       0x1c lib/built-in.o
 .text.efi_net_receive_filters
                0x000000001103df64       0x1c lib/built-in.o
 .text.efi_net_stop
                0x000000001103df80       0x54 lib/built-in.o
 .text.efi_net_start
                0x000000001103dfd4       0x58 lib/built-in.o
 .text.efi_net_get_status
                0x000000001103e02c       0xa8 lib/built-in.o
 .text.efi_net_receive
                0x000000001103e0d4      0x180 lib/built-in.o
 .text.efi_net_transmit
                0x000000001103e254       0xa8 lib/built-in.o
 .text.efi_net_shutdown
                0x000000001103e2fc       0x48 lib/built-in.o
 .text.efi_net_initialize
                0x000000001103e344       0x70 lib/built-in.o
 .text.efi_net_reset
                0x000000001103e3b4       0x44 lib/built-in.o
 .text.efi_net_set_dhcp_ack
                0x000000001103e3f8       0x54 lib/built-in.o
                0x000000001103e3f8                efi_net_set_dhcp_ack
 .text.efi_net_register
                0x000000001103e44c      0x294 lib/built-in.o
                0x000000001103e44c                efi_net_register
 .text.efi_smbios_register
                0x000000001103e6e0       0x70 lib/built-in.o
                0x000000001103e6e0                efi_smbios_register
 .text.LzmaDec_WriteRem
                0x000000001103e750       0xa0 lib/built-in.o
 .text.LzmaDec_DecodeReal2
                0x000000001103e7f0      0xbdc lib/built-in.o
 .text.LzmaDec_TryDummy
                0x000000001103f3cc      0x5e8 lib/built-in.o
 .text.LzmaDec_Init
                0x000000001103f9b4       0x1c lib/built-in.o
                0x000000001103f9b4                LzmaDec_Init
 .text.LzmaDec_DecodeToDic
                0x000000001103f9d0      0x330 lib/built-in.o
                0x000000001103f9d0                LzmaDec_DecodeToDic
 .text.LzmaDec_FreeProbs
                0x000000001103fd00       0x30 lib/built-in.o
                0x000000001103fd00                LzmaDec_FreeProbs
 .text.LzmaDec_AllocateProbs2
                0x000000001103fd30       0x84 lib/built-in.o
 .text.LzmaProps_Decode
                0x000000001103fdb4       0x84 lib/built-in.o
                0x000000001103fdb4                LzmaProps_Decode
 .text.LzmaDec_AllocateProbs
                0x000000001103fe38       0x50 lib/built-in.o
                0x000000001103fe38                LzmaDec_AllocateProbs
 .text.LzmaDecode
                0x000000001103fe88       0xf4 lib/built-in.o
                0x000000001103fe88                LzmaDecode
 .text.SzFree   0x000000001103ff7c        0x8 lib/built-in.o
 .text.SzAlloc  0x000000001103ff84        0x8 lib/built-in.o
 .text.lzmaBuffToBuffDecompress
                0x000000001103ff8c      0x108 lib/built-in.o
                0x000000001103ff8c                lzmaBuffToBuffDecompress
 .text.get_code
                0x0000000011040094       0xec lib/built-in.o
 .text.read_string
                0x0000000011040180       0x2c lib/built-in.o
 .text.read_console
                0x00000000110401ac       0x1c lib/built-in.o
 .text.console_read_unicode
                0x00000000110401c8       0x44 lib/built-in.o
                0x00000000110401c8                console_read_unicode
 .text.utf8_get
                0x000000001104020c       0x10 lib/built-in.o
                0x000000001104020c                utf8_get
 .text.utf8_put
                0x000000001104021c       0xd8 lib/built-in.o
                0x000000001104021c                utf8_put
 .text.utf8_utf16_strnlen
                0x00000000110402f4       0x74 lib/built-in.o
                0x00000000110402f4                utf8_utf16_strnlen
 .text.utf16_get
                0x0000000011040368       0x84 lib/built-in.o
                0x0000000011040368                utf16_get
 .text.utf16_put
                0x00000000110403ec       0x80 lib/built-in.o
                0x00000000110403ec                utf16_put
 .text.utf8_utf16_strncpy
                0x000000001104046c       0x88 lib/built-in.o
                0x000000001104046c                utf8_utf16_strncpy
 .text.utf16_strnlen
                0x00000000110404f4       0x48 lib/built-in.o
                0x00000000110404f4                utf16_strnlen
 .text.utf16_utf8_strnlen
                0x000000001104053c       0x80 lib/built-in.o
                0x000000001104053c                utf16_utf8_strnlen
 .text.utf16_utf8_strncpy
                0x00000000110405bc       0x78 lib/built-in.o
                0x00000000110405bc                utf16_utf8_strncpy
 .text.utf_to_lower
                0x0000000011040634       0x44 lib/built-in.o
                0x0000000011040634                utf_to_lower
 .text.utf_to_upper
                0x0000000011040678       0x44 lib/built-in.o
                0x0000000011040678                utf_to_upper
 .text.u16_strlen
                0x00000000110406bc       0x1c lib/built-in.o
                0x00000000110406bc                u16_strlen
 .text.utf16_to_utf8
                0x00000000110406d8      0x124 lib/built-in.o
                0x00000000110406d8                utf16_to_utf8
 .text.crc16_ccitt
                0x00000000110407fc       0x38 lib/built-in.o
                0x00000000110407fc                crc16_ccitt
 .text.smbios_write_type127
                0x0000000011040834       0x68 lib/built-in.o
 .text.smbios_write_type32
                0x000000001104089c       0x68 lib/built-in.o
 .text.smbios_string_table_len
                0x0000000011040904       0x44 lib/built-in.o
 .text.smbios_add_string
                0x0000000011040948       0x7c lib/built-in.o
 .text.smbios_write_type3
                0x00000000110409c4       0xa0 lib/built-in.o
 .text.smbios_write_type2
                0x0000000011040a64       0xb0 lib/built-in.o
 .text.smbios_write_type0
                0x0000000011040b14      0x104 lib/built-in.o
 .text.smbios_write_type1
                0x0000000011040c18       0xd4 lib/built-in.o
 .text.smbios_write_type4
                0x0000000011040cec       0xe8 lib/built-in.o
 .text.write_smbios_table
                0x0000000011040dd4      0x14c lib/built-in.o
                0x0000000011040dd4                write_smbios_table
 .text.initcall_run_list
                0x0000000011040f20       0x80 lib/built-in.o
                0x0000000011040f20                initcall_run_list
 .text.lmb_add_region
                0x0000000011040fa0      0x168 lib/built-in.o
 .text.lmb_init
                0x0000000011041108       0x18 lib/built-in.o
                0x0000000011041108                lmb_init
 .text.lmb_add  0x0000000011041120        0x4 lib/built-in.o
                0x0000000011041120                lmb_add
 .text.lmb_free
                0x0000000011041124       0xe0 lib/built-in.o
                0x0000000011041124                lmb_free
 .text.lmb_reserve
                0x0000000011041204        0x8 lib/built-in.o
                0x0000000011041204                lmb_reserve
 .text.__lmb_alloc_base
                0x000000001104120c      0x104 lib/built-in.o
                0x000000001104120c                __lmb_alloc_base
 .text.lmb_alloc_base
                0x0000000011041310       0x4c lib/built-in.o
                0x0000000011041310                lmb_alloc_base
 .text.lmb_alloc
                0x000000001104135c        0x8 lib/built-in.o
                0x000000001104135c                lmb_alloc
 .text.board_lmb_reserve
                0x0000000011041364        0x4 lib/built-in.o
                0x0000000011041364                board_lmb_reserve
 .text.string_to_ip
                0x0000000011041368       0xa0 lib/built-in.o
                0x0000000011041368                string_to_ip
 .text.merge    0x0000000011041408       0x8c lib/built-in.o
 .text.list_sort
                0x0000000011041494      0x1a0 lib/built-in.o
                0x0000000011041494                list_sort
 .text.zcalloc  0x0000000011041634        0x8 lib/built-in.o
                0x0000000011041634                zcalloc
 .text.zcfree   0x000000001104163c        0x8 lib/built-in.o
                0x000000001104163c                zcfree
 .text.inflate_fast
                0x0000000011041644      0x530 lib/built-in.o
                0x0000000011041644                inflate_fast
 .text.inflate_table
                0x0000000011041b74      0x43c lib/built-in.o
                0x0000000011041b74                inflate_table
 .text.inflateReset
                0x0000000011041fb0       0x60 lib/built-in.o
                0x0000000011041fb0                inflateReset
 .text.inflateInit2_
                0x0000000011042010      0x104 lib/built-in.o
                0x0000000011042010                inflateInit2_
 .text.inflateEnd
                0x0000000011042114       0x6c lib/built-in.o
                0x0000000011042114                inflateEnd
 .text.adler32  0x0000000011042180      0x314 lib/built-in.o
                0x0000000011042180                adler32
 .text.inflate  0x0000000011042494     0x133c lib/built-in.o
                0x0000000011042494                inflate
 .text.gzalloc  0x00000000110437d0       0x10 lib/built-in.o
                0x00000000110437d0                gzalloc
 .text.gzfree   0x00000000110437e0        0x8 lib/built-in.o
                0x00000000110437e0                gzfree
 .text.gzip_parse_header
                0x00000000110437e8       0xac lib/built-in.o
                0x00000000110437e8                gzip_parse_header
 .text.gzwrite_progress_init
                0x0000000011043894        0x8 lib/built-in.o
                0x0000000011043894                gzwrite_progress_init
 .text.gzwrite_progress
                0x000000001104389c       0x18 lib/built-in.o
                0x000000001104389c                gzwrite_progress
 .text.gzwrite_progress_finish
                0x00000000110438b4       0x28 lib/built-in.o
                0x00000000110438b4                gzwrite_progress_finish
 .text.gzwrite  0x00000000110438dc      0x3a8 lib/built-in.o
                0x00000000110438dc                gzwrite
 .text.zunzip   0x0000000011043c84      0x11c lib/built-in.o
                0x0000000011043c84                zunzip
 .text.gunzip   0x0000000011043da0       0x68 lib/built-in.o
                0x0000000011043da0                gunzip
 .text.fdt_check_header
                0x0000000011043e08       0x74 lib/built-in.o
                0x0000000011043e08                fdt_check_header
 .text.fdt_offset_ptr
                0x0000000011043e7c       0x68 lib/built-in.o
                0x0000000011043e7c                fdt_offset_ptr
 .text.fdt_next_tag
                0x0000000011043ee4      0x100 lib/built-in.o
                0x0000000011043ee4                fdt_next_tag
 .text.fdt_check_node_offset_
                0x0000000011043fe4       0x40 lib/built-in.o
                0x0000000011043fe4                fdt_check_node_offset_
 .text.fdt_check_prop_offset_
                0x0000000011044024       0x40 lib/built-in.o
                0x0000000011044024                fdt_check_prop_offset_
 .text.fdt_next_node
                0x0000000011044064       0xb0 lib/built-in.o
                0x0000000011044064                fdt_next_node
 .text.fdt_first_subnode
                0x0000000011044114       0x34 lib/built-in.o
                0x0000000011044114                fdt_first_subnode
 .text.fdt_next_subnode
                0x0000000011044148       0x50 lib/built-in.o
                0x0000000011044148                fdt_next_subnode
 .text.fdt_find_string_
                0x0000000011044198       0x70 lib/built-in.o
                0x0000000011044198                fdt_find_string_
 .text.fdt_move
                0x0000000011044208       0x5c lib/built-in.o
                0x0000000011044208                fdt_move
 .text.fdt_setprop_inplace_namelen_partial
                0x0000000011044264       0x68 lib/built-in.o
                0x0000000011044264                fdt_setprop_inplace_namelen_partial
 .text.fdt_setprop_inplace
                0x00000000110442cc       0x8c lib/built-in.o
                0x00000000110442cc                fdt_setprop_inplace
 .text.fdt_node_end_offset_
                0x0000000011044358       0x48 lib/built-in.o
                0x0000000011044358                fdt_node_end_offset_
 .text.fdt_strerror
                0x00000000110443a0       0x4c lib/built-in.o
                0x00000000110443a0                fdt_strerror
 .text.fdt_blocks_misordered_
                0x00000000110443ec       0x60 lib/built-in.o
 .text.fdt_splice_
                0x000000001104444c       0x94 lib/built-in.o
 .text.fdt_splice_mem_rsv_
                0x00000000110444e0       0x60 lib/built-in.o
 .text.fdt_splice_struct_
                0x0000000011044540       0x60 lib/built-in.o
 .text.fdt_packblocks_
                0x00000000110445a0       0xb0 lib/built-in.o
 .text.fdt_add_property_
                0x0000000011044650      0x154 lib/built-in.o
 .text.fdt_rw_check_header_
                0x00000000110447a4       0x6c lib/built-in.o
 .text.fdt_add_mem_rsv
                0x0000000011044810       0x7c lib/built-in.o
                0x0000000011044810                fdt_add_mem_rsv
 .text.fdt_del_mem_rsv
                0x000000001104488c       0x70 lib/built-in.o
                0x000000001104488c                fdt_del_mem_rsv
 .text.fdt_set_name
                0x00000000110448fc       0xac lib/built-in.o
                0x00000000110448fc                fdt_set_name
 .text.fdt_setprop_placeholder
                0x00000000110449a8       0xd8 lib/built-in.o
                0x00000000110449a8                fdt_setprop_placeholder
 .text.fdt_setprop
                0x0000000011044a80       0x54 lib/built-in.o
                0x0000000011044a80                fdt_setprop
 .text.fdt_delprop
                0x0000000011044ad4       0x6c lib/built-in.o
                0x0000000011044ad4                fdt_delprop
 .text.fdt_add_subnode_namelen
                0x0000000011044b40      0x11c lib/built-in.o
                0x0000000011044b40                fdt_add_subnode_namelen
 .text.fdt_add_subnode
                0x0000000011044c5c       0x44 lib/built-in.o
                0x0000000011044c5c                fdt_add_subnode
 .text.fdt_del_node
                0x0000000011044ca0       0x60 lib/built-in.o
                0x0000000011044ca0                fdt_del_node
 .text.fdt_open_into
                0x0000000011044d00      0x19c lib/built-in.o
                0x0000000011044d00                fdt_open_into
 .text.fdt_address_cells
                0x0000000011044e9c       0x58 lib/built-in.o
                0x0000000011044e9c                fdt_address_cells
 .text.fdt_size_cells
                0x0000000011044ef4       0x54 lib/built-in.o
                0x0000000011044ef4                fdt_size_cells
 .text.overlay_phandle_add_offset
                0x0000000011044f48       0x94 lib/built-in.o
 .text.overlay_adjust_node_phandles
                0x0000000011044fdc       0xa8 lib/built-in.o
 .text.overlay_update_local_node_references
                0x0000000011045084      0x1ac lib/built-in.o
 .text.overlay_get_target
                0x0000000011045230       0xdc lib/built-in.o
 .text.overlay_apply_node
                0x000000001104530c      0x12c lib/built-in.o
 .text.fdt_overlay_apply
                0x0000000011045438      0x678 lib/built-in.o
                0x0000000011045438                fdt_overlay_apply
 .text.fdt_path_next_separator
                0x0000000011045ab0       0x68 lib/built-in.o
 .text._nextprop
                0x0000000011045b18       0x64 lib/built-in.o
 .text.fdt_string
                0x0000000011045b7c       0x14 lib/built-in.o
                0x0000000011045b7c                fdt_string
 .text.fdt_get_mem_rsv
                0x0000000011045b90       0x68 lib/built-in.o
                0x0000000011045b90                fdt_get_mem_rsv
 .text.fdt_num_mem_rsv
                0x0000000011045bf8       0x28 lib/built-in.o
                0x0000000011045bf8                fdt_num_mem_rsv
 .text.fdt_subnode_offset_namelen
                0x0000000011045c20       0xe0 lib/built-in.o
                0x0000000011045c20                fdt_subnode_offset_namelen
 .text.fdt_subnode_offset
                0x0000000011045d00       0x44 lib/built-in.o
                0x0000000011045d00                fdt_subnode_offset
 .text.fdt_get_name
                0x0000000011045d44       0x84 lib/built-in.o
                0x0000000011045d44                fdt_get_name
 .text.fdt_first_property_offset
                0x0000000011045dc8       0x38 lib/built-in.o
                0x0000000011045dc8                fdt_first_property_offset
 .text.fdt_next_property_offset
                0x0000000011045e00       0x38 lib/built-in.o
                0x0000000011045e00                fdt_next_property_offset
 .text.fdt_get_property_by_offset
                0x0000000011045e38       0x64 lib/built-in.o
                0x0000000011045e38                fdt_get_property_by_offset
 .text.fdt_get_property_namelen
                0x0000000011045e9c       0xd4 lib/built-in.o
                0x0000000011045e9c                fdt_get_property_namelen
 .text.fdt_get_property
                0x0000000011045f70       0x4c lib/built-in.o
                0x0000000011045f70                fdt_get_property
 .text.fdt_getprop_namelen
                0x0000000011045fbc       0x1c lib/built-in.o
                0x0000000011045fbc                fdt_getprop_namelen
 .text.fdt_getprop_by_offset
                0x0000000011045fd8       0x50 lib/built-in.o
                0x0000000011045fd8                fdt_getprop_by_offset
 .text.fdt_getprop
                0x0000000011046028       0x4c lib/built-in.o
                0x0000000011046028                fdt_getprop
 .text.fdt_get_phandle
                0x0000000011046074       0x78 lib/built-in.o
                0x0000000011046074                fdt_get_phandle
 .text.fdt_get_max_phandle
                0x00000000110460ec       0x80 lib/built-in.o
                0x00000000110460ec                fdt_get_max_phandle
 .text.fdt_get_alias_namelen
                0x000000001104616c       0x64 lib/built-in.o
                0x000000001104616c                fdt_get_alias_namelen
 .text.fdt_path_offset_namelen
                0x00000000110461d0       0xfc lib/built-in.o
                0x00000000110461d0                fdt_path_offset_namelen
 .text.fdt_path_offset
                0x00000000110462cc       0x34 lib/built-in.o
                0x00000000110462cc                fdt_path_offset
 .text.fdt_get_path
                0x0000000011046300      0x17c lib/built-in.o
                0x0000000011046300                fdt_get_path
 .text.fdt_supernode_atdepth_offset
                0x000000001104647c       0xb8 lib/built-in.o
                0x000000001104647c                fdt_supernode_atdepth_offset
 .text.fdt_node_depth
                0x0000000011046534       0x30 lib/built-in.o
                0x0000000011046534                fdt_node_depth
 .text.fdt_parent_offset
                0x0000000011046564       0x44 lib/built-in.o
                0x0000000011046564                fdt_parent_offset
 .text.fdt_node_offset_by_phandle
                0x00000000110465a8       0x84 lib/built-in.o
                0x00000000110465a8                fdt_node_offset_by_phandle
 .text.fdt_stringlist_search
                0x000000001104662c       0xc4 lib/built-in.o
                0x000000001104662c                fdt_stringlist_search
 .text.fdtdec_get_int
                0x00000000110466f0       0x40 lib/built-in.o
                0x00000000110466f0                fdtdec_get_int
 .text.get_prop_check_min_len
                0x0000000011046730       0x48 lib/built-in.o
 .text.fdtdec_get_is_enabled
                0x0000000011046778       0x40 lib/built-in.o
                0x0000000011046778                fdtdec_get_is_enabled
 .text.fdtdec_get_alias_seq
                0x00000000110467b8      0x128 lib/built-in.o
                0x00000000110467b8                fdtdec_get_alias_seq
 .text.fdtdec_get_chosen_prop
                0x00000000110468e0       0x44 lib/built-in.o
                0x00000000110468e0                fdtdec_get_chosen_prop
 .text.fdtdec_get_chosen_node
                0x0000000011046924       0x3c lib/built-in.o
                0x0000000011046924                fdtdec_get_chosen_node
 .text.fdtdec_prepare_fdt
                0x0000000011046960       0x44 lib/built-in.o
                0x0000000011046960                fdtdec_prepare_fdt
 .text.fdtdec_get_int_array
                0x00000000110469a4       0x60 lib/built-in.o
                0x00000000110469a4                fdtdec_get_int_array
 .text.fdtdec_parse_phandle_with_args
                0x0000000011046a04      0x150 lib/built-in.o
                0x0000000011046a04                fdtdec_parse_phandle_with_args
 .text.fdtdec_get_config_int
                0x0000000011046b54       0x60 lib/built-in.o
                0x0000000011046b54                fdtdec_get_config_int
 .text.fdtdec_get_config_string
                0x0000000011046bb4       0x4c lib/built-in.o
                0x0000000011046bb4                fdtdec_get_config_string
 .text.fdtdec_setup
                0x0000000011046c00       0x34 lib/built-in.o
                0x0000000011046c00                fdtdec_setup
 .text.qsort    0x0000000011046c34       0xf8 lib/built-in.o
                0x0000000011046c34                qsort
 .text.strcmp_compar
                0x0000000011046d2c        0xc lib/built-in.o
                0x0000000011046d2c                strcmp_compar
 .text.cmpkey   0x0000000011046d38       0x14 lib/built-in.o
 .text._hdelete.isra.0
                0x0000000011046d4c       0x64 lib/built-in.o
 .text.drop_var_from_set.part.0
                0x0000000011046db0       0x6c lib/built-in.o
 .text.match_string
                0x0000000011046e1c       0xd0 lib/built-in.o
 .text.match_entry
                0x0000000011046eec       0xd4 lib/built-in.o
 .text.hcreate_r
                0x0000000011046fc0       0x98 lib/built-in.o
                0x0000000011046fc0                hcreate_r
 .text.hdestroy_r
                0x0000000011047058       0x88 lib/built-in.o
                0x0000000011047058                hdestroy_r
 .text.hmatch_r
                0x00000000110470e0       0xb8 lib/built-in.o
                0x00000000110470e0                hmatch_r
 .text.hsearch_r
                0x0000000011047198      0x428 lib/built-in.o
                0x0000000011047198                hsearch_r
 .text.hdelete_r
                0x00000000110475c0       0xf4 lib/built-in.o
                0x00000000110475c0                hdelete_r
 .text.hexport_r
                0x00000000110476b4      0x28c lib/built-in.o
                0x00000000110476b4                hexport_r
 .text.himport_r
                0x0000000011047940      0x3b4 lib/built-in.o
                0x0000000011047940                himport_r
 .text.hwalk_r  0x0000000011047cf4       0x70 lib/built-in.o
                0x0000000011047cf4                hwalk_r
 .text.display_options_get_banner_priv
                0x0000000011047d64       0xb8 lib/built-in.o
                0x0000000011047d64                display_options_get_banner_priv
 .text.display_options_get_banner
                0x0000000011047e1c       0x10 lib/built-in.o
                0x0000000011047e1c                display_options_get_banner
 .text.display_options
                0x0000000011047e2c       0x34 lib/built-in.o
                0x0000000011047e2c                display_options
 .text.print_size
                0x0000000011047e60       0xe4 lib/built-in.o
                0x0000000011047e60                print_size
 .text.print_buffer
                0x0000000011047f44      0x214 lib/built-in.o
                0x0000000011047f44                print_buffer
 .text.crc32_wd
                0x0000000011048158        0x4 lib/built-in.o
                0x0000000011048158                crc32_wd
 .text.hang     0x000000001104815c       0x20 lib/built-in.o
                0x000000001104815c                hang
 .text.skip_spaces
                0x000000001104817c       0x20 lib/built-in.o
                0x000000001104817c                skip_spaces
 .text.strim    0x000000001104819c       0x5c lib/built-in.o
                0x000000001104819c                strim
 .text.emit     0x00000000110481f8       0x2c lib/built-in.o
 .text.store_char_in_data
                0x0000000011048224       0x30 lib/built-in.o
 .text.get_escape_char
                0x0000000011048254       0x98 lib/built-in.o
 .text.relocate
                0x00000000110482ec       0x58 lib/built-in.o
 .text.match    0x0000000011048344      0x3f0 lib/built-in.o
 .text.loop_greedy
                0x0000000011048734       0xb4 lib/built-in.o
 .text.loop_non_greedy
                0x00000000110487e8       0xa0 lib/built-in.o
 .text.quantifier
                0x0000000011048888       0xbc lib/built-in.o
 .text.fixup_branch
                0x0000000011048944       0x54 lib/built-in.o
 .text.compile  0x0000000011048998      0x37c lib/built-in.o
 .text.slre_compile
                0x0000000011048d14       0xd4 lib/built-in.o
                0x0000000011048d14                slre_compile
 .text.slre_match
                0x0000000011048de8       0xa4 lib/built-in.o
                0x0000000011048de8                slre_match
 .text.strncasecmp
                0x0000000011048e8c       0x74 lib/built-in.o
                0x0000000011048e8c                strncasecmp
 .text.strcasecmp
                0x0000000011048f00        0x8 lib/built-in.o
                0x0000000011048f00                strcasecmp
 .text.strcpy   0x0000000011048f08       0x18 lib/built-in.o
                0x0000000011048f08                strcpy
 .text.strncpy  0x0000000011048f20       0x20 lib/built-in.o
                0x0000000011048f20                strncpy
 .text.strcat   0x0000000011048f40       0x2c lib/built-in.o
                0x0000000011048f40                strcat
 .text.strncat  0x0000000011048f6c       0x3c lib/built-in.o
                0x0000000011048f6c                strncat
 .text.strcmp   0x0000000011048fa8       0x28 lib/built-in.o
                0x0000000011048fa8                strcmp
 .text.strncmp  0x0000000011048fd0       0x38 lib/built-in.o
                0x0000000011048fd0                strncmp
 .text.strchr   0x0000000011049008       0x28 lib/built-in.o
                0x0000000011049008                strchr
 .text.strlen   0x0000000011049030       0x1c lib/built-in.o
                0x0000000011049030                strlen
 .text.strrchr  0x000000001104904c       0x40 lib/built-in.o
                0x000000001104904c                strrchr
 .text.strnlen  0x000000001104908c       0x28 lib/built-in.o
                0x000000001104908c                strnlen
 .text.strdup   0x00000000110490b4       0x4c lib/built-in.o
                0x00000000110490b4                strdup
 .text.memset   0x0000000011049100       0x6c lib/built-in.o
                0x0000000011049100                memset
 .text.memcpy   0x000000001104916c       0x68 lib/built-in.o
                0x000000001104916c                memcpy
 .text.strlcpy  0x00000000110491d4       0x50 lib/built-in.o
                0x00000000110491d4                strlcpy
 .text.memmove  0x0000000011049224       0x58 lib/built-in.o
                0x0000000011049224                memmove
 .text.memcmp   0x000000001104927c       0x30 lib/built-in.o
                0x000000001104927c                memcmp
 .text.memscan  0x00000000110492ac       0x24 lib/built-in.o
                0x00000000110492ac                memscan
 .text.strstr   0x00000000110492d0       0x64 lib/built-in.o
                0x00000000110492d0                strstr
 .text.memchr   0x0000000011049334       0x30 lib/built-in.o
                0x0000000011049334                memchr
 .text.timer_init
                0x0000000011049364        0x8 lib/built-in.o
                0x0000000011049364                timer_init
 .text.get_timer
                0x000000001104936c       0x3c lib/built-in.o
                0x000000001104936c                get_timer
 .text.timer_get_us
                0x00000000110493a8       0x38 lib/built-in.o
                0x00000000110493a8                timer_get_us
 .text.__udelay
                0x00000000110493e0       0x4c lib/built-in.o
                0x00000000110493e0                __udelay
 .text.udelay   0x000000001104942c       0x44 lib/built-in.o
                0x000000001104942c                udelay
 .text.uuid_str_valid
                0x0000000011049470       0x84 lib/built-in.o
                0x0000000011049470                uuid_str_valid
 .text.uuid_str_to_bin
                0x00000000110494f4      0x18c lib/built-in.o
                0x00000000110494f4                uuid_str_to_bin
 .text.uuid_bin_to_str
                0x0000000011049680       0xd8 lib/built-in.o
                0x0000000011049680                uuid_bin_to_str
 .text.panic_finish
                0x0000000011049758       0x34 lib/built-in.o
 .text.panic    0x000000001104978c       0x74 lib/built-in.o
                0x000000001104978c                panic
 .text.put_dec_trunc
                0x0000000011049800       0xe0 lib/built-in.o
 .text.put_dec  0x00000000110498e0       0xd0 lib/built-in.o
 .text.number   0x00000000110499b0      0x2e4 lib/built-in.o
 .text.string16
                0x0000000011049c94       0xec lib/built-in.o
 .text.string   0x0000000011049d80      0x124 lib/built-in.o
 .text.vsnprintf_internal
                0x0000000011049ea4      0xa58 lib/built-in.o
 .text.vscnprintf
                0x000000001104a8fc       0x74 lib/built-in.o
                0x000000001104a8fc                vscnprintf
 .text.snprintf
                0x000000001104a970       0x7c lib/built-in.o
                0x000000001104a970                snprintf
 .text.vsprintf
                0x000000001104a9ec       0x44 lib/built-in.o
                0x000000001104a9ec                vsprintf
 .text.sprintf  0x000000001104aa30       0x74 lib/built-in.o
                0x000000001104aa30                sprintf
 .text.printf   0x000000001104aaa4       0xb4 lib/built-in.o
                0x000000001104aaa4                printf
 .text.vprintf  0x000000001104ab58       0x58 lib/built-in.o
                0x000000001104ab58                vprintf
 .text.simple_itoa
                0x000000001104abb0       0x40 lib/built-in.o
                0x000000001104abb0                simple_itoa
 .text._parse_integer_fixup_radix
                0x000000001104abf0       0xb4 lib/built-in.o
 .text.simple_strtoul
                0x000000001104aca4       0x9c lib/built-in.o
                0x000000001104aca4                simple_strtoul
 .text.strict_strtoul
                0x000000001104ad40       0x88 lib/built-in.o
                0x000000001104ad40                strict_strtoul
 .text.simple_strtol
                0x000000001104adc8       0x2c lib/built-in.o
                0x000000001104adc8                simple_strtol
 .text.ustrtoul
                0x000000001104adf4       0x90 lib/built-in.o
                0x000000001104adf4                ustrtoul
 .text.simple_strtoull
                0x000000001104ae84       0x9c lib/built-in.o
                0x000000001104ae84                simple_strtoull
 .text.ustrtoull
                0x000000001104af20       0x90 lib/built-in.o
                0x000000001104af20                ustrtoull
 .text.trailing_strtoln
                0x000000001104afb0       0x78 lib/built-in.o
                0x000000001104afb0                trailing_strtoln
 .text.trailing_strtol
                0x000000001104b028        0x8 lib/built-in.o
                0x000000001104b028                trailing_strtol
 .text.compute_ip_checksum
                0x000000001104b030       0x88 net/built-in.o
                0x000000001104b030                compute_ip_checksum
 .text.ip_checksum_ok
                0x000000001104b0b8       0x1c net/built-in.o
                0x000000001104b0b8                ip_checksum_ok
 .text.arp_init
                0x000000001104b0d4       0x3c net/built-in.o
                0x000000001104b0d4                arp_init
 .text.arp_raw_request
                0x000000001104b110       0xe8 net/built-in.o
                0x000000001104b110                arp_raw_request
 .text.arp_request
                0x000000001104b1f8       0x84 net/built-in.o
                0x000000001104b1f8                arp_request
 .text.arp_timeout_check
                0x000000001104b27c       0x90 net/built-in.o
                0x000000001104b27c                arp_timeout_check
 .text.arp_receive
                0x000000001104b30c      0x240 net/built-in.o
                0x000000001104b30c                arp_receive
 .text.arp_is_waiting
                0x000000001104b54c       0x14 net/built-in.o
                0x000000001104b54c                arp_is_waiting
 .text.dhcp_extended
                0x000000001104b560      0x268 net/built-in.o
 .text.dhcp_process_options
                0x000000001104b7c8      0x200 net/built-in.o
 .text.dhcp_packet_process_options
                0x000000001104b9c8       0x88 net/built-in.o
 .text.dhcp_handler
                0x000000001104ba50      0x3cc net/built-in.o
 .text.bootp_reset
                0x000000001104be1c       0x3c net/built-in.o
                0x000000001104be1c                bootp_reset
 .text.bootp_request
                0x000000001104be58      0x26c net/built-in.o
                0x000000001104be58                bootp_request
 .text.bootp_timeout_handler
                0x000000001104c0c4       0x68 net/built-in.o
 .text.dhcp_request
                0x000000001104c12c        0x4 net/built-in.o
                0x000000001104c12c                dhcp_request
 .text.eth_get_uclass_priv
                0x000000001104c130       0x24 net/built-in.o
 .text.eth_pre_remove
                0x000000001104c154       0x40 net/built-in.o
 .text.eth_post_probe
                0x000000001104c194      0x194 net/built-in.o
 .text.eth_write_hwaddr
                0x000000001104c328       0xdc net/built-in.o
 .text.on_ethaddr
                0x000000001104c404       0x8c net/built-in.o
 .text.eth_post_bind
                0x000000001104c490       0x48 net/built-in.o
 .text.eth_set_current_to_next
                0x000000001104c4d8       0x48 net/built-in.o
                0x000000001104c4d8                eth_set_current_to_next
 .text.eth_get_dev
                0x000000001104c520       0x40 net/built-in.o
                0x000000001104c520                eth_get_dev
 .text.eth_set_dev
                0x000000001104c560       0x44 net/built-in.o
                0x000000001104c560                eth_set_dev
 .text.eth_pre_unbind
                0x000000001104c5a4       0x38 net/built-in.o
 .text.eth_get_dev_by_name
                0x000000001104c5dc       0xf8 net/built-in.o
                0x000000001104c5dc                eth_get_dev_by_name
 .text.eth_get_ethaddr
                0x000000001104c6d4       0x24 net/built-in.o
                0x000000001104c6d4                eth_get_ethaddr
 .text.eth_halt_state_only
                0x000000001104c6f8       0x2c net/built-in.o
                0x000000001104c6f8                eth_halt_state_only
 .text.eth_get_dev_index
                0x000000001104c724       0x28 net/built-in.o
                0x000000001104c724                eth_get_dev_index
 .text.eth_init
                0x000000001104c74c       0xf8 net/built-in.o
                0x000000001104c74c                eth_init
 .text.eth_is_active
                0x000000001104c844       0x34 net/built-in.o
                0x000000001104c844                eth_is_active
 .text.eth_halt
                0x000000001104c878       0x50 net/built-in.o
                0x000000001104c878                eth_halt
 .text.eth_send
                0x000000001104c8c8       0x74 net/built-in.o
                0x000000001104c8c8                eth_send
 .text.eth_rx   0x000000001104c93c       0xc8 net/built-in.o
                0x000000001104c93c                eth_rx
 .text.eth_initialize
                0x000000001104ca04      0x118 net/built-in.o
                0x000000001104ca04                eth_initialize
 .text.eth_env_get_enetaddr_by_index
                0x000000001104cb1c       0x50 net/built-in.o
                0x000000001104cb1c                eth_env_get_enetaddr_by_index
 .text.eth_env_set_enetaddr_by_index
                0x000000001104cb6c       0x50 net/built-in.o
                0x000000001104cb6c                eth_env_set_enetaddr_by_index
 .text.eth_common_init
                0x000000001104cbbc       0x1c net/built-in.o
                0x000000001104cbbc                eth_common_init
 .text.eth_mac_skip
                0x000000001104cbd8       0x44 net/built-in.o
                0x000000001104cbd8                eth_mac_skip
 .text.eth_get_name
                0x000000001104cc1c       0x2c net/built-in.o
                0x000000001104cc1c                eth_get_name
 .text.eth_current_changed
                0x000000001104cc48       0x94 net/built-in.o
                0x000000001104cc48                eth_current_changed
 .text.eth_try_another
                0x000000001104ccdc       0x80 net/built-in.o
                0x000000001104ccdc                eth_try_another
 .text.eth_set_current
                0x000000001104cd5c       0x8c net/built-in.o
                0x000000001104cd5c                eth_set_current
 .text.net_clear_handlers
                0x000000001104cde8       0x24 net/built-in.o
 .text.start_again_timeout_handler
                0x000000001104ce0c       0x10 net/built-in.o
 .text.dummy_handler
                0x000000001104ce1c        0x4 net/built-in.o
 .text.on_ipaddr
                0x000000001104ce20       0x30 net/built-in.o
 .text.on_gatewayip
                0x000000001104ce50       0x30 net/built-in.o
 .text.on_netmask
                0x000000001104ce80       0x30 net/built-in.o
 .text.on_serverip
                0x000000001104ceb0       0x30 net/built-in.o
 .text.net_init_loop.part.0
                0x000000001104cee0       0x24 net/built-in.o
 .text.net_init
                0x000000001104cf04       0x84 net/built-in.o
                0x000000001104cf04                net_init
 .text.net_start_again
                0x000000001104cf88      0x150 net/built-in.o
                0x000000001104cf88                net_start_again
 .text.net_set_udp_handler
                0x000000001104d0d8       0x18 net/built-in.o
                0x000000001104d0d8                net_set_udp_handler
 .text.net_get_arp_handler
                0x000000001104d0f0        0xc net/built-in.o
                0x000000001104d0f0                net_get_arp_handler
 .text.net_set_timeout_handler
                0x000000001104d0fc       0x54 net/built-in.o
                0x000000001104d0fc                net_set_timeout_handler
 .text.net_get_async_tx_pkt_buf
                0x000000001104d150       0x2c net/built-in.o
                0x000000001104d150                net_get_async_tx_pkt_buf
 .text.net_process_received_packet
                0x000000001104d17c      0x2e4 net/built-in.o
                0x000000001104d17c                net_process_received_packet
 .text.net_eth_hdr_size
                0x000000001104d460       0x40 net/built-in.o
                0x000000001104d460                net_eth_hdr_size
 .text.net_set_ether
                0x000000001104d4a0       0xc0 net/built-in.o
                0x000000001104d4a0                net_set_ether
 .text.net_update_ether
                0x000000001104d560       0xa8 net/built-in.o
                0x000000001104d560                net_update_ether
 .text.net_set_ip_header
                0x000000001104d608       0xb4 net/built-in.o
                0x000000001104d608                net_set_ip_header
 .text.net_set_udp_header
                0x000000001104d6bc       0x90 net/built-in.o
                0x000000001104d6bc                net_set_udp_header
 .text.net_send_ip_packet
                0x000000001104d74c      0x128 net/built-in.o
                0x000000001104d74c                net_send_ip_packet
 .text.net_send_udp_packet
                0x000000001104d874       0x2c net/built-in.o
                0x000000001104d874                net_send_udp_packet
 .text.copy_filename
                0x000000001104d8a0       0x4c net/built-in.o
                0x000000001104d8a0                copy_filename
 .text.is_serverip_in_cmd
                0x000000001104d8ec       0x28 net/built-in.o
                0x000000001104d8ec                is_serverip_in_cmd
 .text.net_check_prereq
                0x000000001104d914       0xf8 net/built-in.o
 .text.net_auto_load
                0x000000001104da0c       0xac net/built-in.o
                0x000000001104da0c                net_auto_load
 .text.net_loop
                0x000000001104dab8      0x288 net/built-in.o
                0x000000001104dab8                net_loop
 .text.net_parse_bootfile
                0x000000001104dd40       0x98 net/built-in.o
                0x000000001104dd40                net_parse_bootfile
 .text.ip_to_string
                0x000000001104ddd8       0x28 net/built-in.o
                0x000000001104ddd8                ip_to_string
 .text.string_to_vlan
                0x000000001104de00       0x58 net/built-in.o
                0x000000001104de00                string_to_vlan
 .text.on_nvlan
                0x000000001104de58       0x30 net/built-in.o
 .text.on_vlan  0x000000001104de88       0x30 net/built-in.o
 .text.rpc_lookup_reply
                0x000000001104deb8       0xb4 net/built-in.o
 .text.nfs_mount_reply
                0x000000001104df6c       0x94 net/built-in.o
 .text.nfs_umountall_reply
                0x000000001104e000       0x88 net/built-in.o
 .text.nfs_lookup_reply
                0x000000001104e088      0x100 net/built-in.o
 .text.nfs3_get_attributes_offset
                0x000000001104e188       0x14 net/built-in.o
 .text.nfs_readlink_reply
                0x000000001104e19c      0x138 net/built-in.o
 .text.basename
                0x000000001104e2d4       0x48 net/built-in.o
 .text.rpc_req  0x000000001104e31c      0x120 net/built-in.o
 .text.nfs_read_req
                0x000000001104e43c       0xe4 net/built-in.o
 .text.nfs_read_reply.isra.0
                0x000000001104e520      0x170 net/built-in.o
 .text.nfs_readlink_req
                0x000000001104e690       0xc0 net/built-in.o
 .text.nfs_mount_req
                0x000000001104e750       0xb4 net/built-in.o
 .text.nfs_umountall_req
                0x000000001104e804       0x6c net/built-in.o
 .text.nfs_lookup_req
                0x000000001104e870      0x144 net/built-in.o
 .text.nfs_send
                0x000000001104e9b4      0x104 net/built-in.o
 .text.nfs_handler
                0x000000001104eab8      0x23c net/built-in.o
 .text.nfs_timeout_handler
                0x000000001104ecf4       0x6c net/built-in.o
 .text.nfs_start
                0x000000001104ed60      0x1d4 net/built-in.o
                0x000000001104ed60                nfs_start
 .text.ping_timeout_handler
                0x000000001104ef34       0x20 net/built-in.o
 .text.ping_start
                0x000000001104ef54      0x110 net/built-in.o
                0x000000001104ef54                ping_start
 .text.ping_receive
                0x000000001104f064      0x128 net/built-in.o
                0x000000001104f064                ping_receive
 .text.tftp_send
                0x000000001104f18c      0x1d0 net/built-in.o
 .text.tftp_handler
                0x000000001104f35c      0x48c net/built-in.o
 .text.tftp_timeout_handler
                0x000000001104f7e8       0x84 net/built-in.o
 .text.tftp_start
                0x000000001104f86c      0x300 net/built-in.o
                0x000000001104f86c                tftp_start
                0x000000001104fb70                . = ALIGN (0x8)

.rodata         0x000000001104fb70    0x128d7
 *(SORT_BY_ALIGNMENT(SORT_BY_NAME(.rodata*)))
 .rodata.CSWTCH.26
                0x000000001104fb70       0x40 disk/built-in.o
 .rodata.CSWTCH.27
                0x000000001104fbb0       0x40 common/built-in.o
 .rodata.CSWTCH.40
                0x000000001104fbf0       0x28 cmd/built-in.o
 .rodata.bcm2835_match
                0x000000001104fc18       0x20 drivers/built-in.o
 .rodata.bcm2835_ops
                0x000000001104fc38       0x88 drivers/built-in.o
 .rodata.bcm2835_pinctrl_id
                0x000000001104fcc0       0x20 drivers/built-in.o
 .rodata.bcm2835_sdhci_match
                0x000000001104fce0       0x20 drivers/built-in.o
 .rodata.bcm2835_video_ids
                0x000000001104fd00       0x30 drivers/built-in.o
 .rodata.bcm283x_mu_serial_id
                0x000000001104fd30       0x20 drivers/serial/built-in.o
 .rodata.bcm283x_mu_serial_ops
                0x000000001104fd50       0x40 drivers/serial/built-in.o
 .rodata.bcm283x_pl011_serial_id
                0x000000001104fd90       0x20 drivers/serial/built-in.o
 .rodata.bcm283x_pl011_serial_ops
                0x000000001104fdb0       0x40 drivers/serial/built-in.o
 .rodata.boot_os
                0x000000001104fdf0       0xc0 common/built-in.o
 .rodata.desc_and_len_tbl
                0x000000001104feb0       0x60 cmd/built-in.o
 .rodata.driver_ops
                0x000000001104ff10       0x18 lib/built-in.o
 .rodata.dwc2_usb_ids
                0x000000001104ff28       0x40 drivers/usb/host/built-in.o
 .rodata.efi_blk_ops
                0x000000001104ff68       0x20 lib/built-in.o
 .rodata.efi_device_path_to_text
                0x000000001104ff88       0x10 lib/built-in.o
                0x000000001104ff88                efi_device_path_to_text
 .rodata.efi_device_path_utilities
                0x000000001104ff98       0x40 lib/built-in.o
                0x000000001104ff98                efi_device_path_utilities
 .rodata.efi_file_handle_protocol
                0x000000001104ffd8       0x58 lib/built-in.o
 .rodata.efi_unicode_collation_protocol
                0x0000000011050030       0x38 lib/built-in.o
                0x0000000011050030                efi_unicode_collation_protocol
 .rodata.fdt_errtable
                0x0000000011050068       0x90 lib/built-in.o
 .rodata.fdt_member_table
                0x00000000110500f8       0x50 cmd/built-in.o
 .rodata.generic_simple_bus_ids
                0x0000000011050148       0x30 drivers/built-in.o
 .rodata.gpio_bcm2835_ops
                0x0000000011050178       0x50 drivers/gpio/built-in.o
 .rodata.gpio_function
                0x00000000110501c8       0x28 drivers/gpio/built-in.o
 .rodata.hub_id_table
                0x00000000110501f0       0x40 common/built-in.o
 .rodata.if_typename_str
                0x0000000011050230       0x68 drivers/built-in.o
 .rodata.init_sequence_f
                0x0000000011050298      0x158 common/built-in.o
 .rodata.kbd_id_table
                0x00000000110503f0       0x40 common/built-in.o
 .rodata.keywords
                0x0000000011050430      0x130 cmd/built-in.o
 .rodata.lan78xx_eth_id_table
                0x0000000011050560       0x60 drivers/usb/eth/built-in.o
 .rodata.lan78xx_eth_ops
                0x00000000110505c0       0x38 drivers/usb/eth/built-in.o
 .rodata.mass_storage_id_table
                0x00000000110505f8       0x40 common/built-in.o
 .rodata.mmc_blk_ops
                0x0000000011050638       0x20 drivers/built-in.o
 .rodata.names.9108
                0x0000000011050658       0x68 drivers/built-in.o
 .rodata.op_adv
                0x00000000110506c0      0x180 cmd/built-in.o
                0x00000000110506c0                op_adv
 .rodata.op_table
                0x0000000011050840       0xd0 cmd/built-in.o
 .rodata.pl01x_serial_id
                0x0000000011050910       0x30 drivers/serial/built-in.o
 .rodata.pl01x_serial_ops
                0x0000000011050940       0x40 drivers/serial/built-in.o
 .rodata.reg_0_5_desc_tbl
                0x0000000011050980       0x60 cmd/built-in.o
 .rodata.reg_0_desc_tbl
                0x00000000110509e0       0xa0 cmd/built-in.o
 .rodata.reg_1_desc_tbl
                0x0000000011050a80      0x100 cmd/built-in.o
 .rodata.reg_2_desc_tbl
                0x0000000011050b80       0x10 cmd/built-in.o
 .rodata.reg_3_desc_tbl
                0x0000000011050b90       0x30 cmd/built-in.o
 .rodata.reg_4_desc_tbl
                0x0000000011050bc0       0xc0 cmd/built-in.o
 .rodata.reg_5_desc_tbl
                0x0000000011050c80       0xc0 cmd/built-in.o
 .rodata.root_info
                0x0000000011050d40       0x10 drivers/built-in.o
 .rodata.rpi_model_unknown
                0x0000000011050d50       0x18 board/raspberrypi/rpi/built-in.o
 .rodata.rpi_models_new_scheme
                0x0000000011050d68      0x168 board/raspberrypi/rpi/built-in.o
 .rodata.rpi_models_old_scheme
                0x0000000011050ed0      0x210 board/raspberrypi/rpi/built-in.o
 .rodata.sdhci_ops
                0x00000000110510e0       0x28 drivers/built-in.o
                0x00000000110510e0                sdhci_ops
 .rodata.simple_panel_ids
                0x0000000011051108       0x50 drivers/built-in.o
 .rodata.simple_panel_ops
                0x0000000011051158       0x18 drivers/built-in.o
 .rodata.smbios_write_funcs
                0x0000000011051170       0x38 lib/built-in.o
 .rodata.smsc95xx_eth_id_table
                0x00000000110511a8       0xe0 drivers/usb/eth/built-in.o
 .rodata.smsc95xx_eth_ops
                0x0000000011051288       0x38 drivers/usb/eth/built-in.o
 .rodata.uimage_arch
                0x00000000110512c0      0x288 common/built-in.o
 .rodata.uimage_comp
                0x0000000011051548       0xa8 common/built-in.o
 .rodata.uimage_os
                0x00000000110515f0      0x120 common/built-in.o
 .rodata.uimage_type
                0x0000000011051710      0x3a8 common/built-in.o
 .rodata.usb_hub_ids
                0x0000000011051ab8       0x20 common/built-in.o
 .rodata.usb_kbd_ids
                0x0000000011051ad8       0x20 common/built-in.o
 .rodata.usb_mass_storage_ids
                0x0000000011051af8       0x20 common/built-in.o
 .rodata.usb_storage_ops
                0x0000000011051b18       0x20 common/built-in.o
 .rodata.binary_test
                0x0000000011051b38        0xe cmd/built-in.o
 *fill*         0x0000000011051b46        0x2 
 .rodata.cli_readline_into_buffer
                0x0000000011051b48       0x86 common/built-in.o
 *fill*         0x0000000011051bce        0x2 
 .rodata.color  0x0000000011051bd0       0x40 lib/built-in.o
 .rodata.colors
                0x0000000011051c10       0xc0 drivers/built-in.o
 .rodata.compile
                0x0000000011051cd0       0x16 lib/built-in.o
 *fill*         0x0000000011051ce6        0x2 
 .rodata.dev_print
                0x0000000011051ce8       0x18 disk/built-in.o
 .rodata.dhcp_process_options
                0x0000000011051d00       0x26 net/built-in.o
 *fill*         0x0000000011051d26        0x2 
 .rodata.do_fdt
                0x0000000011051d28       0x12 cmd/built-in.o
 *fill*         0x0000000011051d3a        0x2 
 .rodata.do_setexpr
                0x0000000011051d3c        0xb cmd/built-in.o
 *fill*         0x0000000011051d47        0x1 
 .rodata.do_test
                0x0000000011051d48        0xd cmd/built-in.o
 *fill*         0x0000000011051d55        0x3 
 .rodata.do_usb
                0x0000000011051d58        0xe cmd/built-in.o
 *fill*         0x0000000011051d66        0x2 
 .rodata.dwc2_eptype
                0x0000000011051d68       0x10 drivers/usb/host/built-in.o
 .rodata.efi_cin_check
                0x0000000011051d78       0x30 lib/built-in.o
 .rodata.efi_convert_single_device_node_to_text
                0x0000000011051da8       0x17 lib/built-in.o
 *fill*         0x0000000011051dbf        0x1 
 .rodata.efi_load_pe
                0x0000000011051dc0        0xb lib/built-in.o
 *fill*         0x0000000011051dcb        0x1 
 .rodata.env_flags_validate
                0x0000000011051dcc        0x6 env/built-in.o
 *fill*         0x0000000011051dd2        0x2 
 .rodata.env_flags_varaccess_mask
                0x0000000011051dd4       0x10 env/built-in.o
 .rodata.ext_csd_bus_width
                0x0000000011051de4       0x3c drivers/built-in.o
 .rodata.fbase  0x0000000011051e20       0x10 drivers/built-in.o
 .rodata.fdt_next_tag
                0x0000000011051e30        0x9 lib/built-in.o
 *fill*         0x0000000011051e39        0x3 
 .rodata.file_fat_detectfs
                0x0000000011051e3c        0x8 fs/built-in.o
 .rodata.freqs.9113
                0x0000000011051e44       0x34 drivers/built-in.o
 .rodata.get_escape_char
                0x0000000011051e78        0x7 lib/built-in.o
 *fill*         0x0000000011051e7f        0x1 
 .rodata.gop_blt
                0x0000000011051e80       0x18 lib/built-in.o
 .rodata.if_type_uclass_id
                0x0000000011051e98       0x34 drivers/built-in.o
 .rodata.inflate
                0x0000000011051ecc       0x3a lib/built-in.o
 *fill*         0x0000000011051f06        0x2 
 .rodata.match  0x0000000011051f08       0x22 lib/built-in.o
 *fill*         0x0000000011051f2a        0x2 
 .rodata.mmc_init
                0x0000000011051f2c        0x8 drivers/built-in.o
 .rodata.mmc_modes_by_pref
                0x0000000011051f34       0x20 drivers/built-in.o
 .rodata.mmc_set_capacity
                0x0000000011051f54        0x8 drivers/built-in.o
 .rodata.mmc_versions.9466
                0x0000000011051f5c       0x24 drivers/built-in.o
 .rodata.net_check_prereq
                0x0000000011051f80        0xf net/built-in.o
 *fill*         0x0000000011051f8f        0x1 
 .rodata.net_loop
                0x0000000011051f90        0x8 net/built-in.o
 .rodata.nfs_handler
                0x0000000011051f98        0x7 net/built-in.o
 *fill*         0x0000000011051f9f        0x1 
 .rodata.nfs_send
                0x0000000011051fa0        0x7 net/built-in.o
 *fill*         0x0000000011051fa7        0x1 
 .rodata.parse_pxefile_top
                0x0000000011051fa8       0x37 cmd/built-in.o
 *fill*         0x0000000011051fdf        0x1 
 .rodata.parse_stream_outer
                0x0000000011051fe0        0xc common/built-in.o
 .rodata.part_get_info_iso_verb
                0x0000000011051fec        0x5 disk/built-in.o
 *fill*         0x0000000011051ff1        0x3 
 .rodata.part_print
                0x0000000011051ff4        0xc disk/built-in.o
 .rodata.sd_au_size.9347
                0x0000000011052000       0x40 drivers/built-in.o
 .rodata.sd_modes_by_pref
                0x0000000011052040       0x10 drivers/built-in.o
 .rodata.srec_decode
                0x0000000011052050       0x16 common/built-in.o
 *fill*         0x0000000011052066        0x2 
 .rodata.tftp_send
                0x0000000011052068        0x7 net/built-in.o
 *fill*         0x000000001105206f        0x1 
 .rodata.usb_display_class_sub
                0x0000000011052070        0x6 cmd/built-in.o
 *fill*         0x0000000011052076        0x2 
 .rodata.usb_get_class_desc
                0x0000000011052078        0xb cmd/built-in.o
 *fill*         0x0000000011052083        0x1 
 .rodata.uuid_bin_to_str
                0x0000000011052084        0x7 lib/built-in.o
 *fill*         0x000000001105208b        0x1 
 .rodata.vidconsole_put_char
                0x000000001105208c        0x7 drivers/built-in.o
 *fill*         0x0000000011052093        0x1 
 .rodata.vsnprintf_internal
                0x0000000011052094       0x2c lib/built-in.o
 .rodata.codepage
                0x00000000110520c0      0x100 lib/built-in.o
 .rodata.crc16_tab
                0x00000000110521c0      0x200 lib/built-in.o
 .rodata.dbase.6891
                0x00000000110523c0       0x40 lib/built-in.o
 .rodata.dext.6892
                0x0000000011052400       0x40 lib/built-in.o
 .rodata.distfix
                0x0000000011052440       0x80 lib/built-in.o
 .rodata.efi_bootmgr_load.str2.2
                0x00000000110524c0       0x48 lib/built-in.o
 .rodata.lbase.6889
                0x0000000011052508       0x3e lib/built-in.o
 .rodata.lenfix
                0x0000000011052546      0x800 lib/built-in.o
 .rodata.lext.6890
                0x0000000011052d46       0x3e lib/built-in.o
 .rodata.order.6985
                0x0000000011052d84       0x26 lib/built-in.o
 .rodata.string16.str2.2
                0x0000000011052daa        0xe lib/built-in.o
 .rodata        0x0000000011052db8       0x20 lib/built-in.o
 .rodata        0x0000000011052dd8        0x7 net/built-in.o
 .rodata.CSWTCH.36
                0x0000000011052ddf       0x16 common/built-in.o
 .rodata.END    0x0000000011052df5        0x4 lib/built-in.o
 .rodata.ROOT   0x0000000011052df9       0x14 lib/built-in.o
 .rodata.__FUNCTION__.8275
                0x0000000011052e0d       0x17 common/built-in.o
 .rodata.__FUNCTION__.8439
                0x0000000011052e24       0x17 common/built-in.o
 .rodata.__func__.6560
                0x0000000011052e3b        0xb fs/built-in.o
 .rodata.__func__.6847
                0x0000000011052e46        0x8 lib/built-in.o
 .rodata.__func__.7818
                0x0000000011052e4e       0x1b lib/built-in.o
 .rodata.__func__.7838
                0x0000000011052e69        0xc lib/built-in.o
 .rodata.__func__.7855
                0x0000000011052e75        0xf disk/built-in.o
 .rodata.__func__.7867
                0x0000000011052e84       0x12 disk/built-in.o
 .rodata.__func__.8008
                0x0000000011052e96        0xd disk/built-in.o
 .rodata.__func__.8020
                0x0000000011052ea3       0x17 disk/built-in.o
 .rodata.__func__.8025
                0x0000000011052eba        0xd disk/built-in.o
 .rodata.__func__.8151
                0x0000000011052ec7       0x18 common/built-in.o
 .rodata.__func__.8285
                0x0000000011052edf        0xe common/built-in.o
 .rodata.__func__.8559
                0x0000000011052eed        0xe drivers/built-in.o
 .rodata.__func__.8676
                0x0000000011052efb        0xc drivers/built-in.o
 .rodata.__func__.8708
                0x0000000011052f07       0x14 drivers/built-in.o
 .rodata.__func__.8732
                0x0000000011052f1b       0x13 drivers/built-in.o
 .rodata.__func__.8746
                0x0000000011052f2e       0x10 drivers/built-in.o
 .rodata.__func__.8783
                0x0000000011052f3e        0xb drivers/built-in.o
 .rodata.__func__.8797
                0x0000000011052f49       0x10 drivers/built-in.o
 .rodata.__func__.9506
                0x0000000011052f59        0xd drivers/built-in.o
 .rodata.__func__.9512
                0x0000000011052f66       0x11 drivers/built-in.o
 .rodata.__func__.9516
                0x0000000011052f77       0x18 drivers/built-in.o
 .rodata.__func__.9520
                0x0000000011052f8f       0x18 drivers/built-in.o
 .rodata.__func__.9524
                0x0000000011052fa7        0xd drivers/built-in.o
 .rodata.__func__.9528
                0x0000000011052fb4       0x14 drivers/built-in.o
 .rodata.__func__.9532
                0x0000000011052fc8       0x14 drivers/built-in.o
 .rodata.__func__.9547
                0x0000000011052fdc        0xf common/built-in.o
 .rodata.__func__.9703
                0x0000000011052feb       0x15 common/built-in.o
 .rodata.__func__.9738
                0x0000000011053000       0x15 drivers/built-in.o
 .rodata.__func__.9764
                0x0000000011053015       0x18 drivers/built-in.o
 .rodata.__func__.9773
                0x000000001105302d       0x15 drivers/built-in.o
 .rodata.__func__.9784
                0x0000000011053042        0xc lib/built-in.o
 .rodata.__func__.9812
                0x000000001105304e       0x19 drivers/built-in.o
 .rodata.__func__.9972
                0x0000000011053067       0x15 lib/built-in.o
 .rodata._ctype
                0x000000001105307c      0x100 lib/built-in.o
                0x000000001105307c                _ctype
 .rodata._do_env_set.isra.0.str1.1
                0x000000001105317c       0x7c cmd/built-in.o
 .rodata._do_help.str1.1
                0x00000000110531f8       0x5f common/built-in.o
 .rodata._submit_int_msg.str1.1
                0x0000000011053257       0x24 drivers/usb/host/built-in.o
 .rodata.announce_dram_init.str1.1
                0x000000001105327b        0x8 common/built-in.o
 .rodata.arp_receive.str1.1
                0x0000000011053283       0x14 net/built-in.o
 .rodata.arp_request.str1.1
                0x0000000011053297       0x2a net/built-in.o
 .rodata.arp_timeout_check.str1.1
                0x00000000110532c1       0x2b net/built-in.o
 .rodata.autoboot_command.str1.1
                0x00000000110532ec       0x31 common/built-in.o
 .rodata.b_addqchr.str1.1
                0x000000001105331d        0x5 common/built-in.o
 .rodata.bcm2835_finish_command.str1.1
                0x0000000011053322       0x1d drivers/built-in.o
                                         0x37 (size before relaxing)
 .rodata.bcm2835_get_mmc_clock.str1.1
                0x000000001105333f       0x2a arch/arm/mach-bcm283x/built-in.o
 .rodata.bcm2835_get_video_size.str1.1
                0x0000000011053369       0x2d arch/arm/mach-bcm283x/built-in.o
 .rodata.bcm2835_gpio_probe.str1.1
                0x0000000011053396        0x5 drivers/gpio/built-in.o
 .rodata.bcm2835_mbox_call_prop.str1.1
                0x000000001105339b       0x6f arch/arm/mach-bcm283x/built-in.o
 .rodata.bcm2835_mbox_call_raw.str1.1
                0x000000001105340a       0xb3 arch/arm/mach-bcm283x/built-in.o
 .rodata.bcm2835_power_on_module.str1.1
                0x00000000110534bd       0x2e arch/arm/mach-bcm283x/built-in.o
 .rodata.bcm2835_read_wait_sdcmd.isra.0.str1.1
                0x00000000110534eb       0x15 drivers/built-in.o
 .rodata.bcm2835_send_cmd.str1.1
                0x0000000011053500      0x178 drivers/built-in.o
                                        0x183 (size before relaxing)
 .rodata.bcm2835_set_video_params.str1.1
                0x0000000011053678       0x26 arch/arm/mach-bcm283x/built-in.o
 .rodata.bcm283x_mu_serial_ofdata_to_platdata.str1.1
                0x000000001105369e        0x6 drivers/serial/built-in.o
 .rodata.bcm283x_pinctl_probe.str1.1
                0x000000001105369e       0x29 drivers/built-in.o
 .rodata.bcm283x_pinctrl_set_state.str1.1
                0x00000000110536c7       0x18 drivers/built-in.o
 .rodata.binary_test.str1.1
                0x00000000110536df       0x17 cmd/built-in.o
 .rodata.blk_common_cmd.str1.1
                0x00000000110536f6       0xed cmd/built-in.o
                                        0x101 (size before relaxing)
 .rodata.blk_create_devicef.str1.1
                0x00000000110537e3        0x6 drivers/built-in.o
 .rodata.blk_get_device_by_str.str1.1
                0x00000000110537e9       0x52 disk/built-in.o
 .rodata.blk_get_device_part_str.str1.1
                0x000000001105383b      0x107 disk/built-in.o
                                        0x109 (size before relaxing)
 .rodata.blk_list_devices.str1.1
                0x0000000011053942       0x29 drivers/built-in.o
                                          0xc (size before relaxing)
 .rodata.blk_print_device_num.str1.1
                0x0000000011053942       0x11 drivers/built-in.o
 .rodata.blk_show_device.str1.1
                0x0000000011053953       0x1d drivers/built-in.o
 .rodata.blkc_configure.str1.1
                0x0000000011053970       0x30 cmd/built-in.o
 .rodata.blkc_show.str1.1
                0x00000000110539a0       0x4c cmd/built-in.o
 .rodata.board_init.str1.1
                0x00000000110539ec       0x7e board/raspberrypi/rpi/built-in.o
 .rodata.boot_fdt_add_mem_rsv_regions.str1.1
                0x0000000011053a6a       0x35 common/built-in.o
 .rodata.boot_get_fdt.str1.1
                0x0000000011053a9f      0x1b5 common/built-in.o
                                        0x1d0 (size before relaxing)
 .rodata.boot_get_ramdisk.str1.1
                0x0000000011053c54       0xb7 common/built-in.o
                                        0x10d (size before relaxing)
 .rodata.boot_jump_linux.str1.1
                0x0000000011053d0b       0x30 arch/arm/lib/built-in.o
                                         0x31 (size before relaxing)
 .rodata.boot_prep_linux.str1.1
                0x0000000011053d3b       0x20 arch/arm/lib/built-in.o
                                         0x29 (size before relaxing)
 .rodata.boot_prep_vxworks.str1.1
                0x0000000011053d5b       0x2a arch/arm/lib/built-in.o
 .rodata.boot_ramdisk_high.str1.1
                0x0000000011053d85       0x54 common/built-in.o
 .rodata.boot_relocate_fdt.str1.1
                0x0000000011053dd9       0xcf common/built-in.o
                                         0xd3 (size before relaxing)
 .rodata.bootdelay_process.str1.1
                0x0000000011053ea8       0x3a common/built-in.o
                                         0x42 (size before relaxing)
 .rodata.booti_setup.str1.1
                0x0000000011053ee2       0x4c arch/arm/lib/built-in.o
 .rodata.bootm_decomp_image.str1.1
                0x0000000011053f2e       0x99 common/built-in.o
                                         0xc0 (size before relaxing)
 .rodata.bootm_find_images.str1.1
                0x0000000011053fc7       0x49 common/built-in.o
 .rodata.bootm_maybe_autostart.str1.1
                0x0000000011054010       0x3b cmd/built-in.o
 .rodata.bootp_request.str1.1
                0x000000001105404b       0x25 net/built-in.o
 .rodata.bootp_timeout_handler.str1.1
                0x0000000011054070       0x26 net/built-in.o
 .rodata.check_reserved.str1.1
                0x0000000011054096       0x27 drivers/gpio/built-in.o
                                         0x28 (size before relaxing)
 .rodata.cli_process_fdt.str1.1
                0x00000000110540bd        0xb common/built-in.o
                                         0x13 (size before relaxing)
 .rodata.cli_readline_into_buffer.str1.1
                0x00000000110540c8        0x7 common/built-in.o
                                          0x8 (size before relaxing)
 .rodata.cli_secure_boot_cmd.str1.1
                0x00000000110540cf       0x50 common/built-in.o
 .rodata.cmd_auto_complete.str1.1
                0x000000001105411f       0x5f common/built-in.o
                                         0x10 (size before relaxing)
 .rodata.cmd_process.str1.1
                0x000000001105411f       0x3f common/built-in.o
 .rodata.cmd_process_error.str1.1
                0x000000001105415e       0x1f common/built-in.o
 .rodata.cmd_usage.str1.1
                0x000000001105417d       0x36 common/built-in.o
 .rodata.common_diskboot.str1.1
                0x00000000110541b3       0x8f cmd/built-in.o
 .rodata.compat.9019
                0x0000000011054242       0x13 common/built-in.o
 .rodata.compile.str1.1
                0x0000000011054255       0x4a lib/built-in.o
 .rodata.complete_subcmdv.str1.1
                0x000000001105429f       0x5f common/built-in.o
                                          0x4 (size before relaxing)
 .rodata.console_announce_r.str1.1
                0x000000001105429f        0x7 common/built-in.o
 .rodata.cread_add_char.str1.1
                0x000000001105429f        0x5 common/built-in.o
 .rodata.create_table.str1.1
                0x00000000110542a4       0x62 arch/arm/cpu/armv8/built-in.o
 .rodata.default_environment
                0x0000000011054306      0xe89 env/built-in.o
                0x0000000011054306                default_environment
 .rodata.dev_get_platdata.str1.1
                0x000000001105518f       0x11 drivers/built-in.o
 .rodata.dev_print.str1.1
                0x00000000110551a0      0x165 disk/built-in.o
                                        0x176 (size before relaxing)
 .rodata.devfdt_get_addr_index.str1.1
                0x0000000011055305        0x4 drivers/built-in.o
 .rodata.device_bind_common.isra.0.str1.1
                0x0000000011055305       0x5b drivers/built-in.o
 .rodata.device_probe.str1.1
                0x0000000011055360       0x30 drivers/built-in.o
                                         0x38 (size before relaxing)
 .rodata.device_remove.str1.1
                0x0000000011055390       0x98 drivers/built-in.o
 .rodata.dhcp_extended.str1.1
                0x0000000011055428       0x37 net/built-in.o
                                         0x3f (size before relaxing)
 .rodata.dhcp_handler.str1.1
                0x000000001105545f       0x41 net/built-in.o
                                         0x4a (size before relaxing)
 .rodata.dhcp_process_options.str1.1
                0x00000000110554a0       0x78 net/built-in.o
 .rodata.digits.7949
                0x0000000011055518       0x10 lib/built-in.o
 .rodata.disabled.9020
                0x0000000011055528        0x9 common/built-in.o
 .rodata.disk_write.str1.1
                0x0000000011055531       0x18 fs/built-in.o
 .rodata.display_options.str1.1
                0x0000000011055549        0x3 lib/built-in.o
 .rodata.display_options_get_banner_priv.str1.1
                0x0000000011055549        0xc lib/built-in.o
                                         0x15 (size before relaxing)
 .rodata.dm_dump_all.str1.1
                0x0000000011055555       0x73 drivers/built-in.o
 .rodata.dm_dump_uclass.str1.1
                0x00000000110555c8       0x33 drivers/built-in.o
                                         0x35 (size before relaxing)
 .rodata.dm_extended_scan_fdt.str1.1
                0x00000000110555fb       0x12 drivers/built-in.o
 .rodata.dm_fdt_pre_reloc.str1.1
                0x000000001105560d       0x30 drivers/built-in.o
 .rodata.dm_gpio_get_value.str1.1
                0x000000001105563d        0xa drivers/gpio/built-in.o
 .rodata.dm_gpio_set_dir_flags.str1.1
                0x0000000011055647        0x8 drivers/gpio/built-in.o
 .rodata.dm_gpio_set_value.str1.1
                0x000000001105564f        0xa drivers/gpio/built-in.o
 .rodata.dm_init.str1.1
                0x0000000011055659       0x25 drivers/built-in.o
 .rodata.dm_root.str1.1
                0x000000001105567e       0x25 drivers/built-in.o
 .rodata.dm_scan_fdt_node.str1.1
                0x00000000110556a3       0x1d drivers/built-in.o
                                         0x2d (size before relaxing)
 .rodata.dm_scan_platdata.str1.1
                0x00000000110556c0       0x1d drivers/built-in.o
 .rodata.do_bad_error.str1.1
                0x00000000110556dd       0x29 arch/arm/lib/built-in.o
 .rodata.do_bad_fiq.str1.1
                0x0000000011055706       0x27 arch/arm/lib/built-in.o
 .rodata.do_bad_irq.str1.1
                0x000000001105572d       0x27 arch/arm/lib/built-in.o
 .rodata.do_bad_sync.str1.1
                0x0000000011055754       0x48 arch/arm/lib/built-in.o
 .rodata.do_bdinfo.str1.1
                0x000000001105579c       0x9e cmd/built-in.o
 .rodata.do_bootd.str1.1
                0x000000001105583a        0x8 cmd/built-in.o
 .rodata.do_bootefi.str1.1
                0x0000000011055842       0xf4 cmd/built-in.o
 .rodata.do_bootefi_exec.str1.1
                0x0000000011055936       0xc0 cmd/built-in.o
                                         0xc9 (size before relaxing)
 .rodata.do_bootelf.str1.1
                0x00000000110559f6       0x52 cmd/built-in.o
                                         0x5c (size before relaxing)
 .rodata.do_bootm.str1.1
                0x0000000011055a48       0x2a cmd/built-in.o
 .rodata.do_bootm_netbsd.str1.1
                0x0000000011055a72       0x49 common/built-in.o
                                         0x4a (size before relaxing)
 .rodata.do_bootm_plan9.str1.1
                0x0000000011055abb       0x43 common/built-in.o
 .rodata.do_bootm_qnxelf.str1.1
                0x0000000011055afe        0x4 common/built-in.o
 .rodata.do_bootm_rtems.str1.1
                0x0000000011055afe       0x39 common/built-in.o
 .rodata.do_bootm_standalone.str1.1
                0x0000000011055b37       0x16 common/built-in.o
 .rodata.do_bootm_states.str1.1
                0x0000000011055b37      0x1e6 common/built-in.o
                                        0x25e (size before relaxing)
 .rodata.do_bootm_vxworks.str1.1
                0x0000000011055d1d       0x57 common/built-in.o
                                         0x7e (size before relaxing)
 .rodata.do_bootvx.str1.1
                0x0000000011055d74      0x1c5 cmd/built-in.o
                                        0x1d0 (size before relaxing)
 .rodata.do_coninfo.str1.1
                0x0000000011055f39       0x2c cmd/built-in.o
                                         0x30 (size before relaxing)
 .rodata.do_dev.str1.1
                0x0000000011055f65       0x4f cmd/built-in.o
 .rodata.do_echo.str1.1
                0x0000000011055fb4        0x3 cmd/built-in.o
 .rodata.do_env_default.str1.1
                0x0000000011055fb7       0x25 cmd/built-in.o
 .rodata.do_env_edit.part.0.str1.1
                0x0000000011055fdc        0x7 cmd/built-in.o
                                          0xa (size before relaxing)
 .rodata.do_env_export.str1.1
                0x0000000011055fe3       0x6b cmd/built-in.o
                                         0x74 (size before relaxing)
 .rodata.do_env_import.str1.1
                0x000000001105604e      0x139 cmd/built-in.o
                                        0x13b (size before relaxing)
 .rodata.do_env_print.str1.1
                0x0000000011056187       0x3d cmd/built-in.o
 .rodata.do_error.str1.1
                0x00000000110561c4       0x29 arch/arm/lib/built-in.o
                                         0x1d (size before relaxing)
 .rodata.do_fat_fsinfo.str1.1
                0x00000000110561c4       0x56 cmd/built-in.o
 .rodata.do_fat_fswrite.str1.1
                0x000000001105621a       0x6b cmd/built-in.o
 .rodata.do_fdt.str1.1
                0x0000000011056285      0x48e cmd/built-in.o
                                        0x4ed (size before relaxing)
 .rodata.do_fiq.str1.1
                0x0000000011056713       0x29 arch/arm/lib/built-in.o
                                         0x1b (size before relaxing)
 .rodata.do_fixup_by_path.str1.1
                0x0000000011056713       0x29 common/built-in.o
 .rodata.do_fs_uuid.str1.1
                0x000000001105673c        0x4 fs/built-in.o
 .rodata.do_get_any.str1.1
                0x000000001105673c        0x5 cmd/built-in.o
 .rodata.do_get_ext2.str1.1
                0x000000001105673c        0x9 cmd/built-in.o
 .rodata.do_get_fat.str1.1
                0x000000001105673c        0x8 cmd/built-in.o
 .rodata.do_get_tftp.str1.1
                0x000000001105673c        0x5 cmd/built-in.o
 .rodata.do_go.str1.1
                0x000000001105673c       0x4f cmd/built-in.o
 .rodata.do_gpio.str1.1
                0x000000001105678b       0xc4 cmd/built-in.o
                                         0xd2 (size before relaxing)
 .rodata.do_imgextract.str1.1
                0x000000001105684f      0x148 cmd/built-in.o
                                        0x1ac (size before relaxing)
 .rodata.do_irq.str1.1
                0x0000000011056997       0x29 arch/arm/lib/built-in.o
                                         0x1b (size before relaxing)
 .rodata.do_itest.str1.1
                0x0000000011056997       0x1e cmd/built-in.o
 .rodata.do_list.str1.1
                0x00000000110569b5       0x24 cmd/built-in.o
                                         0x2b (size before relaxing)
 .rodata.do_load.str1.1
                0x00000000110569d9       0x39 fs/built-in.o
                                         0x5b (size before relaxing)
 .rodata.do_load_serial.str1.1
                0x0000000011056a12       0x6b cmd/built-in.o
 .rodata.do_load_serial_bin.str1.1
                0x0000000011056a7d      0x159 cmd/built-in.o
 .rodata.do_load_wrapper.str1.1
                0x0000000011056bd6        0x1 cmd/built-in.o
 .rodata.do_ls.str1.1
                0x0000000011056bd6        0x2 fs/built-in.o
 .rodata.do_lzmadec.str1.1
                0x0000000011056bd6       0x1f cmd/built-in.o
                                         0x28 (size before relaxing)
 .rodata.do_mdio.str1.1
                0x0000000011056bf5       0x65 cmd/built-in.o
 .rodata.do_mem_base.str1.1
                0x0000000011056c5a       0x17 cmd/built-in.o
 .rodata.do_mem_cmp.str1.1
                0x0000000011056c71       0x6a cmd/built-in.o
                                         0x6f (size before relaxing)
 .rodata.do_mem_cp.str1.1
                0x0000000011056cdb       0x11 cmd/built-in.o
 .rodata.do_mem_crc.str1.1
                0x0000000011056cec        0x6 cmd/built-in.o
 .rodata.do_mii.str1.1
                0x0000000011056cf2      0x294 cmd/built-in.o
                                        0x2b0 (size before relaxing)
 .rodata.do_mkdir.str1.1
                0x0000000011056f86       0x29 fs/built-in.o
 .rodata.do_mmc_dev.str1.1
                0x0000000011056faf       0x80 cmd/built-in.o
                                         0x89 (size before relaxing)
 .rodata.do_mmc_erase.str1.1
                0x000000001105702f       0x67 cmd/built-in.o
 .rodata.do_mmc_hwpartition.str1.1
                0x0000000011057096      0x126 cmd/built-in.o
                                        0x142 (size before relaxing)
 .rodata.do_mmc_part.str1.1
                0x00000000110571bc       0x15 cmd/built-in.o
 .rodata.do_mmc_read.str1.1
                0x00000000110571d1       0x43 cmd/built-in.o
 .rodata.do_mmc_setdsr.str1.1
                0x0000000011057214       0x1d cmd/built-in.o
 .rodata.do_mmc_write.str1.1
                0x0000000011057231       0x47 cmd/built-in.o
 .rodata.do_mmcinfo.str1.1
                0x0000000011057278      0x135 cmd/built-in.o
                                        0x187 (size before relaxing)
 .rodata.do_mmcops.str1.1
                0x00000000110573ad       0x19 cmd/built-in.o
 .rodata.do_part.str1.1
                0x00000000110573c6        0x4 cmd/built-in.o
                                         0x15 (size before relaxing)
 .rodata.do_part_info.str1.1
                0x00000000110573c6        0x4 cmd/built-in.o
                                          0x8 (size before relaxing)
 .rodata.do_part_list.str1.1
                0x00000000110573ca       0x22 cmd/built-in.o
                                         0x25 (size before relaxing)
 .rodata.do_ping.str1.1
                0x00000000110573ec       0x35 cmd/built-in.o
 .rodata.do_pxe_boot.str1.1
                0x0000000011057421       0x38 cmd/built-in.o
 .rodata.do_pxe_get.str1.1
                0x0000000011057459       0x41 cmd/built-in.o
                                         0x46 (size before relaxing)
 .rodata.do_reset.str1.1
                0x000000001105749a        0xf arch/arm/lib/built-in.o
 .rodata.do_run.str1.1
                0x00000000110574a9       0x1c common/built-in.o
 .rodata.do_save.str1.1
                0x00000000110574a9       0x1d fs/built-in.o
 .rodata.do_setexpr.str1.1
                0x00000000110574c6       0x11 cmd/built-in.o
                                         0x15 (size before relaxing)
 .rodata.do_showvar.str1.1
                0x00000000110574d7        0xc common/built-in.o
                                         0x2f (size before relaxing)
 .rodata.do_size.str1.1
                0x00000000110574e3        0x9 fs/built-in.o
 .rodata.do_source.str1.1
                0x00000000110574e3       0x1e cmd/built-in.o
 .rodata.do_status.str1.1
                0x0000000011057501       0x21 cmd/built-in.o
                                         0x45 (size before relaxing)
 .rodata.do_sync.str1.1
                0x0000000011057522       0x29 arch/arm/lib/built-in.o
 .rodata.do_sysboot.str1.1
                0x0000000011057522       0x43 cmd/built-in.o
 .rodata.do_unzip.str1.1
                0x0000000011057565       0x20 cmd/built-in.o
                                         0x29 (size before relaxing)
 .rodata.do_usb.str1.1
                0x0000000011057585      0x279 cmd/built-in.o
                                        0x293 (size before relaxing)
 .rodata.do_usbboot.str1.1
                0x00000000110577fe      0x10d cmd/built-in.o
                                          0x4 (size before relaxing)
 .rodata.do_version.str1.1
                0x00000000110577fe       0xca cmd/built-in.o
 .rodata.dp_unknown.str1.1
                0x00000000110578c8       0x13 lib/built-in.o
 .rodata.dram_init.str1.1
                0x00000000110578db       0x2a board/raspberrypi/rpi/built-in.o
 .rodata.dwc2_submit_control_msg.str1.1
                0x0000000011057905       0x44 drivers/usb/host/built-in.o
 .rodata.dwc2_usb_ofdata_to_platdata.str1.1
                0x0000000011057949       0x25 drivers/usb/host/built-in.o
 .rodata.efi_bl_bind.str1.1
                0x000000001105796e       0x12 lib/built-in.o
 .rodata.efi_block_io_guid
                0x0000000011057980       0x10 lib/built-in.o
                0x0000000011057980                efi_block_io_guid
 .rodata.efi_bootmgr_load.str1.1
                0x0000000011057990        0xe lib/built-in.o
 .rodata.efi_console_register.str1.1
                0x000000001105799e       0x90 lib/built-in.o
                                         0xb8 (size before relaxing)
 .rodata.efi_convert_single_device_node_to_text.str1.1
                0x0000000011057a2e      0x11a lib/built-in.o
                                        0x124 (size before relaxing)
 .rodata.efi_cout_clear_screen.str1.1
                0x0000000011057b48        0x5 lib/built-in.o
 .rodata.efi_cout_enable_cursor.str1.1
                0x0000000011057b4d        0x8 lib/built-in.o
 .rodata.efi_cout_set_attribute.str1.1
                0x0000000011057b55       0x17 lib/built-in.o
 .rodata.efi_cout_set_cursor_position.str1.1
                0x0000000011057b6c        0x9 lib/built-in.o
 .rodata.efi_disk_create_partitions.str1.1
                0x0000000011057b75       0x22 lib/built-in.o
 .rodata.efi_disk_register.str1.1
                0x0000000011057b97       0x67 lib/built-in.o
 .rodata.efi_dp_from_name.str1.1
                0x0000000011057bfe        0x4 lib/built-in.o
                                          0xb (size before relaxing)
 .rodata.efi_driver_init.str1.1
                0x0000000011057c02       0x58 lib/built-in.o
 .rodata.efi_exit.str1.1
                0x0000000011057c5a       0x17 lib/built-in.o
 .rodata.efi_file_from_path.str1.1
                0x0000000011057c71       0x10 lib/built-in.o
 .rodata.efi_file_info_guid
                0x0000000011057c81       0x10 lib/built-in.o
                0x0000000011057c81                efi_file_info_guid
 .rodata.efi_file_system_info_guid
                0x0000000011057c91       0x10 lib/built-in.o
                0x0000000011057c91                efi_file_system_info_guid
 .rodata.efi_get_variable.str1.1
                0x0000000011057ca1        0x7 lib/built-in.o
                                          0xe (size before relaxing)
 .rodata.efi_global_variable_guid
                0x0000000011057ca8       0x10 lib/built-in.o
                0x0000000011057ca8                efi_global_variable_guid
 .rodata.efi_gop_guid
                0x0000000011057cb8       0x10 lib/built-in.o
 .rodata.efi_gop_register.str1.1
                0x0000000011057cc8       0x24 lib/built-in.o
                                         0x3a (size before relaxing)
 .rodata.efi_guid_device_path
                0x0000000011057cec       0x10 lib/built-in.o
                0x0000000011057cec                efi_guid_device_path
 .rodata.efi_guid_device_path_to_text_protocol
                0x0000000011057cfc       0x10 lib/built-in.o
                0x0000000011057cfc                efi_guid_device_path_to_text_protocol
 .rodata.efi_guid_device_path_utilities_protocol
                0x0000000011057d0c       0x10 lib/built-in.o
                0x0000000011057d0c                efi_guid_device_path_utilities_protocol
 .rodata.efi_guid_driver_binding_protocol
                0x0000000011057d1c       0x10 lib/built-in.o
                0x0000000011057d1c                efi_guid_driver_binding_protocol
 .rodata.efi_guid_event_group_exit_boot_services
                0x0000000011057d2c       0x10 lib/built-in.o
                0x0000000011057d2c                efi_guid_event_group_exit_boot_services
 .rodata.efi_guid_event_group_reset_system
                0x0000000011057d3c       0x10 lib/built-in.o
                0x0000000011057d3c                efi_guid_event_group_reset_system
 .rodata.efi_guid_fdt
                0x0000000011057d4c       0x10 lib/built-in.o
                0x0000000011057d4c                efi_guid_fdt
 .rodata.efi_guid_loaded_image
                0x0000000011057d5c       0x10 lib/built-in.o
                0x0000000011057d5c                efi_guid_loaded_image
 .rodata.efi_guid_text_input_ex_protocol
                0x0000000011057d6c       0x10 lib/built-in.o
                0x0000000011057d6c                efi_guid_text_input_ex_protocol
 .rodata.efi_guid_text_input_protocol
                0x0000000011057d7c       0x10 lib/built-in.o
                0x0000000011057d7c                efi_guid_text_input_protocol
 .rodata.efi_guid_text_output_protocol
                0x0000000011057d8c       0x10 lib/built-in.o
                0x0000000011057d8c                efi_guid_text_output_protocol
 .rodata.efi_guid_unicode_collation_protocol
                0x0000000011057d9c       0x10 lib/built-in.o
                0x0000000011057d9c                efi_guid_unicode_collation_protocol
 .rodata.efi_install_fdt.str1.1
                0x0000000011057dac       0x93 cmd/built-in.o
 .rodata.efi_load_pe.str1.1
                0x0000000011057e3f       0xca lib/built-in.o
 .rodata.efi_net_guid
                0x0000000011057f09       0x10 lib/built-in.o
 .rodata.efi_net_register.str1.1
                0x0000000011057f19       0x6d lib/built-in.o
                                         0x83 (size before relaxing)
 .rodata.efi_pxe_guid
                0x0000000011057f86       0x10 lib/built-in.o
 .rodata.efi_set_code_and_data_type.str1.1
                0x0000000011057f96       0x1c lib/built-in.o
 .rodata.efi_set_variable.str1.1
                0x0000000011057fb2       0x14 lib/built-in.o
                                         0x1a (size before relaxing)
 .rodata.efi_setup_loaded_image.str1.1
                0x0000000011057fc6       0x36 lib/built-in.o
 .rodata.efi_simple_file_system_protocol_guid
                0x0000000011057ffc       0x10 lib/built-in.o
                0x0000000011057ffc                efi_simple_file_system_protocol_guid
 .rodata.efi_to_native.str1.1
                0x000000001105800c       0x34 lib/built-in.o
 .rodata.efi_u_boot_guid
                0x0000000011058040       0x10 lib/built-in.o
                0x0000000011058040                efi_u_boot_guid
 .rodata.efi_uc_destroy.str1.1
                0x0000000011058050       0x18 lib/built-in.o
 .rodata.efi_uc_init.str1.1
                0x0000000011058068       0x1e lib/built-in.o
 .rodata.efi_uc_stop.str1.1
                0x0000000011058086       0x40 lib/built-in.o
 .rodata.efi_watchdog_register.str1.1
                0x00000000110580c6       0x4f lib/built-in.o
 .rodata.efi_watchdog_timer_notify.str1.1
                0x0000000011058115       0x18 lib/built-in.o
 .rodata.emit.str1.1
                0x000000001105812d       0x1f lib/built-in.o
 .rodata.env_callback_init.str1.1
                0x000000001105814c        0xb env/built-in.o
 .rodata.env_complete.str1.1
                0x0000000011058157        0xa env/built-in.o
                                         0x10 (size before relaxing)
 .rodata.env_export.str1.1
                0x0000000011058161       0x3d env/built-in.o
                                         0x27 (size before relaxing)
 .rodata.env_fat_load.str1.1
                0x0000000011058161       0x25 env/built-in.o
 .rodata.env_fat_save.str1.1
                0x0000000011058186       0x4f env/built-in.o
                                         0x53 (size before relaxing)
 .rodata.env_flags_init.str1.1
                0x00000000110581d5        0x7 env/built-in.o
 .rodata.env_flags_parse_varaccess.str1.1
                0x00000000110581dc       0x3d env/built-in.o
 .rodata.env_flags_parse_vartype.str1.1
                0x0000000011058219       0x34 env/built-in.o
 .rodata.env_flags_validate.str1.1
                0x000000001105824d       0xb2 env/built-in.o
                                         0xb3 (size before relaxing)
 .rodata.env_flags_varaccess_rep
                0x00000000110582ff        0x5 env/built-in.o
 .rodata.env_flags_vartype_rep
                0x0000000011058304        0x7 env/built-in.o
 .rodata.env_get_bootm_low.str1.1
                0x000000001105830b        0xa common/built-in.o
 .rodata.env_get_bootm_mapsize.str1.1
                0x0000000011058315        0xe common/built-in.o
 .rodata.env_get_bootm_size.str1.1
                0x0000000011058323        0xb common/built-in.o
 .rodata.env_get_f.str1.1
                0x000000001105832e       0x30 cmd/built-in.o
 .rodata.env_import.str1.1
                0x000000001105835e       0x3d env/built-in.o
 .rodata.env_load.str1.1
                0x000000001105839b       0x20 env/built-in.o
                                         0x24 (size before relaxing)
 .rodata.env_print.str1.1
                0x00000000110583bb       0x25 cmd/built-in.o
                                         0x2c (size before relaxing)
 .rodata.env_save.str1.1
                0x00000000110583e0       0x2a env/built-in.o
 .rodata.env_set.str1.1
                0x000000001105840a        0x7 cmd/built-in.o
 .rodata.env_set_hex.str1.1
                0x0000000011058411        0x4 cmd/built-in.o
 .rodata.erase_seq
                0x0000000011058411        0x4 common/built-in.o
 .rodata.eth_current_changed.str1.1
                0x0000000011058415       0x14 net/built-in.o
 .rodata.eth_env_get_enetaddr_by_index.str1.1
                0x0000000011058415       0x10 net/built-in.o
 .rodata.eth_env_set_enetaddr.str1.1
                0x0000000011058425        0x4 cmd/built-in.o
 .rodata.eth_get_name.str1.1
                0x0000000011058429        0x8 net/built-in.o
 .rodata.eth_init.str1.1
                0x0000000011058429       0x11 net/built-in.o
                                         0x28 (size before relaxing)
 .rodata.eth_initialize.str1.1
                0x000000001105843a       0x1c net/built-in.o
                                         0x1f (size before relaxing)
 .rodata.eth_mac_skip.str1.1
                0x0000000011058456       0x18 net/built-in.o
 .rodata.eth_post_bind.str1.1
                0x000000001105846e       0x2b net/built-in.o
 .rodata.eth_post_probe.str1.1
                0x0000000011058499       0xaf net/built-in.o
                                         0xb3 (size before relaxing)
 .rodata.eth_set_current.str1.1
                0x0000000011058548        0x9 net/built-in.o
 .rodata.eth_write_hwaddr.str1.1
                0x0000000011058548       0x4e net/built-in.o
 .rodata.ext4_read_file.str1.1
                0x0000000011058596       0x19 fs/built-in.o
 .rodata.ext4fs_iterate_dir.str1.1
                0x00000000110585af       0x43 fs/built-in.o
                                         0x4a (size before relaxing)
 .rodata.ext4fs_ls.str1.1
                0x00000000110585f2       0x1f fs/built-in.o
 .rodata.ext4fs_mount.str1.1
                0x0000000011058611       0x24 fs/built-in.o
 .rodata.fat_itr_resolve.str1.1
                0x0000000011058635       0x3b fs/built-in.o
                                          0x5 (size before relaxing)
 .rodata.fat_itr_root.str1.1
                0x0000000011058635       0x85 fs/built-in.o
 .rodata.fat_mkdir.str1.1
                0x00000000110586ba       0x26 fs/built-in.o
                                         0x2a (size before relaxing)
 .rodata.fat_read_file.str1.1
                0x00000000110586e0       0x1e fs/built-in.o
 .rodata.fat_set_blk_dev.str1.1
                0x00000000110586fe        0x3 fs/built-in.o
                                          0xd (size before relaxing)
 .rodata.fat_unlink.str1.1
                0x0000000011058701       0x6b fs/built-in.o
                                         0x6c (size before relaxing)
 .rodata.fdt_address_cells.str1.1
                0x000000001105876c        0xf lib/built-in.o
 .rodata.fdt_chosen.str1.1
                0x000000001105877b       0x35 common/built-in.o
                                         0x3e (size before relaxing)
 .rodata.fdt_error.str1.1
                0x00000000110587b0       0x2d common/built-in.o
 .rodata.fdt_find_or_add_subnode.str1.1
                0x00000000110587dd        0xc common/built-in.o
 .rodata.fdt_fixup_ethernet.str1.1
                0x00000000110587e9       0x2e common/built-in.o
                                         0x42 (size before relaxing)
 .rodata.fdt_fixup_memory_banks.str1.1
                0x0000000011058817       0x85 common/built-in.o
                                         0x94 (size before relaxing)
 .rodata.fdt_get_alias_namelen.str1.1
                0x000000001105889c        0x9 lib/built-in.o
 .rodata.fdt_get_phandle.str1.1
                0x000000001105889c       0x16 lib/built-in.o
 .rodata.fdt_initrd.str1.1
                0x000000001105889c       0x90 common/built-in.o
                                         0x97 (size before relaxing)
 .rodata.fdt_overlay_apply.str1.1
                0x000000001105892c       0x38 lib/built-in.o
                                         0x51 (size before relaxing)
 .rodata.fdt_overlay_apply_verbose.str1.1
                0x0000000011058964       0x83 common/built-in.o
 .rodata.fdt_root.str1.1
                0x00000000110589e7       0x46 common/built-in.o
                                         0x4e (size before relaxing)
 .rodata.fdt_set_node_status.str1.1
                0x0000000011058a2d       0x33 common/built-in.o
                                         0x3a (size before relaxing)
 .rodata.fdt_setup_simplefb_node.str1.1
                0x0000000011058a60       0x2c common/built-in.o
 .rodata.fdt_size_cells.str1.1
                0x0000000011058a8c        0xc lib/built-in.o
 .rodata.fdt_strerror.str1.1
                0x0000000011058a8c       0x31 lib/built-in.o
 .rodata.fdt_support_default_count_cells.str1.1
                0x0000000011058abd        0xc common/built-in.o
 .rodata.fdt_translate_address.str1.1
                0x0000000011058ac9       0x22 common/built-in.o
 .rodata.fdt_valid.str1.1
                0x0000000011058aeb       0x79 cmd/built-in.o
                                         0x7b (size before relaxing)
 .rodata.fdtdec_add_aliases_for_id.str1.1
                0x0000000011058b64        0x9 lib/built-in.o
 .rodata.fdtdec_get_chosen_prop.str1.1
                0x0000000011058b64        0x8 lib/built-in.o
 .rodata.fdtdec_get_config_int.str1.1
                0x0000000011058b64        0x8 lib/built-in.o
 .rodata.fdtdec_get_is_enabled.str1.1
                0x0000000011058b6c        0xc lib/built-in.o
 .rodata.fdtdec_prepare_fdt.str1.1
                0x0000000011058b6c       0x96 lib/built-in.o
 .rodata.fdtdec_setup.str1.1
                0x0000000011058c02        0xf lib/built-in.o
 .rodata.file_fat_detectfs.str1.1
                0x0000000011058c02       0x64 fs/built-in.o
                                         0x84 (size before relaxing)
 .rodata.file_fat_read_at.str1.1
                0x0000000011058c66       0x2a fs/built-in.o
 .rodata.file_fat_write_at.str1.1
                0x0000000011058c90       0xa7 fs/built-in.o
 .rodata.file_get.str1.1
                0x0000000011058d37        0x9 common/built-in.o
                                          0xc (size before relaxing)
 .rodata.file_open.str1.1
                0x0000000011058d40        0xa lib/built-in.o
                                          0xb (size before relaxing)
 .rodata.find_mmc_device.str1.1
                0x0000000011058d4a       0x19 drivers/built-in.o
 .rodata.flush_dir_table.str1.1
                0x0000000011058d63       0x20 fs/built-in.o
 .rodata.format_mac_pxe.constprop.0.str1.1
                0x0000000011058d83       0x21 cmd/built-in.o
                                         0x25 (size before relaxing)
 .rodata.from_env.str1.1
                0x0000000011058da4       0x22 cmd/built-in.o
 .rodata.fs_devread.str1.1
                0x0000000011058dc6       0x98 fs/built-in.o
 .rodata.fs_ls_generic.str1.1
                0x0000000011058e5e       0x37 fs/built-in.o
 .rodata.fs_probe_unsupported.str1.1
                0x0000000011058e95       0x24 fs/built-in.o
 .rodata.fs_write.str1.1
                0x0000000011058eb9       0x1f fs/built-in.o
 .rodata.genimg_get_arch_name.str1.1
                0x0000000011058ed8       0x15 common/built-in.o
 .rodata.genimg_get_comp_name.str1.1
                0x0000000011058eed       0x14 common/built-in.o
 .rodata.genimg_get_os_name.str1.1
                0x0000000011058f01        0xb common/built-in.o
 .rodata.genimg_get_type_name.str1.1
                0x0000000011058f0c        0xe common/built-in.o
 .rodata.genimg_print_size.str1.1
                0x0000000011058f1a        0xc common/built-in.o
                                          0xe (size before relaxing)
 .rodata.genphy_update_link.str1.1
                0x0000000011058f26       0x54 drivers/net/phy/built-in.o
                                         0x56 (size before relaxing)
 .rodata.get_descriptor_len.str1.1
                0x0000000011058f7a       0x64 common/built-in.o
 .rodata.get_fatent.str1.1
                0x0000000011058fde       0x22 fs/built-in.o
 .rodata.get_local_var.str1.1
                0x0000000011059000        0x3 common/built-in.o
 .rodata.get_phy_device_by_mask.str1.1
                0x0000000011059003       0x29 drivers/net/phy/built-in.o
 .rodata.get_pxe_file.str1.1
                0x000000001105902c        0x9 cmd/built-in.o
 .rodata.get_pxelinux_path.str1.1
                0x000000001105902c       0x3e cmd/built-in.o
 .rodata.get_relfile.str1.1
                0x000000001105906a       0x56 cmd/built-in.o
                                         0x63 (size before relaxing)
 .rodata.gpio_direction_input.str1.1
                0x00000000110590c0        0xa drivers/gpio/built-in.o
 .rodata.gpio_direction_output.str1.1
                0x00000000110590ca        0xb drivers/gpio/built-in.o
 .rodata.gpio_get_description.str1.1
                0x00000000110590d5        0xa cmd/built-in.o
                                         0x18 (size before relaxing)
 .rodata.gpio_get_status.str1.1
                0x00000000110590df       0x17 drivers/gpio/built-in.o
                                         0x19 (size before relaxing)
 .rodata.gpio_request_by_name_nodev.str1.1
                0x00000000110590f6        0xc drivers/gpio/built-in.o
 .rodata.gpio_request_tail.str1.1
                0x0000000011059102        0x8 drivers/gpio/built-in.o
                                          0xe (size before relaxing)
 .rodata.gzip_parse_header.str1.1
                0x000000001105910a       0x3e lib/built-in.o
 .rodata.gzwrite.str1.1
                0x0000000011059148      0x149 lib/built-in.o
 .rodata.gzwrite_progress.str1.1
                0x0000000011059291        0xb lib/built-in.o
 .rodata.gzwrite_progress_finish.str1.1
                0x000000001105929c       0x4e lib/built-in.o
 .rodata.handle_include.str1.1
                0x00000000110592ea       0x33 cmd/built-in.o
 .rodata.handle_pxe_menu.str1.1
                0x000000001105931d       0x15 cmd/built-in.o
                                         0x18 (size before relaxing)
 .rodata.hang.str1.1
                0x0000000011059332       0x2a lib/built-in.o
 .rodata.hash_command.str1.1
                0x000000001105935c       0x25 common/built-in.o
 .rodata.hex_asc
                0x0000000011059381       0x11 lib/built-in.o
                0x0000000011059381                hex_asc
 .rodata.hexchars.7722
                0x0000000011059392       0x11 lib/built-in.o
 .rodata.hexport_r.str1.1
                0x00000000110593a3       0x30 lib/built-in.o
 .rodata.himport_r.str1.1
                0x00000000110593d3       0x99 lib/built-in.o
 .rodata.illegal
                0x000000001105946c        0xa lib/built-in.o
 .rodata.image_info.str1.1
                0x0000000011059476       0xac cmd/built-in.o
 .rodata.image_print_contents.str1.1
                0x0000000011059522       0xd0 common/built-in.o
                                         0xd4 (size before relaxing)
 .rodata.image_setup_libfdt.str1.1
                0x00000000110595f2       0xbb common/built-in.o
 .rodata.inflate.str1.1
                0x00000000110596ad      0x158 lib/built-in.o
 .rodata.inflate_fast.str1.1
                0x0000000011059805       0x50 lib/built-in.o
 .rodata.init_baud_rate.str1.1
                0x0000000011059855        0x9 common/built-in.o
 .rodata.init_mmc_device.str1.1
                0x000000001105985e       0x1a cmd/built-in.o
 .rodata.initcall_run_list.str1.1
                0x0000000011059878       0x31 lib/built-in.o
 .rodata.initr_env.str1.1
                0x00000000110598a9       0x20 common/built-in.o
                                         0x29 (size before relaxing)
 .rodata.initr_ethaddr.str1.1
                0x00000000110598c9        0x8 common/built-in.o
 .rodata.initr_mmc.str1.1
                0x00000000110598c9        0x8 common/built-in.o
 .rodata.initr_net.str1.1
                0x00000000110598d1        0x8 common/built-in.o
 .rodata.insert_var_value_sub.str1.1
                0x00000000110598d9        0x6 common/built-in.o
 .rodata.ip_to_string.str1.1
                0x00000000110598df        0xc net/built-in.o
 .rodata.is_gpt_valid.str1.1
                0x00000000110598eb       0xea disk/built-in.o
 .rodata.label_boot.str1.1
                0x00000000110599d5      0x163 cmd/built-in.o
                                        0x1bc (size before relaxing)
 .rodata.label_print.str1.1
                0x0000000011059b38        0x8 cmd/built-in.o
 .rodata.lan7x_eth_phylib_config_start.str1.1
                0x0000000011059b40       0x2f drivers/usb/eth/built-in.o
 .rodata.lan7x_eth_phylib_connect.str1.1
                0x0000000011059b6f       0x14 drivers/usb/eth/built-in.o
 .rodata.lan7x_phylib_register.str1.1
                0x0000000011059b83       0x41 drivers/usb/eth/built-in.o
 .rodata.lcd_dt_simplefb_add_node.str1.1
                0x0000000011059bc4        0xb common/built-in.o
                                         0x1e (size before relaxing)
 .rodata.lcd_dt_simplefb_configure_node.str1.1
                0x0000000011059bcf       0x10 common/built-in.o
 .rodata.list_sort.str1.1
                0x0000000011059bdf       0x34 lib/built-in.o
 .rodata.lists_bind_drivers.str1.1
                0x0000000011059c13       0x1a drivers/built-in.o
 .rodata.lists_bind_fdt.str1.1
                0x0000000011059c2d       0x3f drivers/built-in.o
                                         0x4a (size before relaxing)
 .rodata.lmb_alloc_base.str1.1
                0x0000000011059c6c       0x34 lib/built-in.o
 .rodata.load_serial.str1.1
                0x0000000011059ca0       0x65 cmd/built-in.o
 .rodata.load_serial_ymodem.str1.1
                0x0000000011059d05       0x31 cmd/built-in.o
                                         0x35 (size before relaxing)
 .rodata.main_loop.str1.1
                0x0000000011059d36       0x19 common/built-in.o
 .rodata.match.str1.1
                0x0000000011059d4f       0x18 lib/built-in.o
 .rodata.match_entry.str1.1
                0x0000000011059d67       0x1b lib/built-in.o
 .rodata.match_string.str1.1
                0x0000000011059d67       0x2c lib/built-in.o
 .rodata.mdio_list_devices.str1.1
                0x0000000011059d93       0x12 common/built-in.o
                                         0x19 (size before relaxing)
 .rodata.mdio_phydev_for_ethname.str1.1
                0x0000000011059da5       0x1c common/built-in.o
 .rodata.mdio_register.str1.1
                0x0000000011059dc1       0x2c common/built-in.o
 .rodata.menu_get_choice.str1.1
                0x0000000011059ded       0x1d common/built-in.o
                                         0x2a (size before relaxing)
 .rodata.miiphy_duplex.str1.1
                0x0000000011059e0a       0x4f common/built-in.o
 .rodata.miiphy_get_dev_by_name.str1.1
                0x0000000011059e59       0x13 common/built-in.o
 .rodata.miiphy_listdev.str1.1
                0x0000000011059e6c       0x2a common/built-in.o
 .rodata.miiphy_set_current_dev.str1.1
                0x0000000011059e96       0x14 common/built-in.o
 .rodata.miiphy_speed.str1.1
                0x0000000011059eaa       0x49 common/built-in.o
 .rodata.misc_init_r.str1.1
                0x0000000011059ef3       0xab board/raspberrypi/rpi/built-in.o
                                         0xbe (size before relaxing)
 .rodata.mmc_berase.str1.1
                0x0000000011059f9e       0x6f drivers/built-in.o
 .rodata.mmc_bind.str1.1
                0x000000001105a00d        0x8 drivers/built-in.o
                                          0xc (size before relaxing)
 .rodata.mmc_bread.str1.1
                0x000000001105a015       0x47 drivers/built-in.o
 .rodata.mmc_bwrite.str1.1
                0x000000001105a05c       0x12 drivers/built-in.o
                                         0x59 (size before relaxing)
 .rodata.mmc_get_op_cond.str1.1
                0x000000001105a06e       0x29 drivers/built-in.o
 .rodata.mmc_hwpart_config.str1.1
                0x000000001105a097      0x19f drivers/built-in.o
 .rodata.mmc_init.str1.1
                0x000000001105a236       0x67 drivers/built-in.o
                                         0x6d (size before relaxing)
 .rodata.mmc_initialize.str1.1
                0x000000001105a29d       0x17 drivers/built-in.o
 .rodata.mmc_mode_name.str1.1
                0x000000001105a2b4        0xd drivers/built-in.o
 .rodata.mmc_send_status.str1.1
                0x000000001105a2c1       0x32 drivers/built-in.o
 .rodata.mmc_start_init.str1.1
                0x000000001105a2f3       0x16 drivers/built-in.o
 .rodata.mmu_set_region_dcache_behaviour.str1.1
                0x000000001105a309       0x20 arch/arm/cpu/armv8/built-in.o
 .rodata.mod_mem.isra.0.part.0.str1.1
                0x000000001105a329       0x26 cmd/built-in.o
 .rodata.multipliers
                0x000000001105a34f       0x10 drivers/built-in.o
 .rodata.names.6778
                0x000000001105a35f        0x6 lib/built-in.o
 .rodata.net_auto_load.str1.1
                0x000000001105a365       0x45 net/built-in.o
 .rodata.net_bcast_ethaddr
                0x000000001105a3aa        0x6 net/built-in.o
                0x000000001105a3aa                net_bcast_ethaddr
 .rodata.net_check_prereq.str1.1
                0x000000001105a3b0       0xbc net/built-in.o
 .rodata.net_loop.str1.1
                0x000000001105a46c       0x29 net/built-in.o
                                         0x3b (size before relaxing)
 .rodata.net_null_ethaddr
                0x000000001105a495        0x6 net/built-in.o
                0x000000001105a495                net_null_ethaddr
 .rodata.net_process_received_packet.str1.1
                0x000000001105a49b       0x1d net/built-in.o
 .rodata.net_start_again.str1.1
                0x000000001105a4b8        0xe net/built-in.o
                                         0x15 (size before relaxing)
 .rodata.netboot_common.str1.1
                0x000000001105a4c6       0x16 cmd/built-in.o
                                         0x53 (size before relaxing)
 .rodata.nfs_handler.str1.1
                0x000000001105a4dc       0x56 net/built-in.o
 .rodata.nfs_lookup_reply.str1.1
                0x000000001105a532       0x25 net/built-in.o
                                         0x27 (size before relaxing)
 .rodata.nfs_read_reply.isra.0.str1.1
                0x000000001105a557        0x4 net/built-in.o
 .rodata.nfs_readlink_reply.str1.1
                0x000000001105a55b        0x2 net/built-in.o
 .rodata.nfs_start.str1.1
                0x000000001105a55b      0x104 net/built-in.o
                                        0x105 (size before relaxing)
 .rodata.nfs_timeout_handler.str1.1
                0x000000001105a65f       0x2a net/built-in.o
 .rodata.ofnode_pre_reloc.str1.1
                0x000000001105a689       0x15 drivers/built-in.o
                                         0x45 (size before relaxing)
 .rodata.on_baudrate.str1.1
                0x000000001105a69e       0x42 drivers/serial/built-in.o
                                         0x74 (size before relaxing)
 .rodata.on_callbacks.str1.1
                0x000000001105a6e0      0x105 env/built-in.o
 .rodata.on_console.str1.1
                0x000000001105a7e5        0x7 common/built-in.o
                                         0x27 (size before relaxing)
 .rodata.on_flags.str1.1
                0x000000001105a7e5       0x5b env/built-in.o
 .rodata.overlay_adjust_node_phandles.str1.1
                0x000000001105a840        0xe lib/built-in.o
                                         0x16 (size before relaxing)
 .rodata.overlay_get_target.str1.1
                0x000000001105a84e       0x13 lib/built-in.o
 .rodata.parse_attr.part.0.str1.1
                0x000000001105a861       0x17 lib/built-in.o
                                         0x23 (size before relaxing)
 .rodata.parse_integer.str1.1
                0x000000001105a878       0x17 cmd/built-in.o
 .rodata.parse_pxefile_top.str1.1
                0x000000001105a88f       0x89 cmd/built-in.o
                                         0x8b (size before relaxing)
 .rodata.parse_sliteral.str1.1
                0x000000001105a918       0x1f cmd/built-in.o
 .rodata.parse_stream_outer.str1.1
                0x000000001105a937       0x4d common/built-in.o
 .rodata.parse_string_outer.str1.1
                0x000000001105a984        0x2 common/built-in.o
 .rodata.part_get_info_efi.str1.1
                0x000000001105a984        0xa disk/built-in.o
 .rodata.part_get_info_extended.str1.1
                0x000000001105a984        0xa disk/built-in.o
                                         0x11 (size before relaxing)
 .rodata.part_get_info_iso_verb.str1.1
                0x000000001105a98e      0x1bf disk/built-in.o
                                        0x1c6 (size before relaxing)
 .rodata.part_get_info_whole_disk.str1.1
                0x000000001105ab4d        0xb disk/built-in.o
                                         0x12 (size before relaxing)
 .rodata.part_print.str1.1
                0x000000001105ab58       0x8e disk/built-in.o
                                         0x97 (size before relaxing)
 .rodata.part_print_dos.str1.1
                0x000000001105abe6       0x2a disk/built-in.o
 .rodata.part_print_efi.str1.1
                0x000000001105ac10       0xf9 disk/built-in.o
 .rodata.part_print_iso.str1.1
                0x000000001105ad09       0x68 disk/built-in.o
 .rodata.part_set_generic_name.str1.1
                0x000000001105ad71        0xa disk/built-in.o
 .rodata.phy_connect.str1.1
                0x000000001105ad7b       0x23 drivers/net/phy/built-in.o
 .rodata.phy_connect_dev.str1.1
                0x000000001105ad9e       0x2f drivers/net/phy/built-in.o
 .rodata.phy_reset.str1.1
                0x000000001105adcd       0x15 drivers/net/phy/built-in.o
 .rodata.pinconfig_post_bind.str1.1
                0x000000001105ade2        0xa drivers/built-in.o
                                         0x15 (size before relaxing)
 .rodata.pinctrl_select_state.str1.1
                0x000000001105adec       0x31 drivers/built-in.o
 .rodata.ping_start.str1.1
                0x000000001105ae1d       0x11 net/built-in.o
 .rodata.pl01x_serial_ofdata_to_platdata.str1.1
                0x000000001105ae1d       0x10 drivers/serial/built-in.o
 .rodata.print_buffer.str1.1
                0x000000001105ae2d       0x10 lib/built-in.o
                                         0x19 (size before relaxing)
 .rodata.print_data.str1.1
                0x000000001105ae3d       0x27 cmd/built-in.o
                                         0x32 (size before relaxing)
 .rodata.print_freq.str1.1
                0x000000001105ae64       0x1b lib/built-in.o
 .rodata.print_mmc_devices.str1.1
                0x000000001105ae7f       0x12 drivers/built-in.o
                                         0x1c (size before relaxing)
 .rodata.print_num.str1.1
                0x000000001105ae91       0x10 cmd/built-in.o
 .rodata.print_partition_extended.str1.1
                0x000000001105aea1       0x83 disk/built-in.o
                                         0x84 (size before relaxing)
 .rodata.print_size.str1.1
                0x000000001105af24       0x15 lib/built-in.o
 .rodata.quantifier.str1.1
                0x000000001105af39       0x17 lib/built-in.o
 .rodata.read_allocated_block.str1.1
                0x000000001105af50      0x240 fs/built-in.o
 .rodata.read_bootsectandvi.str1.1
                0x000000001105b190       0x1b fs/built-in.o
 .rodata.realloc.str1.1
                0x000000001105b1ab       0x25 common/built-in.o
 .rodata.regex_callback.str1.1
                0x000000001105b1d0        0x5 env/built-in.o
                                         0x20 (size before relaxing)
 .rodata.regex_sub.part.0.str1.1
                0x000000001105b1d5       0xbd cmd/built-in.o
 .rodata.run_list_real.str1.1
                0x000000001105b292       0x45 common/built-in.o
                                         0x4b (size before relaxing)
 .rodata.sdhci_probe.str1.1
                0x000000001105b2d7       0x24 drivers/built-in.o
 .rodata.sdhci_reset.str1.1
                0x000000001105b2fb       0x21 drivers/built-in.o
 .rodata.sdhci_send_command.str1.1
                0x000000001105b31c       0x76 drivers/built-in.o
 .rodata.sdhci_set_clock.isra.0.str1.1
                0x000000001105b392       0x4e drivers/built-in.o
 .rodata.sdhci_setup_cfg.str1.1
                0x000000001105b3e0       0x33 drivers/built-in.o
 .rodata.serial_init.str1.1
                0x000000001105b413        0xc drivers/serial/built-in.o
                                         0x14 (size before relaxing)
 .rodata.set_contents.str1.1
                0x000000001105b41f       0x3b fs/built-in.o
 .rodata.set_default_env.str1.1
                0x000000001105b45a       0x2e env/built-in.o
                                         0x5f (size before relaxing)
 .rodata.set_local_var.str1.1
                0x000000001105b488       0x59 common/built-in.o
 .rodata.set_one_region.str1.1
                0x000000001105b4e1       0x2e arch/arm/cpu/armv8/built-in.o
 .rodata.set_working_fdt_addr.str1.1
                0x000000001105b50f        0x8 cmd/built-in.o
 .rodata.setup_pgtables.str1.1
                0x000000001105b517       0x2d arch/arm/cpu/armv8/built-in.o
 .rodata.show_devices.str1.1
                0x000000001105b544       0x33 drivers/built-in.o
                                         0x3c (size before relaxing)
 .rodata.show_dram_config.str1.1
                0x000000001105b577        0x1 common/built-in.o
 .rodata.show_pinmux.str1.1
                0x000000001105b577       0x6d cmd/built-in.o
 .rodata.show_regs.str1.1
                0x000000001105b5e4       0x57 arch/arm/lib/built-in.o
                                         0x59 (size before relaxing)
 .rodata.simple_bus_post_bind.str1.1
                0x000000001105b63b        0x7 drivers/built-in.o
 .rodata.simple_panel_ofdata_to_platdata.str1.1
                0x000000001105b63b        0xd drivers/built-in.o
                                         0x17 (size before relaxing)
 .rodata.smbios_guid
                0x000000001105b648       0x10 lib/built-in.o
 .rodata.smbios_write_type0.str1.1
                0x000000001105b658       0x13 lib/built-in.o
                                         0x1a (size before relaxing)
 .rodata.smbios_write_type1.str1.1
                0x000000001105b66b        0x8 lib/built-in.o
 .rodata.smbios_write_type2.str1.1
                0x000000001105b66b        0x4 lib/built-in.o
 .rodata.smbios_write_type3.str1.1
                0x000000001105b66f        0xc lib/built-in.o
 .rodata.smbios_write_type4.str1.1
                0x000000001105b67b        0x8 lib/built-in.o
 .rodata.smsc95xx_eth_start.str1.1
                0x000000001105b67b       0x75 drivers/usb/eth/built-in.o
 .rodata.source.str1.1
                0x000000001105b6f0       0x7e cmd/built-in.o
 .rodata.split_block.str1.1
                0x000000001105b76e       0x74 arch/arm/cpu/armv8/built-in.o
 .rodata.split_filename.str1.1
                0x000000001105b7e2        0x2 fs/built-in.o
 .rodata.stdio_add_devices.str1.1
                0x000000001105b7e2       0x1f common/built-in.o
                                         0x26 (size before relaxing)
 .rodata.stdio_deregister_dev.str1.1
                0x000000001105b801        0x8 common/built-in.o
 .rodata.stdio_get_by_name.str1.1
                0x000000001105b809        0xb common/built-in.o
 .rodata.stdio_print_current_devices.str1.1
                0x000000001105b814       0x70 common/built-in.o
                                         0x74 (size before relaxing)
 .rodata.store_char_in_data.str1.1
                0x000000001105b884       0x1f lib/built-in.o
 .rodata.str1.1
                0x000000001105b8a3      0x223 board/raspberrypi/rpi/built-in.o
                                        0x23d (size before relaxing)
 .rodata.str1.1
                0x000000001105bac6     0x377d cmd/built-in.o
                                       0x3a8c (size before relaxing)
 .rodata.str1.1
                0x000000001105f243      0x8c1 common/built-in.o
                                        0x948 (size before relaxing)
 .rodata.str1.1
                0x000000001105fb04       0x1f disk/built-in.o
                                         0x22 (size before relaxing)
 .rodata.str1.1
                0x000000001105fb23      0x2ae drivers/built-in.o
                                        0x311 (size before relaxing)
 .rodata.str1.1
                0x000000001105fdd1       0x14 drivers/gpio/built-in.o
                                         0x33 (size before relaxing)
 .rodata.str1.1
                0x000000001105fde5       0x81 drivers/net/phy/built-in.o
                                         0x9a (size before relaxing)
 .rodata.str1.1
                0x000000001105fe66       0x6a drivers/serial/built-in.o
                                         0x7a (size before relaxing)
 .rodata.str1.1
                0x000000001105fed0       0x19 drivers/usb/eth/built-in.o
 .rodata.str1.1
                0x000000001105fee9       0x45 drivers/usb/host/built-in.o
                                         0x49 (size before relaxing)
 .rodata.str1.1
                0x000000001105ff2e        0xb env/built-in.o
                                         0x14 (size before relaxing)
 .rodata.str1.1
                0x000000001105ff2e       0x11 fs/built-in.o
                                         0x15 (size before relaxing)
 .rodata.str1.1
                0x000000001105ff3f      0x529 lib/built-in.o
                                        0x53b (size before relaxing)
 .rodata.str1.1
                0x0000000011060468        0x6 net/built-in.o
                                         0x35 (size before relaxing)
 .rodata.string.str1.1
                0x000000001106046e        0x7 lib/built-in.o
 .rodata.substitute.str1.1
                0x0000000011060475       0x28 cmd/built-in.o
 .rodata.syntax_err.str1.1
                0x000000001106049d        0xe common/built-in.o
 .rodata.tab_seq
                0x00000000110604ab        0x9 common/built-in.o
 .rodata.test_block_type.str1.1
                0x00000000110604b4        0xa disk/built-in.o
 .rodata.tftp_handler.str1.1
                0x00000000110604be       0x72 net/built-in.o
                                         0x8a (size before relaxing)
 .rodata.tftp_send.str1.1
                0x0000000011060530       0x42 net/built-in.o
                                         0x4e (size before relaxing)
 .rodata.tftp_start.str1.1
                0x0000000011060572       0xe8 net/built-in.o
                                        0x180 (size before relaxing)
 .rodata.tftp_timeout_handler.str1.1
                0x000000001106065a       0x2a net/built-in.o
                                         0x2d (size before relaxing)
 .rodata.u_boot_hush_start.str1.1
                0x0000000011060684       0x12 common/built-in.o
 .rodata.uclass_resolve_seq.str1.1
                0x0000000011060696       0x27 drivers/built-in.o
 .rodata.us_direction
                0x00000000110606bd       0x20 common/built-in.o
 .rodata.usb_child_post_bind.str1.1
                0x00000000110606dd       0x25 drivers/usb/host/built-in.o
 .rodata.usb_display_class_sub.str1.1
                0x0000000011060702       0xb6 cmd/built-in.o
                                         0xbc (size before relaxing)
 .rodata.usb_display_config.str1.1
                0x00000000110607b8      0x10d cmd/built-in.o
                                        0x118 (size before relaxing)
 .rodata.usb_display_desc.str1.1
                0x00000000110608c5       0xac cmd/built-in.o
                                         0xae (size before relaxing)
 .rodata.usb_display_string.str1.1
                0x0000000011060971        0xd cmd/built-in.o
 .rodata.usb_ether_receive.str1.1
                0x000000001106097e       0x1b drivers/usb/eth/built-in.o
 .rodata.usb_find_usb2_hub_address_port.str1.1
                0x0000000011060999       0x36 common/built-in.o
 .rodata.usb_get_class_desc.str1.1
                0x00000000110609cf       0x64 cmd/built-in.o
                                         0x65 (size before relaxing)
 .rodata.usb_get_configuration_len.str1.1
                0x0000000011060a33       0x58 common/built-in.o
 .rodata.usb_hub_configure.str1.1
                0x0000000011060a8b       0x5f common/built-in.o
 .rodata.usb_hub_port_connect_change.str1.1
                0x0000000011060aea       0x18 common/built-in.o
 .rodata.usb_init.str1.1
                0x0000000011060b02       0x7e drivers/usb/host/built-in.o
 .rodata.usb_kbd_arrow
                0x0000000011060b80        0x4 common/built-in.o
 .rodata.usb_kbd_num_keypad
                0x0000000011060b84       0x14 common/built-in.o
 .rodata.usb_kbd_numkey
                0x0000000011060b98       0x1b common/built-in.o
 .rodata.usb_kbd_numkey_shifted
                0x0000000011060bb3       0x1b common/built-in.o
 .rodata.usb_kbd_probe.str1.1
                0x0000000011060bce       0x5c common/built-in.o
 .rodata.usb_kbd_remove.str1.1
                0x0000000011060c2a       0x1b common/built-in.o
                                         0x21 (size before relaxing)
 .rodata.usb_mass_storage_probe.str1.1
                0x0000000011060c45       0x16 common/built-in.o
 .rodata.usb_scan_bus.isra.0.str1.1
                0x0000000011060c5b       0x4d drivers/usb/host/built-in.o
                                         0x5f (size before relaxing)
 .rodata.usb_scan_device.str1.1
                0x0000000011060ca8       0x2a drivers/usb/host/built-in.o
 .rodata.usb_select_config.str1.1
                0x0000000011060cd2      0x220 common/built-in.o
 .rodata.usb_set_interface.str1.1
                0x0000000011060ef2       0x1f common/built-in.o
 .rodata.usb_setup_descriptor.str1.1
                0x0000000011060f11       0x1d common/built-in.o
 .rodata.usb_setup_device.str1.1
                0x0000000011060f2e       0x68 common/built-in.o
 .rodata.usb_show_tree_graph.str1.1
                0x0000000011060f96       0x2f cmd/built-in.o
                                         0x3a (size before relaxing)
 .rodata.usb_stor_CBI_get_status.isra.0.str1.1
                0x0000000011060fc5       0x1f common/built-in.o
 .rodata.usb_stor_CB_transport.str1.1
                0x0000000011060fe4       0x6e common/built-in.o
 .rodata.usb_stor_get_info.str1.1
                0x0000000011061052       0x5d common/built-in.o
 .rodata.usb_stor_info.str1.1
                0x00000000110610af       0x32 common/built-in.o
                                         0x40 (size before relaxing)
 .rodata.usb_stor_scan.str1.1
                0x00000000110610e1       0x48 common/built-in.o
 .rodata.usb_storage_probe.str1.1
                0x0000000011061129       0x5c common/built-in.o
 .rodata.uuid_bin_to_str.str1.1
                0x0000000011061185       0x4a lib/built-in.o
                                          0x5 (size before relaxing)
 .rodata.valid_elf_image.str1.1
                0x0000000011061185       0x52 cmd/built-in.o
 .rodata.validate_gpt_entries.str1.1
                0x00000000110611d7       0x40 disk/built-in.o
 .rodata.validate_gpt_header.str1.1
                0x0000000011061217       0xe1 disk/built-in.o
 .rodata.var_complete.str1.1
                0x00000000110612f8        0x1 common/built-in.o
 .rodata.version_string
                0x00000000110612f8       0x2e cmd/built-in.o
                0x00000000110612f8                version_string
 .rodata.vidconsole_post_probe.str1.1
                0x0000000011061326       0x18 drivers/built-in.o
 .rodata.video_fontdata
                0x0000000011061326     0x1000 drivers/built-in.o
 .rodata.video_post_bind.str1.1
                0x0000000011062326       0x66 drivers/built-in.o
 .rodata.video_post_probe.str1.1
                0x000000001106238c       0x10 drivers/built-in.o
                                         0x1d (size before relaxing)
 .rodata.write_smbios_table.str1.1
                0x000000001106239c       0x38 lib/built-in.o
 .rodata.xmalloc.str1.1
                0x00000000110623d4       0x1e common/built-in.o
 .rodata.xyzModem_error.str1.1
                0x00000000110623f2        0xe common/built-in.o
 .rodata.xyzModem_stream_close.str1.1
                0x0000000011062400       0x47 common/built-in.o
                                         0x4b (size before relaxing)
 .rodata.xyzModem_stream_open.str1.1
                0x0000000011062447        0x2 common/built-in.o

.hash           0x0000000011062448       0x18
 .hash          0x0000000011062448       0x18 arch/arm/cpu/armv8/start.o

.dtb.init.rodata
                0x0000000011062460     0x2fe0
 .dtb.init.rodata
                0x0000000011062460     0x2fe0 dts/built-in.o
                0x0000000011062460                __dtb_dt_begin
                0x0000000011065435                __dtb_dt_end
                0x0000000011065440                . = ALIGN (0x8)

.data           0x0000000011065440     0x3a20
 *(.data*)
 .data.rel.ro   0x0000000011065440        0x0 arch/arm/cpu/armv8/start.o
 .data.bcm2837_mem_map
                0x0000000011065440       0x60 board/raspberrypi/rpi/built-in.o
 .data.mem_map  0x00000000110654a0        0x8 board/raspberrypi/rpi/built-in.o
                0x00000000110654a0                mem_map
 .data.bootm_help_text
                0x00000000110654a8      0x38b cmd/built-in.o
 *fill*         0x0000000011065833        0x5 
 .data.cmd_bootm_sub
                0x0000000011065838      0x1f8 cmd/built-in.o
 .data.source_help_text
                0x0000000011065a30       0x4e cmd/built-in.o
 *fill*         0x0000000011065a7e        0x2 
 .data.cmd_blkc_sub
                0x0000000011065a80       0x70 cmd/built-in.o
 .data.bootefi_help_text
                0x0000000011065af0      0x188 cmd/built-in.o
 .data.efi_obj_list_initialized
                0x0000000011065c78        0x8 cmd/built-in.o
 .data.booti_help_text
                0x0000000011065c80      0x1e1 cmd/built-in.o
 *fill*         0x0000000011065e61        0x7 
 .data.test_commands
                0x0000000011065e68       0xa8 cmd/built-in.o
 .data.fdt_help_text
                0x0000000011065f10      0x6e4 cmd/built-in.o
 .data.root.7520
                0x00000000110665f4        0x2 cmd/built-in.o
 .data.tabs.7608
                0x00000000110665f6       0x21 cmd/built-in.o
 *fill*         0x0000000011066617        0x1 
 .data.do_echo  0x0000000011066618        0x4 cmd/built-in.o
 *fill*         0x000000001106661c        0x4 
 .data.dp_last_length
                0x0000000011066620        0x8 cmd/built-in.o
 .data.cmd_mmc  0x0000000011066628      0x230 cmd/built-in.o
 .data.curr_device
                0x0000000011066858        0x4 cmd/built-in.o
 *fill*         0x000000001106685c        0x4 
 .data.pinmux_subcmd
                0x0000000011066860       0xa8 cmd/built-in.o
 .data.cmd_pxe_sub
                0x0000000011066908       0x70 cmd/built-in.o
 .data.pxe_default_paths
                0x0000000011066978       0x20 cmd/built-in.o
                0x0000000011066978                pxe_default_paths
 .data.usb_stor_curr_dev
                0x0000000011066998        0x4 cmd/built-in.o
 .data.imgextract_help_text
                0x000000001106699c       0x55 cmd/built-in.o
 *fill*         0x00000000110669f1        0x7 
 .data.cmd_env_sub
                0x00000000110669f8      0x230 cmd/built-in.o
 .data.env_help_text
                0x0000000011066c28      0x259 cmd/built-in.o
 *fill*         0x0000000011066e81        0x3 
 .data.env_id   0x0000000011066e84        0x4 cmd/built-in.o
 .data.reserved_list
                0x0000000011066e88      0x108 common/built-in.o
 .data.init_sequence_r
                0x0000000011066f90       0xe8 common/built-in.o
 .data.of_busses
                0x0000000011067078       0x30 common/built-in.o
 .data.usb_scan_list
                0x00000000110670a8       0x10 common/built-in.o
 .data.hist_cur
                0x00000000110670b8        0x4 common/built-in.o
 *fill*         0x00000000110670bc        0x4 
 .data.av_      0x00000000110670c0      0x810 common/built-in.o
 .data.sbrk_base
                0x00000000110678d0        0x8 common/built-in.o
 .data.trim_threshold
                0x00000000110678d8        0x8 common/built-in.o
 .data.load_addr
                0x00000000110678e0        0x8 common/built-in.o
                0x00000000110678e0                load_addr
 .data.stdio_names
                0x00000000110678e8       0x18 common/built-in.o
                0x00000000110678e8                stdio_names
 .data.system_guid
                0x0000000011067900       0x10 disk/built-in.o
 .data.bcm283x_pinctrl_ops
                0x0000000011067910       0x90 drivers/built-in.o
 .data._stats   0x00000000110679a0       0x14 drivers/built-in.o
 *fill*         0x00000000110679b4        0x4 
 .data.block_cache
                0x00000000110679b8       0x10 drivers/built-in.o
 .data.cmd_timeout.8731
                0x00000000110679c8        0x4 drivers/built-in.o
 *fill*         0x00000000110679cc        0x4 
 .data.console_normal_ops
                0x00000000110679d0       0x28 drivers/built-in.o
                0x00000000110679d0                console_normal_ops
 .data.genphy_driver
                0x00000000110679f8       0x58 drivers/net/phy/built-in.o
 .data.phy_drivers
                0x0000000011067a50       0x10 drivers/net/phy/built-in.o
 .data.dwc2_usb_ops
                0x0000000011067a60       0x50 drivers/usb/host/built-in.o
                0x0000000011067a60                dwc2_usb_ops
 .data.root_hub_config_des
                0x0000000011067ab0       0x19 drivers/usb/host/built-in.o
 .data.root_hub_dev_des
                0x0000000011067ac9       0x12 drivers/usb/host/built-in.o
 .data.root_hub_str_index0
                0x0000000011067adb        0x4 drivers/usb/host/built-in.o
 .data.root_hub_str_index1
                0x0000000011067adf       0x20 drivers/usb/host/built-in.o
 *fill*         0x0000000011067aff        0x1 
 .data.env_htab
                0x0000000011067b00       0x18 env/built-in.o
                0x0000000011067b00                env_htab
 .data.first_call
                0x0000000011067b18        0x8 env/built-in.o
 .data.fstypes  0x0000000011067b20      0x180 fs/built-in.o
 .data.ext4fs_indir1_blkno
                0x0000000011067ca0        0x4 fs/built-in.o
                0x0000000011067ca0                ext4fs_indir1_blkno
 .data.ext4fs_indir2_blkno
                0x0000000011067ca4        0x4 fs/built-in.o
                0x0000000011067ca4                ext4fs_indir2_blkno
 .data.ext4fs_indir3_blkno
                0x0000000011067ca8        0x4 fs/built-in.o
                0x0000000011067ca8                ext4fs_indir3_blkno
 *fill*         0x0000000011067cac        0x4 
 .data.efi_boot_services
                0x0000000011067cb0      0x178 lib/built-in.o
 .data.efi_events
                0x0000000011067e28       0x10 lib/built-in.o
                0x0000000011067e28                efi_events
 .data.efi_obj_list
                0x0000000011067e38       0x10 lib/built-in.o
                0x0000000011067e38                efi_obj_list
 .data.efi_tpl  0x0000000011067e48        0x8 lib/built-in.o
 .data.cin_notify_functions
                0x0000000011067e50       0x10 lib/built-in.o
 .data.efi_con_in
                0x0000000011067e60       0x18 lib/built-in.o
                0x0000000011067e60                efi_con_in
 .data.efi_con_in_ex
                0x0000000011067e78       0x30 lib/built-in.o
 .data.efi_con_mode
                0x0000000011067ea8       0x18 lib/built-in.o
 .data.efi_con_out
                0x0000000011067ec0       0x50 lib/built-in.o
                0x0000000011067ec0                efi_con_out
 .data.efi_cout_modes
                0x0000000011067f10       0x48 lib/built-in.o
 .data.efi_mem  0x0000000011067f58       0x10 lib/built-in.o
                0x0000000011067f58                efi_mem
 .data.capitalization_table
                0x0000000011067f68      0xed0 lib/built-in.o
 .data.first_call.6951
                0x0000000011068e38        0x4 net/built-in.o
 .data.net_native_vlan
                0x0000000011068e3c        0x2 net/built-in.o
                0x0000000011068e3c                net_native_vlan
 .data.net_our_vlan
                0x0000000011068e3e        0x2 net/built-in.o
                0x0000000011068e3e                net_our_vlan
 .data.nfs_offset
                0x0000000011068e40        0x4 net/built-in.o
 .data.supported_nfs_versions
                0x0000000011068e44        0x1 net/built-in.o
 *fill*         0x0000000011068e45        0x1 
 .data.tftp_block_size
                0x0000000011068e46        0x2 net/built-in.o
 .data.tftp_block_size_option
                0x0000000011068e48        0x2 net/built-in.o
 *fill*         0x0000000011068e4a        0x2 
 .data.tftp_timeout_count_max
                0x0000000011068e4c        0x4 net/built-in.o
                0x0000000011068e4c                tftp_timeout_count_max
 .data.timeout_count_max
                0x0000000011068e50        0x4 net/built-in.o
 *fill*         0x0000000011068e54        0x4 
 .data.timeout_ms
                0x0000000011068e58        0x8 net/built-in.o

.got            0x0000000011068e60        0x8
 .got           0x0000000011068e60        0x8 arch/arm/cpu/armv8/start.o
                0x0000000011068e60                _GLOBAL_OFFSET_TABLE_

.got.plt        0x0000000011068e68       0x18
 .got.plt       0x0000000011068e68       0x18 arch/arm/cpu/armv8/start.o
                0x0000000011068e80                . = ALIGN (0x8)
                0x0000000011068e80                . = .
                0x0000000011068e80                . = ALIGN (0x8)

.u_boot_list    0x0000000011068e80     0x2a88
 *(SORT_BY_NAME(.u_boot_list*))
 .u_boot_list_2_cmd_1
                0x0000000011068e80        0x0 cmd/built-in.o
 .u_boot_list_2_cmd_1
                0x0000000011068e80        0x0 common/built-in.o
 .u_boot_list_2_cmd_2_base
                0x0000000011068e80       0x38 cmd/built-in.o
                0x0000000011068e80                _u_boot_list_2_cmd_2_base
 .u_boot_list_2_cmd_2_bdinfo
                0x0000000011068eb8       0x38 cmd/built-in.o
                0x0000000011068eb8                _u_boot_list_2_cmd_2_bdinfo
 .u_boot_list_2_cmd_2_blkcache
                0x0000000011068ef0       0x38 cmd/built-in.o
                0x0000000011068ef0                _u_boot_list_2_cmd_2_blkcache
 .u_boot_list_2_cmd_2_boot
                0x0000000011068f28       0x38 cmd/built-in.o
                0x0000000011068f28                _u_boot_list_2_cmd_2_boot
 .u_boot_list_2_cmd_2_bootd
                0x0000000011068f60       0x38 cmd/built-in.o
                0x0000000011068f60                _u_boot_list_2_cmd_2_bootd
 .u_boot_list_2_cmd_2_bootefi
                0x0000000011068f98       0x38 cmd/built-in.o
                0x0000000011068f98                _u_boot_list_2_cmd_2_bootefi
 .u_boot_list_2_cmd_2_bootelf
                0x0000000011068fd0       0x38 cmd/built-in.o
                0x0000000011068fd0                _u_boot_list_2_cmd_2_bootelf
 .u_boot_list_2_cmd_2_booti
                0x0000000011069008       0x38 cmd/built-in.o
                0x0000000011069008                _u_boot_list_2_cmd_2_booti
 .u_boot_list_2_cmd_2_bootm
                0x0000000011069040       0x38 cmd/built-in.o
                0x0000000011069040                _u_boot_list_2_cmd_2_bootm
 .u_boot_list_2_cmd_2_bootp
                0x0000000011069078       0x38 cmd/built-in.o
                0x0000000011069078                _u_boot_list_2_cmd_2_bootp
 .u_boot_list_2_cmd_2_bootvx
                0x00000000110690b0       0x38 cmd/built-in.o
                0x00000000110690b0                _u_boot_list_2_cmd_2_bootvx
 .u_boot_list_2_cmd_2_cmp
                0x00000000110690e8       0x38 cmd/built-in.o
                0x00000000110690e8                _u_boot_list_2_cmd_2_cmp
 .u_boot_list_2_cmd_2_coninfo
                0x0000000011069120       0x38 cmd/built-in.o
                0x0000000011069120                _u_boot_list_2_cmd_2_coninfo
 .u_boot_list_2_cmd_2_cp
                0x0000000011069158       0x38 cmd/built-in.o
                0x0000000011069158                _u_boot_list_2_cmd_2_cp
 .u_boot_list_2_cmd_2_crc32
                0x0000000011069190       0x38 cmd/built-in.o
                0x0000000011069190                _u_boot_list_2_cmd_2_crc32
 .u_boot_list_2_cmd_2_dhcp
                0x00000000110691c8       0x38 cmd/built-in.o
                0x00000000110691c8                _u_boot_list_2_cmd_2_dhcp
 .u_boot_list_2_cmd_2_dm
                0x0000000011069200       0x38 cmd/built-in.o
                0x0000000011069200                _u_boot_list_2_cmd_2_dm
 .u_boot_list_2_cmd_2_echo
                0x0000000011069238       0x38 cmd/built-in.o
                0x0000000011069238                _u_boot_list_2_cmd_2_echo
 .u_boot_list_2_cmd_2_editenv
                0x0000000011069270       0x38 cmd/built-in.o
                0x0000000011069270                _u_boot_list_2_cmd_2_editenv
 .u_boot_list_2_cmd_2_env
                0x00000000110692a8       0x38 cmd/built-in.o
                0x00000000110692a8                _u_boot_list_2_cmd_2_env
 .u_boot_list_2_cmd_2_exit
                0x00000000110692e0       0x38 cmd/built-in.o
                0x00000000110692e0                _u_boot_list_2_cmd_2_exit
 .u_boot_list_2_cmd_2_ext2load
                0x0000000011069318       0x38 cmd/built-in.o
                0x0000000011069318                _u_boot_list_2_cmd_2_ext2load
 .u_boot_list_2_cmd_2_ext2ls
                0x0000000011069350       0x38 cmd/built-in.o
                0x0000000011069350                _u_boot_list_2_cmd_2_ext2ls
 .u_boot_list_2_cmd_2_ext4load
                0x0000000011069388       0x38 cmd/built-in.o
                0x0000000011069388                _u_boot_list_2_cmd_2_ext4load
 .u_boot_list_2_cmd_2_ext4ls
                0x00000000110693c0       0x38 cmd/built-in.o
                0x00000000110693c0                _u_boot_list_2_cmd_2_ext4ls
 .u_boot_list_2_cmd_2_ext4size
                0x00000000110693f8       0x38 cmd/built-in.o
                0x00000000110693f8                _u_boot_list_2_cmd_2_ext4size
 .u_boot_list_2_cmd_2_false
                0x0000000011069430       0x38 cmd/built-in.o
                0x0000000011069430                _u_boot_list_2_cmd_2_false
 .u_boot_list_2_cmd_2_fatinfo
                0x0000000011069468       0x38 cmd/built-in.o
                0x0000000011069468                _u_boot_list_2_cmd_2_fatinfo
 .u_boot_list_2_cmd_2_fatload
                0x00000000110694a0       0x38 cmd/built-in.o
                0x00000000110694a0                _u_boot_list_2_cmd_2_fatload
 .u_boot_list_2_cmd_2_fatls
                0x00000000110694d8       0x38 cmd/built-in.o
                0x00000000110694d8                _u_boot_list_2_cmd_2_fatls
 .u_boot_list_2_cmd_2_fatmkdir
                0x0000000011069510       0x38 cmd/built-in.o
                0x0000000011069510                _u_boot_list_2_cmd_2_fatmkdir
 .u_boot_list_2_cmd_2_fatrm
                0x0000000011069548       0x38 cmd/built-in.o
                0x0000000011069548                _u_boot_list_2_cmd_2_fatrm
 .u_boot_list_2_cmd_2_fatsize
                0x0000000011069580       0x38 cmd/built-in.o
                0x0000000011069580                _u_boot_list_2_cmd_2_fatsize
 .u_boot_list_2_cmd_2_fatwrite
                0x00000000110695b8       0x38 cmd/built-in.o
                0x00000000110695b8                _u_boot_list_2_cmd_2_fatwrite
 .u_boot_list_2_cmd_2_fdt
                0x00000000110695f0       0x38 cmd/built-in.o
                0x00000000110695f0                _u_boot_list_2_cmd_2_fdt
 .u_boot_list_2_cmd_2_fstype
                0x0000000011069628       0x38 cmd/built-in.o
                0x0000000011069628                _u_boot_list_2_cmd_2_fstype
 .u_boot_list_2_cmd_2_fsuuid
                0x0000000011069660       0x38 cmd/built-in.o
                0x0000000011069660                _u_boot_list_2_cmd_2_fsuuid
 .u_boot_list_2_cmd_2_go
                0x0000000011069698       0x38 cmd/built-in.o
                0x0000000011069698                _u_boot_list_2_cmd_2_go
 .u_boot_list_2_cmd_2_gpio
                0x00000000110696d0       0x38 cmd/built-in.o
                0x00000000110696d0                _u_boot_list_2_cmd_2_gpio
 .u_boot_list_2_cmd_2_gzwrite
                0x0000000011069708       0x38 cmd/built-in.o
                0x0000000011069708                _u_boot_list_2_cmd_2_gzwrite
 .u_boot_list_2_cmd_2_help
                0x0000000011069740       0x38 cmd/built-in.o
                0x0000000011069740                _u_boot_list_2_cmd_2_help
 .u_boot_list_2_cmd_2_iminfo
                0x0000000011069778       0x38 cmd/built-in.o
                0x0000000011069778                _u_boot_list_2_cmd_2_iminfo
 .u_boot_list_2_cmd_2_imxtract
                0x00000000110697b0       0x38 cmd/built-in.o
                0x00000000110697b0                _u_boot_list_2_cmd_2_imxtract
 .u_boot_list_2_cmd_2_itest
                0x00000000110697e8       0x38 cmd/built-in.o
                0x00000000110697e8                _u_boot_list_2_cmd_2_itest
 .u_boot_list_2_cmd_2_lcdputs
                0x0000000011069820       0x38 drivers/built-in.o
                0x0000000011069820                _u_boot_list_2_cmd_2_lcdputs
 .u_boot_list_2_cmd_2_load
                0x0000000011069858       0x38 cmd/built-in.o
                0x0000000011069858                _u_boot_list_2_cmd_2_load
 .u_boot_list_2_cmd_2_loadb
                0x0000000011069890       0x38 cmd/built-in.o
                0x0000000011069890                _u_boot_list_2_cmd_2_loadb
 .u_boot_list_2_cmd_2_loads
                0x00000000110698c8       0x38 cmd/built-in.o
                0x00000000110698c8                _u_boot_list_2_cmd_2_loads
 .u_boot_list_2_cmd_2_loadx
                0x0000000011069900       0x38 cmd/built-in.o
                0x0000000011069900                _u_boot_list_2_cmd_2_loadx
 .u_boot_list_2_cmd_2_loady
                0x0000000011069938       0x38 cmd/built-in.o
                0x0000000011069938                _u_boot_list_2_cmd_2_loady
 .u_boot_list_2_cmd_2_loop
                0x0000000011069970       0x38 cmd/built-in.o
                0x0000000011069970                _u_boot_list_2_cmd_2_loop
 .u_boot_list_2_cmd_2_ls
                0x00000000110699a8       0x38 cmd/built-in.o
                0x00000000110699a8                _u_boot_list_2_cmd_2_ls
 .u_boot_list_2_cmd_2_lzmadec
                0x00000000110699e0       0x38 cmd/built-in.o
                0x00000000110699e0                _u_boot_list_2_cmd_2_lzmadec
 .u_boot_list_2_cmd_2_md
                0x0000000011069a18       0x38 cmd/built-in.o
                0x0000000011069a18                _u_boot_list_2_cmd_2_md
 .u_boot_list_2_cmd_2_mdio
                0x0000000011069a50       0x38 cmd/built-in.o
                0x0000000011069a50                _u_boot_list_2_cmd_2_mdio
 .u_boot_list_2_cmd_2_mii
                0x0000000011069a88       0x38 cmd/built-in.o
                0x0000000011069a88                _u_boot_list_2_cmd_2_mii
 .u_boot_list_2_cmd_2_mm
                0x0000000011069ac0       0x38 cmd/built-in.o
                0x0000000011069ac0                _u_boot_list_2_cmd_2_mm
 .u_boot_list_2_cmd_2_mmc
                0x0000000011069af8       0x38 cmd/built-in.o
                0x0000000011069af8                _u_boot_list_2_cmd_2_mmc
 .u_boot_list_2_cmd_2_mmcinfo
                0x0000000011069b30       0x38 cmd/built-in.o
                0x0000000011069b30                _u_boot_list_2_cmd_2_mmcinfo
 .u_boot_list_2_cmd_2_mw
                0x0000000011069b68       0x38 cmd/built-in.o
                0x0000000011069b68                _u_boot_list_2_cmd_2_mw
 .u_boot_list_2_cmd_2_nfs
                0x0000000011069ba0       0x38 cmd/built-in.o
                0x0000000011069ba0                _u_boot_list_2_cmd_2_nfs
 .u_boot_list_2_cmd_2_nm
                0x0000000011069bd8       0x38 cmd/built-in.o
                0x0000000011069bd8                _u_boot_list_2_cmd_2_nm
 .u_boot_list_2_cmd_2_part
                0x0000000011069c10       0x38 cmd/built-in.o
                0x0000000011069c10                _u_boot_list_2_cmd_2_part
 .u_boot_list_2_cmd_2_ping
                0x0000000011069c48       0x38 cmd/built-in.o
                0x0000000011069c48                _u_boot_list_2_cmd_2_ping
 .u_boot_list_2_cmd_2_pinmux
                0x0000000011069c80       0x38 cmd/built-in.o
                0x0000000011069c80                _u_boot_list_2_cmd_2_pinmux
 .u_boot_list_2_cmd_2_printenv
                0x0000000011069cb8       0x38 cmd/built-in.o
                0x0000000011069cb8                _u_boot_list_2_cmd_2_printenv
 .u_boot_list_2_cmd_2_pxe
                0x0000000011069cf0       0x38 cmd/built-in.o
                0x0000000011069cf0                _u_boot_list_2_cmd_2_pxe
 .u_boot_list_2_cmd_2_question_mark
                0x0000000011069d28       0x38 cmd/built-in.o
                0x0000000011069d28                _u_boot_list_2_cmd_2_question_mark
 .u_boot_list_2_cmd_2_reset
                0x0000000011069d60       0x38 cmd/built-in.o
                0x0000000011069d60                _u_boot_list_2_cmd_2_reset
 .u_boot_list_2_cmd_2_run
                0x0000000011069d98       0x38 cmd/built-in.o
                0x0000000011069d98                _u_boot_list_2_cmd_2_run
 .u_boot_list_2_cmd_2_save
                0x0000000011069dd0       0x38 cmd/built-in.o
                0x0000000011069dd0                _u_boot_list_2_cmd_2_save
 .u_boot_list_2_cmd_2_saveenv
                0x0000000011069e08       0x38 cmd/built-in.o
                0x0000000011069e08                _u_boot_list_2_cmd_2_saveenv
 .u_boot_list_2_cmd_2_setcurs
                0x0000000011069e40       0x38 drivers/built-in.o
                0x0000000011069e40                _u_boot_list_2_cmd_2_setcurs
 .u_boot_list_2_cmd_2_setenv
                0x0000000011069e78       0x38 cmd/built-in.o
                0x0000000011069e78                _u_boot_list_2_cmd_2_setenv
 .u_boot_list_2_cmd_2_setexpr
                0x0000000011069eb0       0x38 cmd/built-in.o
                0x0000000011069eb0                _u_boot_list_2_cmd_2_setexpr
 .u_boot_list_2_cmd_2_showvar
                0x0000000011069ee8       0x38 common/built-in.o
                0x0000000011069ee8                _u_boot_list_2_cmd_2_showvar
 .u_boot_list_2_cmd_2_size
                0x0000000011069f20       0x38 cmd/built-in.o
                0x0000000011069f20                _u_boot_list_2_cmd_2_size
 .u_boot_list_2_cmd_2_sleep
                0x0000000011069f58       0x38 cmd/built-in.o
                0x0000000011069f58                _u_boot_list_2_cmd_2_sleep
 .u_boot_list_2_cmd_2_source
                0x0000000011069f90       0x38 cmd/built-in.o
                0x0000000011069f90                _u_boot_list_2_cmd_2_source
 .u_boot_list_2_cmd_2_sysboot
                0x0000000011069fc8       0x38 cmd/built-in.o
                0x0000000011069fc8                _u_boot_list_2_cmd_2_sysboot
 .u_boot_list_2_cmd_2_test
                0x000000001106a000       0x38 cmd/built-in.o
                0x000000001106a000                _u_boot_list_2_cmd_2_test
 .u_boot_list_2_cmd_2_tftpboot
                0x000000001106a038       0x38 cmd/built-in.o
                0x000000001106a038                _u_boot_list_2_cmd_2_tftpboot
 .u_boot_list_2_cmd_2_true
                0x000000001106a070       0x38 cmd/built-in.o
                0x000000001106a070                _u_boot_list_2_cmd_2_true
 .u_boot_list_2_cmd_2_unzip
                0x000000001106a0a8       0x38 cmd/built-in.o
                0x000000001106a0a8                _u_boot_list_2_cmd_2_unzip
 .u_boot_list_2_cmd_2_usb
                0x000000001106a0e0       0x38 cmd/built-in.o
                0x000000001106a0e0                _u_boot_list_2_cmd_2_usb
 .u_boot_list_2_cmd_2_usbboot
                0x000000001106a118       0x38 cmd/built-in.o
                0x000000001106a118                _u_boot_list_2_cmd_2_usbboot
 .u_boot_list_2_cmd_2_version
                0x000000001106a150       0x38 cmd/built-in.o
                0x000000001106a150                _u_boot_list_2_cmd_2_version
 .u_boot_list_2_cmd_3
                0x000000001106a188        0x0 cmd/built-in.o
 .u_boot_list_2_cmd_3
                0x000000001106a188        0x0 common/built-in.o
 .u_boot_list_2_driver_1
                0x000000001106a188        0x0 drivers/built-in.o
 .u_boot_list_2_driver_1
                0x000000001106a188        0x0 lib/built-in.o
 .u_boot_list_2_driver_2_bcm2835_sdhost
                0x000000001106a188       0x78 drivers/built-in.o
                0x000000001106a188                _u_boot_list_2_driver_2_bcm2835_sdhost
 .u_boot_list_2_driver_2_bcm2835_video
                0x000000001106a200       0x78 drivers/built-in.o
                0x000000001106a200                _u_boot_list_2_driver_2_bcm2835_video
 .u_boot_list_2_driver_2_bcm283x_pl011_uart
                0x000000001106a278       0x78 drivers/serial/built-in.o
                0x000000001106a278                _u_boot_list_2_driver_2_bcm283x_pl011_uart
 .u_boot_list_2_driver_2_efi_blk
                0x000000001106a2f0       0x78 lib/built-in.o
                0x000000001106a2f0                _u_boot_list_2_driver_2_efi_blk
 .u_boot_list_2_driver_2_efi_block
                0x000000001106a368       0x78 lib/built-in.o
                0x000000001106a368                _u_boot_list_2_driver_2_efi_block
 .u_boot_list_2_driver_2_gpio_bcm2835
                0x000000001106a3e0       0x78 drivers/gpio/built-in.o
                0x000000001106a3e0                _u_boot_list_2_driver_2_gpio_bcm2835
 .u_boot_list_2_driver_2_lan78xx_eth
                0x000000001106a458       0x78 drivers/usb/eth/built-in.o
                0x000000001106a458                _u_boot_list_2_driver_2_lan78xx_eth
 .u_boot_list_2_driver_2_mmc
                0x000000001106a4d0       0x78 drivers/built-in.o
                0x000000001106a4d0                _u_boot_list_2_driver_2_mmc
 .u_boot_list_2_driver_2_mmc_blk
                0x000000001106a548       0x78 drivers/built-in.o
                0x000000001106a548                _u_boot_list_2_driver_2_mmc_blk
 .u_boot_list_2_driver_2_pinconfig_generic
                0x000000001106a5c0       0x78 drivers/built-in.o
                0x000000001106a5c0                _u_boot_list_2_driver_2_pinconfig_generic
 .u_boot_list_2_driver_2_pinctrl_bcm283x
                0x000000001106a638       0x78 drivers/built-in.o
                0x000000001106a638                _u_boot_list_2_driver_2_pinctrl_bcm283x
 .u_boot_list_2_driver_2_root_driver
                0x000000001106a6b0       0x78 drivers/built-in.o
                0x000000001106a6b0                _u_boot_list_2_driver_2_root_driver
 .u_boot_list_2_driver_2_sdhci_cdns
                0x000000001106a728       0x78 drivers/built-in.o
                0x000000001106a728                _u_boot_list_2_driver_2_sdhci_cdns
 .u_boot_list_2_driver_2_serial_bcm283x_mu
                0x000000001106a7a0       0x78 drivers/serial/built-in.o
                0x000000001106a7a0                _u_boot_list_2_driver_2_serial_bcm283x_mu
 .u_boot_list_2_driver_2_serial_pl01x
                0x000000001106a818       0x78 drivers/serial/built-in.o
                0x000000001106a818                _u_boot_list_2_driver_2_serial_pl01x
 .u_boot_list_2_driver_2_simple_bus_drv
                0x000000001106a890       0x78 drivers/built-in.o
                0x000000001106a890                _u_boot_list_2_driver_2_simple_bus_drv
 .u_boot_list_2_driver_2_simple_panel
                0x000000001106a908       0x78 drivers/built-in.o
                0x000000001106a908                _u_boot_list_2_driver_2_simple_panel
 .u_boot_list_2_driver_2_smsc95xx_eth
                0x000000001106a980       0x78 drivers/usb/eth/built-in.o
                0x000000001106a980                _u_boot_list_2_driver_2_smsc95xx_eth
 .u_boot_list_2_driver_2_usb_dev_generic_drv
                0x000000001106a9f8       0x78 drivers/usb/host/built-in.o
                0x000000001106a9f8                _u_boot_list_2_driver_2_usb_dev_generic_drv
 .u_boot_list_2_driver_2_usb_dwc2
                0x000000001106aa70       0x78 drivers/usb/host/built-in.o
                0x000000001106aa70                _u_boot_list_2_driver_2_usb_dwc2
 .u_boot_list_2_driver_2_usb_generic_hub
                0x000000001106aae8       0x78 common/built-in.o
                0x000000001106aae8                _u_boot_list_2_driver_2_usb_generic_hub
 .u_boot_list_2_driver_2_usb_kbd
                0x000000001106ab60       0x78 common/built-in.o
                0x000000001106ab60                _u_boot_list_2_driver_2_usb_kbd
 .u_boot_list_2_driver_2_usb_mass_storage
                0x000000001106abd8       0x78 common/built-in.o
                0x000000001106abd8                _u_boot_list_2_driver_2_usb_mass_storage
 .u_boot_list_2_driver_2_usb_storage_blk
                0x000000001106ac50       0x78 common/built-in.o
                0x000000001106ac50                _u_boot_list_2_driver_2_usb_storage_blk
 .u_boot_list_2_driver_2_vidconsole_normal
                0x000000001106acc8       0x78 drivers/built-in.o
                0x000000001106acc8                _u_boot_list_2_driver_2_vidconsole_normal
 .u_boot_list_2_driver_3
                0x000000001106ad40        0x0 drivers/built-in.o
 .u_boot_list_2_driver_3
                0x000000001106ad40        0x0 lib/built-in.o
 .u_boot_list_2_driver_info_1
                0x000000001106ad40        0x0 drivers/built-in.o
 .u_boot_list_2_driver_info_3
                0x000000001106ad40        0x0 drivers/built-in.o
 .u_boot_list_2_env_clbk_1
                0x000000001106ad40        0x0 env/built-in.o
 .u_boot_list_2_env_clbk_2_baudrate
                0x000000001106ad40       0x10 drivers/serial/built-in.o
                0x000000001106ad40                _u_boot_list_2_env_clbk_2_baudrate
 .u_boot_list_2_env_clbk_2_callbacks
                0x000000001106ad50       0x10 env/built-in.o
                0x000000001106ad50                _u_boot_list_2_env_clbk_2_callbacks
 .u_boot_list_2_env_clbk_2_console
                0x000000001106ad60       0x10 common/built-in.o
                0x000000001106ad60                _u_boot_list_2_env_clbk_2_console
 .u_boot_list_2_env_clbk_2_ethaddr
                0x000000001106ad70       0x10 net/built-in.o
                0x000000001106ad70                _u_boot_list_2_env_clbk_2_ethaddr
 .u_boot_list_2_env_clbk_2_flags
                0x000000001106ad80       0x10 env/built-in.o
                0x000000001106ad80                _u_boot_list_2_env_clbk_2_flags
 .u_boot_list_2_env_clbk_2_gatewayip
                0x000000001106ad90       0x10 net/built-in.o
                0x000000001106ad90                _u_boot_list_2_env_clbk_2_gatewayip
 .u_boot_list_2_env_clbk_2_ipaddr
                0x000000001106ada0       0x10 net/built-in.o
                0x000000001106ada0                _u_boot_list_2_env_clbk_2_ipaddr
 .u_boot_list_2_env_clbk_2_loadaddr
                0x000000001106adb0       0x10 common/built-in.o
                0x000000001106adb0                _u_boot_list_2_env_clbk_2_loadaddr
 .u_boot_list_2_env_clbk_2_netmask
                0x000000001106adc0       0x10 net/built-in.o
                0x000000001106adc0                _u_boot_list_2_env_clbk_2_netmask
 .u_boot_list_2_env_clbk_2_nvlan
                0x000000001106add0       0x10 net/built-in.o
                0x000000001106add0                _u_boot_list_2_env_clbk_2_nvlan
 .u_boot_list_2_env_clbk_2_serverip
                0x000000001106ade0       0x10 net/built-in.o
                0x000000001106ade0                _u_boot_list_2_env_clbk_2_serverip
 .u_boot_list_2_env_clbk_2_vlan
                0x000000001106adf0       0x10 net/built-in.o
                0x000000001106adf0                _u_boot_list_2_env_clbk_2_vlan
 .u_boot_list_2_env_clbk_3
                0x000000001106ae00        0x0 env/built-in.o
 .u_boot_list_2_env_driver_1
                0x000000001106ae00        0x0 env/built-in.o
 .u_boot_list_2_env_driver_2_fat
                0x000000001106ae00       0x28 env/built-in.o
                0x000000001106ae00                _u_boot_list_2_env_driver_2_fat
 .u_boot_list_2_env_driver_3
                0x000000001106ae28        0x0 env/built-in.o
 .u_boot_list_2_part_driver_1
                0x000000001106ae28        0x0 disk/built-in.o
 .u_boot_list_2_part_driver_2_a_efi
                0x000000001106ae28       0x28 disk/built-in.o
                0x000000001106ae28                _u_boot_list_2_part_driver_2_a_efi
 .u_boot_list_2_part_driver_2_dos
                0x000000001106ae50       0x28 disk/built-in.o
                0x000000001106ae50                _u_boot_list_2_part_driver_2_dos
 .u_boot_list_2_part_driver_2_iso
                0x000000001106ae78       0x28 disk/built-in.o
                0x000000001106ae78                _u_boot_list_2_part_driver_2_iso
 .u_boot_list_2_part_driver_3
                0x000000001106aea0        0x0 disk/built-in.o
 .u_boot_list_2_uclass_1
                0x000000001106aea0        0x0 drivers/built-in.o
 .u_boot_list_2_uclass_2_backlight
                0x000000001106aea0       0x88 drivers/built-in.o
                0x000000001106aea0                _u_boot_list_2_uclass_2_backlight
 .u_boot_list_2_uclass_2_blk
                0x000000001106af28       0x88 drivers/built-in.o
                0x000000001106af28                _u_boot_list_2_uclass_2_blk
 .u_boot_list_2_uclass_2_efi
                0x000000001106afb0       0x88 lib/built-in.o
                0x000000001106afb0                _u_boot_list_2_uclass_2_efi
 .u_boot_list_2_uclass_2_eth
                0x000000001106b038       0x88 net/built-in.o
                0x000000001106b038                _u_boot_list_2_uclass_2_eth
 .u_boot_list_2_uclass_2_gpio
                0x000000001106b0c0       0x88 drivers/gpio/built-in.o
                0x000000001106b0c0                _u_boot_list_2_uclass_2_gpio
 .u_boot_list_2_uclass_2_keyboard
                0x000000001106b148       0x88 drivers/built-in.o
                0x000000001106b148                _u_boot_list_2_uclass_2_keyboard
 .u_boot_list_2_uclass_2_mmc
                0x000000001106b1d0       0x88 drivers/built-in.o
                0x000000001106b1d0                _u_boot_list_2_uclass_2_mmc
 .u_boot_list_2_uclass_2_panel
                0x000000001106b258       0x88 drivers/built-in.o
                0x000000001106b258                _u_boot_list_2_uclass_2_panel
 .u_boot_list_2_uclass_2_pinconfig
                0x000000001106b2e0       0x88 drivers/built-in.o
                0x000000001106b2e0                _u_boot_list_2_uclass_2_pinconfig
 .u_boot_list_2_uclass_2_pinctrl
                0x000000001106b368       0x88 drivers/built-in.o
                0x000000001106b368                _u_boot_list_2_uclass_2_pinctrl
 .u_boot_list_2_uclass_2_root
                0x000000001106b3f0       0x88 drivers/built-in.o
                0x000000001106b3f0                _u_boot_list_2_uclass_2_root
 .u_boot_list_2_uclass_2_serial
                0x000000001106b478       0x88 drivers/serial/built-in.o
                0x000000001106b478                _u_boot_list_2_uclass_2_serial
 .u_boot_list_2_uclass_2_simple_bus
                0x000000001106b500       0x88 drivers/built-in.o
                0x000000001106b500                _u_boot_list_2_uclass_2_simple_bus
 .u_boot_list_2_uclass_2_usb
                0x000000001106b588       0x88 drivers/usb/host/built-in.o
                0x000000001106b588                _u_boot_list_2_uclass_2_usb
 .u_boot_list_2_uclass_2_usb_dev_generic
                0x000000001106b610       0x88 drivers/usb/host/built-in.o
                0x000000001106b610                _u_boot_list_2_uclass_2_usb_dev_generic
 .u_boot_list_2_uclass_2_usb_hub
                0x000000001106b698       0x88 common/built-in.o
                0x000000001106b698                _u_boot_list_2_uclass_2_usb_hub
 .u_boot_list_2_uclass_2_usb_mass_storage
                0x000000001106b720       0x88 common/built-in.o
                0x000000001106b720                _u_boot_list_2_uclass_2_usb_mass_storage
 .u_boot_list_2_uclass_2_vidconsole
                0x000000001106b7a8       0x88 drivers/built-in.o
                0x000000001106b7a8                _u_boot_list_2_uclass_2_vidconsole
 .u_boot_list_2_uclass_2_video
                0x000000001106b830       0x88 drivers/built-in.o
                0x000000001106b830                _u_boot_list_2_uclass_2_video
 .u_boot_list_2_uclass_3
                0x000000001106b8b8        0x0 drivers/built-in.o
 .u_boot_list_2_usb_driver_entry_1
                0x000000001106b8b8        0x0 drivers/usb/host/built-in.o
 .u_boot_list_2_usb_driver_entry_2_lan78xx_eth
                0x000000001106b8b8       0x10 drivers/usb/eth/built-in.o
                0x000000001106b8b8                _u_boot_list_2_usb_driver_entry_2_lan78xx_eth
 .u_boot_list_2_usb_driver_entry_2_smsc95xx_eth
                0x000000001106b8c8       0x10 drivers/usb/eth/built-in.o
                0x000000001106b8c8                _u_boot_list_2_usb_driver_entry_2_smsc95xx_eth
 .u_boot_list_2_usb_driver_entry_2_usb_generic_hub
                0x000000001106b8d8       0x10 common/built-in.o
                0x000000001106b8d8                _u_boot_list_2_usb_driver_entry_2_usb_generic_hub
 .u_boot_list_2_usb_driver_entry_2_usb_kbd
                0x000000001106b8e8       0x10 common/built-in.o
                0x000000001106b8e8                _u_boot_list_2_usb_driver_entry_2_usb_kbd
 .u_boot_list_2_usb_driver_entry_2_usb_mass_storage
                0x000000001106b8f8       0x10 common/built-in.o
                0x000000001106b8f8                _u_boot_list_2_usb_driver_entry_2_usb_mass_storage
 .u_boot_list_2_usb_driver_entry_3
                0x000000001106b908        0x0 drivers/usb/host/built-in.o
                0x000000001106b908                . = ALIGN (0x8)

.efi_runtime_rel
                0x000000001106b908      0x1e0
                0x000000001106b908                __efi_runtime_rel_start = .
 *(.rel*.efi_runtime)
 .rela.data.efi_runtime
                0x000000001106b908      0x1e0 arch/arm/cpu/armv8/start.o
 *(.rel*.efi_runtime.*)
                0x000000001106bae8                __efi_runtime_rel_stop = .
                0x000000001106bae8                . = ALIGN (0x8)

.image_copy_end
                0x000000001106bae8        0x0
 *(.__image_copy_end)
 .__image_copy_end
                0x000000001106bae8        0x0 arch/arm/lib/built-in.o
                0x000000001106bae8                . = ALIGN (0x8)

.rel_dyn_start  0x000000001106bae8        0x0
 *(.__rel_dyn_start)
 .__rel_dyn_start
                0x000000001106bae8        0x0 arch/arm/lib/built-in.o

.rela.dyn       0x000000001106bae8     0xabd8
 *(.rela*)
 .rela.got      0x000000001106bae8        0x0 arch/arm/cpu/armv8/start.o
 .rela.plt      0x000000001106bae8        0x0 arch/arm/cpu/armv8/start.o
 .rela.bss      0x000000001106bae8        0x0 arch/arm/cpu/armv8/start.o
 .rela.data.rel.ro
                0x000000001106bae8        0x0 arch/arm/cpu/armv8/start.o
 .rela.ifunc    0x000000001106bae8        0x0 arch/arm/cpu/armv8/start.o
 .rela.text     0x000000001106bae8       0x30 arch/arm/cpu/armv8/start.o
 .rela.rodata.rpi_model_unknown
                0x000000001106bb18       0x30 arch/arm/cpu/armv8/start.o
 .rela.rodata.rpi_models_new_scheme
                0x000000001106bb48      0x240 arch/arm/cpu/armv8/start.o
 .rela.rodata.rpi_models_old_scheme
                0x000000001106bd88      0x330 arch/arm/cpu/armv8/start.o
 .rela.data.mem_map
                0x000000001106c0b8       0x18 arch/arm/cpu/armv8/start.o
 .rela.rodata.fdt_member_table
                0x000000001106c0d0       0xf0 arch/arm/cpu/armv8/start.o
 .rela.rodata.op_table
                0x000000001106c1c0      0x138 arch/arm/cpu/armv8/start.o
 .rela.rodata.desc_and_len_tbl
                0x000000001106c2f8       0x90 arch/arm/cpu/armv8/start.o
 .rela.rodata.reg_0_5_desc_tbl
                0x000000001106c388       0x90 arch/arm/cpu/armv8/start.o
 .rela.rodata.reg_0_desc_tbl
                0x000000001106c418       0xf0 arch/arm/cpu/armv8/start.o
 .rela.rodata.reg_1_desc_tbl
                0x000000001106c508      0x180 arch/arm/cpu/armv8/start.o
 .rela.rodata.reg_2_desc_tbl
                0x000000001106c688       0x18 arch/arm/cpu/armv8/start.o
 .rela.rodata.reg_3_desc_tbl
                0x000000001106c6a0       0x48 arch/arm/cpu/armv8/start.o
 .rela.rodata.reg_4_desc_tbl
                0x000000001106c6e8      0x120 arch/arm/cpu/armv8/start.o
 .rela.rodata.reg_5_desc_tbl
                0x000000001106c808      0x120 arch/arm/cpu/armv8/start.o
 .rela.rodata.keywords
                0x000000001106c928      0x1b0 arch/arm/cpu/armv8/start.o
 .rela.rodata.op_adv
                0x000000001106cad8      0x180 arch/arm/cpu/armv8/start.o
 .rela.rodata.CSWTCH.40
                0x000000001106cc58       0x78 arch/arm/cpu/armv8/start.o
 .rela.u_boot_list_2_cmd_2_go
                0x000000001106ccd0       0x78 arch/arm/cpu/armv8/start.o
 .rela.u_boot_list_2_cmd_2_reset
                0x000000001106cd48       0x78 arch/arm/cpu/armv8/start.o
 .rela.data.cmd_bootm_sub
                0x000000001106cdc0      0x360 arch/arm/cpu/armv8/start.o
 .rela.u_boot_list_2_cmd_2_boot
                0x000000001106d120       0x78 arch/arm/cpu/armv8/start.o
 .rela.u_boot_list_2_cmd_2_bootd
                0x000000001106d198       0x78 arch/arm/cpu/armv8/start.o
 .rela.u_boot_list_2_cmd_2_bootm
                0x000000001106d210       0x78 arch/arm/cpu/armv8/start.o
 .rela.u_boot_list_2_cmd_2_iminfo
                0x000000001106d288       0x78 arch/arm/cpu/armv8/start.o
 .rela.u_boot_list_2_cmd_2_help
                0x000000001106d300       0x78 arch/arm/cpu/armv8/start.o
 .rela.u_boot_list_2_cmd_2_question_mark
                0x000000001106d378       0x78 arch/arm/cpu/armv8/start.o
 .rela.u_boot_list_2_cmd_2_version
                0x000000001106d3f0       0x78 arch/arm/cpu/armv8/start.o
 .rela.u_boot_list_2_cmd_2_source
                0x000000001106d468       0x78 arch/arm/cpu/armv8/start.o
 .rela.u_boot_list_2_cmd_2_bdinfo
                0x000000001106d4e0       0x78 arch/arm/cpu/armv8/start.o
 .rela.data.cmd_blkc_sub
                0x000000001106d558       0xf0 arch/arm/cpu/armv8/start.o
 .rela.u_boot_list_2_cmd_2_blkcache
                0x000000001106d648       0x78 arch/arm/cpu/armv8/start.o
 .rela.u_boot_list_2_cmd_2_bootefi
                0x000000001106d6c0       0x78 arch/arm/cpu/armv8/start.o
 .rela.u_boot_list_2_cmd_2_booti
                0x000000001106d738       0x78 arch/arm/cpu/armv8/start.o
 .rela.u_boot_list_2_cmd_2_coninfo
                0x000000001106d7b0       0x78 arch/arm/cpu/armv8/start.o
 .rela.data.test_commands
                0x000000001106d828      0x168 arch/arm/cpu/armv8/start.o
 .rela.u_boot_list_2_cmd_2_dm
                0x000000001106d990       0x78 arch/arm/cpu/armv8/start.o
 .rela.u_boot_list_2_cmd_2_echo
                0x000000001106da08       0x78 arch/arm/cpu/armv8/start.o
 .rela.u_boot_list_2_cmd_2_bootelf
                0x000000001106da80       0x78 arch/arm/cpu/armv8/start.o
 .rela.u_boot_list_2_cmd_2_bootvx
                0x000000001106daf8       0x78 arch/arm/cpu/armv8/start.o
 .rela.u_boot_list_2_cmd_2_exit
                0x000000001106db70       0x78 arch/arm/cpu/armv8/start.o
 .rela.u_boot_list_2_cmd_2_ext4load
                0x000000001106dbe8       0x78 arch/arm/cpu/armv8/start.o
 .rela.u_boot_list_2_cmd_2_ext4ls
                0x000000001106dc60       0x78 arch/arm/cpu/armv8/start.o
 .rela.u_boot_list_2_cmd_2_ext4size
                0x000000001106dcd8       0x78 arch/arm/cpu/armv8/start.o
 .rela.u_boot_list_2_cmd_2_ext2load
                0x000000001106dd50       0x78 arch/arm/cpu/armv8/start.o
 .rela.u_boot_list_2_cmd_2_ext2ls
                0x000000001106ddc8       0x78 arch/arm/cpu/armv8/start.o
 .rela.u_boot_list_2_cmd_2_fatinfo
                0x000000001106de40       0x78 arch/arm/cpu/armv8/start.o
 .rela.u_boot_list_2_cmd_2_fatload
                0x000000001106deb8       0x78 arch/arm/cpu/armv8/start.o
 .rela.u_boot_list_2_cmd_2_fatls
                0x000000001106df30       0x78 arch/arm/cpu/armv8/start.o
 .rela.u_boot_list_2_cmd_2_fatmkdir
                0x000000001106dfa8       0x78 arch/arm/cpu/armv8/start.o
 .rela.u_boot_list_2_cmd_2_fatrm
                0x000000001106e020       0x78 arch/arm/cpu/armv8/start.o
 .rela.u_boot_list_2_cmd_2_fatsize
                0x000000001106e098       0x78 arch/arm/cpu/armv8/start.o
 .rela.u_boot_list_2_cmd_2_fatwrite
                0x000000001106e110       0x78 arch/arm/cpu/armv8/start.o
 .rela.u_boot_list_2_cmd_2_fdt
                0x000000001106e188       0x78 arch/arm/cpu/armv8/start.o
 .rela.u_boot_list_2_cmd_2_fstype
                0x000000001106e200       0x78 arch/arm/cpu/armv8/start.o
 .rela.u_boot_list_2_cmd_2_load
                0x000000001106e278       0x78 arch/arm/cpu/armv8/start.o
 .rela.u_boot_list_2_cmd_2_ls
                0x000000001106e2f0       0x78 arch/arm/cpu/armv8/start.o
 .rela.u_boot_list_2_cmd_2_save
                0x000000001106e368       0x78 arch/arm/cpu/armv8/start.o
 .rela.u_boot_list_2_cmd_2_size
                0x000000001106e3e0       0x78 arch/arm/cpu/armv8/start.o
 .rela.u_boot_list_2_cmd_2_gpio
                0x000000001106e458       0x78 arch/arm/cpu/armv8/start.o
 .rela.u_boot_list_2_cmd_2_itest
                0x000000001106e4d0       0x78 arch/arm/cpu/armv8/start.o
 .rela.u_boot_list_2_cmd_2_loadb
                0x000000001106e548       0x78 arch/arm/cpu/armv8/start.o
 .rela.u_boot_list_2_cmd_2_loads
                0x000000001106e5c0       0x78 arch/arm/cpu/armv8/start.o
 .rela.u_boot_list_2_cmd_2_loadx
                0x000000001106e638       0x78 arch/arm/cpu/armv8/start.o
 .rela.u_boot_list_2_cmd_2_loady
                0x000000001106e6b0       0x78 arch/arm/cpu/armv8/start.o
 .rela.u_boot_list_2_cmd_2_base
                0x000000001106e728       0x78 arch/arm/cpu/armv8/start.o
 .rela.u_boot_list_2_cmd_2_cmp
                0x000000001106e7a0       0x78 arch/arm/cpu/armv8/start.o
 .rela.u_boot_list_2_cmd_2_cp
                0x000000001106e818       0x78 arch/arm/cpu/armv8/start.o
 .rela.u_boot_list_2_cmd_2_crc32
                0x000000001106e890       0x78 arch/arm/cpu/armv8/start.o
 .rela.u_boot_list_2_cmd_2_loop
                0x000000001106e908       0x78 arch/arm/cpu/armv8/start.o
 .rela.u_boot_list_2_cmd_2_md
                0x000000001106e980       0x78 arch/arm/cpu/armv8/start.o
 .rela.u_boot_list_2_cmd_2_mm
                0x000000001106e9f8       0x78 arch/arm/cpu/armv8/start.o
 .rela.u_boot_list_2_cmd_2_mw
                0x000000001106ea70       0x78 arch/arm/cpu/armv8/start.o
 .rela.u_boot_list_2_cmd_2_nm
                0x000000001106eae8       0x78 arch/arm/cpu/armv8/start.o
 .rela.u_boot_list_2_cmd_2_mii
                0x000000001106eb60       0x78 arch/arm/cpu/armv8/start.o
 .rela.u_boot_list_2_cmd_2_mdio
                0x000000001106ebd8       0x78 arch/arm/cpu/armv8/start.o
 .rela.u_boot_list_2_cmd_2_sleep
                0x000000001106ec50       0x78 arch/arm/cpu/armv8/start.o
 .rela.data.cmd_mmc
                0x000000001106ecc8      0x4b0 arch/arm/cpu/armv8/start.o
 .rela.u_boot_list_2_cmd_2_mmc
                0x000000001106f178       0x78 arch/arm/cpu/armv8/start.o
 .rela.u_boot_list_2_cmd_2_mmcinfo
                0x000000001106f1f0       0x78 arch/arm/cpu/armv8/start.o
 .rela.u_boot_list_2_cmd_2_bootp
                0x000000001106f268       0x78 arch/arm/cpu/armv8/start.o
 .rela.u_boot_list_2_cmd_2_dhcp
                0x000000001106f2e0       0x78 arch/arm/cpu/armv8/start.o
 .rela.u_boot_list_2_cmd_2_nfs
                0x000000001106f358       0x78 arch/arm/cpu/armv8/start.o
 .rela.u_boot_list_2_cmd_2_ping
                0x000000001106f3d0       0x78 arch/arm/cpu/armv8/start.o
 .rela.u_boot_list_2_cmd_2_tftpboot
                0x000000001106f448       0x78 arch/arm/cpu/armv8/start.o
 .rela.u_boot_list_2_cmd_2_part
                0x000000001106f4c0       0x78 arch/arm/cpu/armv8/start.o
 .rela.data.pinmux_subcmd
                0x000000001106f538      0x168 arch/arm/cpu/armv8/start.o
 .rela.u_boot_list_2_cmd_2_pinmux
                0x000000001106f6a0       0x78 arch/arm/cpu/armv8/start.o
 .rela.data.cmd_pxe_sub
                0x000000001106f718       0xf0 arch/arm/cpu/armv8/start.o
 .rela.data.pxe_default_paths
                0x000000001106f808       0x48 arch/arm/cpu/armv8/start.o
 .rela.u_boot_list_2_cmd_2_pxe
                0x000000001106f850       0x78 arch/arm/cpu/armv8/start.o
 .rela.u_boot_list_2_cmd_2_sysboot
                0x000000001106f8c8       0x78 arch/arm/cpu/armv8/start.o
 .rela.u_boot_list_2_cmd_2_setexpr
                0x000000001106f940       0x78 arch/arm/cpu/armv8/start.o
 .rela.u_boot_list_2_cmd_2_false
                0x000000001106f9b8       0x60 arch/arm/cpu/armv8/start.o
 .rela.u_boot_list_2_cmd_2_test
                0x000000001106fa18       0x78 arch/arm/cpu/armv8/start.o
 .rela.u_boot_list_2_cmd_2_true
                0x000000001106fa90       0x60 arch/arm/cpu/armv8/start.o
 .rela.u_boot_list_2_cmd_2_gzwrite
                0x000000001106faf0       0x78 arch/arm/cpu/armv8/start.o
 .rela.u_boot_list_2_cmd_2_unzip
                0x000000001106fb68       0x78 arch/arm/cpu/armv8/start.o
 .rela.u_boot_list_2_cmd_2_lzmadec
                0x000000001106fbe0       0x78 arch/arm/cpu/armv8/start.o
 .rela.u_boot_list_2_cmd_2_usb
                0x000000001106fc58       0x78 arch/arm/cpu/armv8/start.o
 .rela.u_boot_list_2_cmd_2_usbboot
                0x000000001106fcd0       0x78 arch/arm/cpu/armv8/start.o
 .rela.u_boot_list_2_cmd_2_fsuuid
                0x000000001106fd48       0x78 arch/arm/cpu/armv8/start.o
 .rela.u_boot_list_2_cmd_2_imxtract
                0x000000001106fdc0       0x78 arch/arm/cpu/armv8/start.o
 .rela.data.cmd_env_sub
                0x000000001106fe38      0x4b0 arch/arm/cpu/armv8/start.o
 .rela.u_boot_list_2_cmd_2_editenv
                0x00000000110702e8       0x90 arch/arm/cpu/armv8/start.o
 .rela.u_boot_list_2_cmd_2_env
                0x0000000011070378       0x78 arch/arm/cpu/armv8/start.o
 .rela.u_boot_list_2_cmd_2_printenv
                0x00000000110703f0       0x90 arch/arm/cpu/armv8/start.o
 .rela.u_boot_list_2_cmd_2_run
                0x0000000011070480       0x90 arch/arm/cpu/armv8/start.o
 .rela.u_boot_list_2_cmd_2_saveenv
                0x0000000011070510       0x78 arch/arm/cpu/armv8/start.o
 .rela.u_boot_list_2_cmd_2_setenv
                0x0000000011070588       0x90 arch/arm/cpu/armv8/start.o
 .rela.rodata.init_sequence_f
                0x0000000011070618      0x3f0 arch/arm/cpu/armv8/start.o
 .rela.rodata.boot_os
                0x0000000011070a08       0xa8 arch/arm/cpu/armv8/start.o
 .rela.rodata.usb_hub_ids
                0x0000000011070ab0       0x18 arch/arm/cpu/armv8/start.o
 .rela.rodata.usb_mass_storage_ids
                0x0000000011070ac8       0x18 arch/arm/cpu/armv8/start.o
 .rela.rodata.usb_storage_ops
                0x0000000011070ae0       0x30 arch/arm/cpu/armv8/start.o
 .rela.rodata.usb_kbd_ids
                0x0000000011070b10       0x18 arch/arm/cpu/armv8/start.o
 .rela.rodata.uimage_arch
                0x0000000011070b28      0x510 arch/arm/cpu/armv8/start.o
 .rela.rodata.uimage_comp
                0x0000000011071038      0x150 arch/arm/cpu/armv8/start.o
 .rela.rodata.uimage_os
                0x0000000011071188      0x240 arch/arm/cpu/armv8/start.o
 .rela.rodata.uimage_type
                0x00000000110713c8      0x750 arch/arm/cpu/armv8/start.o
 .rela.rodata.CSWTCH.27
                0x0000000011071b18       0xc0 arch/arm/cpu/armv8/start.o
 .rela.data.reserved_list
                0x0000000011071bd8      0x108 arch/arm/cpu/armv8/start.o
 .rela.u_boot_list_2_cmd_2_showvar
                0x0000000011071ce0       0x78 arch/arm/cpu/armv8/start.o
 .rela.data.init_sequence_r
                0x0000000011071d58      0x2b8 arch/arm/cpu/armv8/start.o
 .rela.data.of_busses
                0x0000000011072010       0x78 arch/arm/cpu/armv8/start.o
 .rela.data.usb_scan_list
                0x0000000011072088       0x30 arch/arm/cpu/armv8/start.o
 .rela.u_boot_list_2_driver_2_usb_generic_hub
                0x00000000110720b8       0x30 arch/arm/cpu/armv8/start.o
 .rela.u_boot_list_2_uclass_2_usb_hub
                0x00000000110720e8       0x60 arch/arm/cpu/armv8/start.o
 .rela.u_boot_list_2_usb_driver_entry_2_usb_generic_hub
                0x0000000011072148       0x30 arch/arm/cpu/armv8/start.o
 .rela.u_boot_list_2_driver_2_usb_mass_storage
                0x0000000011072178       0x48 arch/arm/cpu/armv8/start.o
 .rela.u_boot_list_2_driver_2_usb_storage_blk
                0x00000000110721c0       0x30 arch/arm/cpu/armv8/start.o
 .rela.u_boot_list_2_uclass_2_usb_mass_storage
                0x00000000110721f0       0x18 arch/arm/cpu/armv8/start.o
 .rela.u_boot_list_2_usb_driver_entry_2_usb_mass_storage
                0x0000000011072208       0x30 arch/arm/cpu/armv8/start.o
 .rela.u_boot_list_2_driver_2_usb_kbd
                0x0000000011072238       0x60 arch/arm/cpu/armv8/start.o
 .rela.u_boot_list_2_usb_driver_entry_2_usb_kbd
                0x0000000011072298       0x30 arch/arm/cpu/armv8/start.o
 .rela.u_boot_list_2_env_clbk_2_console
                0x00000000110722c8       0x30 arch/arm/cpu/armv8/start.o
 .rela.data.av_
                0x00000000110722f8     0x1800 arch/arm/cpu/armv8/start.o
 .rela.u_boot_list_2_env_clbk_2_loadaddr
                0x0000000011073af8       0x30 arch/arm/cpu/armv8/start.o
 .rela.data.stdio_names
                0x0000000011073b28       0x48 arch/arm/cpu/armv8/start.o
 .rela.rodata.CSWTCH.26
                0x0000000011073b70       0xc0 arch/arm/cpu/armv8/start.o
 .rela.u_boot_list_2_part_driver_2_dos
                0x0000000011073c30       0x60 arch/arm/cpu/armv8/start.o
 .rela.u_boot_list_2_part_driver_2_iso
                0x0000000011073c90       0x60 arch/arm/cpu/armv8/start.o
 .rela.u_boot_list_2_part_driver_2_a_efi
                0x0000000011073cf0       0x60 arch/arm/cpu/armv8/start.o
 .rela.rodata.root_info
                0x0000000011073d50       0x18 arch/arm/cpu/armv8/start.o
 .rela.rodata.generic_simple_bus_ids
                0x0000000011073d68       0x30 arch/arm/cpu/armv8/start.o
 .rela.rodata.bcm2835_pinctrl_id
                0x0000000011073d98       0x18 arch/arm/cpu/armv8/start.o
 .rela.rodata.if_typename_str
                0x0000000011073db0      0x120 arch/arm/cpu/armv8/start.o
 .rela.rodata.names.9108
                0x0000000011073ed0      0x138 arch/arm/cpu/armv8/start.o
 .rela.rodata.mmc_blk_ops
                0x0000000011074008       0x60 arch/arm/cpu/armv8/start.o
 .rela.rodata.sdhci_ops
                0x0000000011074068       0x30 arch/arm/cpu/armv8/start.o
 .rela.rodata.bcm2835_ops
                0x0000000011074098       0xc0 arch/arm/cpu/armv8/start.o
 .rela.rodata.bcm2835_sdhci_match
                0x0000000011074158       0x18 arch/arm/cpu/armv8/start.o
 .rela.rodata.bcm2835_match
                0x0000000011074170       0x18 arch/arm/cpu/armv8/start.o
 .rela.rodata.simple_panel_ids
                0x0000000011074188       0x60 arch/arm/cpu/armv8/start.o
 .rela.rodata.simple_panel_ops
                0x00000000110741e8       0x30 arch/arm/cpu/armv8/start.o
 .rela.rodata.bcm2835_video_ids
                0x0000000011074218       0x30 arch/arm/cpu/armv8/start.o
 .rela.u_boot_list_2_driver_2_root_driver
                0x0000000011074248       0x18 arch/arm/cpu/armv8/start.o
 .rela.u_boot_list_2_uclass_2_root
                0x0000000011074260       0x18 arch/arm/cpu/armv8/start.o
 .rela.u_boot_list_2_driver_2_simple_bus_drv
                0x0000000011074278       0x30 arch/arm/cpu/armv8/start.o
 .rela.u_boot_list_2_uclass_2_simple_bus
                0x00000000110742a8       0x30 arch/arm/cpu/armv8/start.o
 .rela.u_boot_list_2_uclass_2_keyboard
                0x00000000110742d8       0x30 arch/arm/cpu/armv8/start.o
 .rela.u_boot_list_2_driver_2_pinconfig_generic
                0x0000000011074308       0x18 arch/arm/cpu/armv8/start.o
 .rela.u_boot_list_2_uclass_2_pinconfig
                0x0000000011074320       0x30 arch/arm/cpu/armv8/start.o
 .rela.u_boot_list_2_uclass_2_pinctrl
                0x0000000011074350       0x30 arch/arm/cpu/armv8/start.o
 .rela.data.bcm283x_pinctrl_ops
                0x0000000011074380       0x30 arch/arm/cpu/armv8/start.o
 .rela.u_boot_list_2_driver_2_pinctrl_bcm283x
                0x00000000110743b0       0x60 arch/arm/cpu/armv8/start.o
 .rela.u_boot_list_2_uclass_2_blk
                0x0000000011074410       0x30 arch/arm/cpu/armv8/start.o
 .rela.data.block_cache
                0x0000000011074440       0x30 arch/arm/cpu/armv8/start.o
 .rela.u_boot_list_2_driver_2_mmc
                0x0000000011074470       0x18 arch/arm/cpu/armv8/start.o
 .rela.u_boot_list_2_driver_2_mmc_blk
                0x0000000011074488       0x48 arch/arm/cpu/armv8/start.o
 .rela.u_boot_list_2_uclass_2_mmc
                0x00000000110744d0       0x18 arch/arm/cpu/armv8/start.o
 .rela.u_boot_list_2_driver_2_sdhci_cdns
                0x00000000110744e8       0x78 arch/arm/cpu/armv8/start.o
 .rela.u_boot_list_2_driver_2_bcm2835_sdhost
                0x0000000011074560       0x78 arch/arm/cpu/armv8/start.o
 .rela.data.console_normal_ops
                0x00000000110745d8       0x48 arch/arm/cpu/armv8/start.o
 .rela.u_boot_list_2_driver_2_vidconsole_normal
                0x0000000011074620       0x48 arch/arm/cpu/armv8/start.o
 .rela.u_boot_list_2_uclass_2_backlight
                0x0000000011074668       0x18 arch/arm/cpu/armv8/start.o
 .rela.u_boot_list_2_uclass_2_panel
                0x0000000011074680       0x18 arch/arm/cpu/armv8/start.o
 .rela.u_boot_list_2_driver_2_simple_panel
                0x0000000011074698       0x78 arch/arm/cpu/armv8/start.o
 .rela.u_boot_list_2_uclass_2_video
                0x0000000011074710       0x78 arch/arm/cpu/armv8/start.o
 .rela.u_boot_list_2_cmd_2_lcdputs
                0x0000000011074788       0x78 arch/arm/cpu/armv8/start.o
 .rela.u_boot_list_2_cmd_2_setcurs
                0x0000000011074800       0x78 arch/arm/cpu/armv8/start.o
 .rela.u_boot_list_2_uclass_2_vidconsole
                0x0000000011074878       0x48 arch/arm/cpu/armv8/start.o
 .rela.u_boot_list_2_driver_2_bcm2835_video
                0x00000000110748c0       0x48 arch/arm/cpu/armv8/start.o
 .rela.rodata.gpio_function
                0x0000000011074908       0x78 arch/arm/cpu/armv8/start.o
 .rela.rodata.gpio_bcm2835_ops
                0x0000000011074980       0x78 arch/arm/cpu/armv8/start.o
 .rela.u_boot_list_2_uclass_2_gpio
                0x00000000110749f8       0x60 arch/arm/cpu/armv8/start.o
 .rela.u_boot_list_2_driver_2_gpio_bcm2835
                0x0000000011074a58       0x60 arch/arm/cpu/armv8/start.o
 .rela.data.genphy_driver
                0x0000000011074ab8       0x60 arch/arm/cpu/armv8/start.o
 .rela.data.phy_drivers
                0x0000000011074b18       0x30 arch/arm/cpu/armv8/start.o
 .rela.rodata.pl01x_serial_id
                0x0000000011074b48       0x30 arch/arm/cpu/armv8/start.o
 .rela.rodata.pl01x_serial_ops
                0x0000000011074b78       0x60 arch/arm/cpu/armv8/start.o
 .rela.rodata.bcm283x_mu_serial_id
                0x0000000011074bd8       0x18 arch/arm/cpu/armv8/start.o
 .rela.rodata.bcm283x_mu_serial_ops
                0x0000000011074bf0       0x60 arch/arm/cpu/armv8/start.o
 .rela.rodata.bcm283x_pl011_serial_id
                0x0000000011074c50       0x18 arch/arm/cpu/armv8/start.o
 .rela.rodata.bcm283x_pl011_serial_ops
                0x0000000011074c68       0x60 arch/arm/cpu/armv8/start.o
 .rela.u_boot_list_2_env_clbk_2_baudrate
                0x0000000011074cc8       0x30 arch/arm/cpu/armv8/start.o
 .rela.u_boot_list_2_uclass_2_serial
                0x0000000011074cf8       0x48 arch/arm/cpu/armv8/start.o
 .rela.u_boot_list_2_driver_2_serial_pl01x
                0x0000000011074d40       0x78 arch/arm/cpu/armv8/start.o
 .rela.u_boot_list_2_driver_2_serial_bcm283x_mu
                0x0000000011074db8       0x78 arch/arm/cpu/armv8/start.o
 .rela.u_boot_list_2_driver_2_bcm283x_pl011_uart
                0x0000000011074e30       0x78 arch/arm/cpu/armv8/start.o
 .rela.rodata.smsc95xx_eth_ops
                0x0000000011074ea8       0xa8 arch/arm/cpu/armv8/start.o
 .rela.rodata.lan78xx_eth_ops
                0x0000000011074f50       0xa8 arch/arm/cpu/armv8/start.o
 .rela.u_boot_list_2_driver_2_smsc95xx_eth
                0x0000000011074ff8       0x48 arch/arm/cpu/armv8/start.o
 .rela.u_boot_list_2_usb_driver_entry_2_smsc95xx_eth
                0x0000000011075040       0x30 arch/arm/cpu/armv8/start.o
 .rela.u_boot_list_2_driver_2_lan78xx_eth
                0x0000000011075070       0x60 arch/arm/cpu/armv8/start.o
 .rela.u_boot_list_2_usb_driver_entry_2_lan78xx_eth
                0x00000000110750d0       0x30 arch/arm/cpu/armv8/start.o
 .rela.rodata.dwc2_usb_ids
                0x0000000011075100       0x48 arch/arm/cpu/armv8/start.o
 .rela.u_boot_list_2_driver_2_usb_dev_generic_drv
                0x0000000011075148       0x18 arch/arm/cpu/armv8/start.o
 .rela.u_boot_list_2_uclass_2_usb
                0x0000000011075160       0x60 arch/arm/cpu/armv8/start.o
 .rela.u_boot_list_2_uclass_2_usb_dev_generic
                0x00000000110751c0       0x18 arch/arm/cpu/armv8/start.o
 .rela.data.dwc2_usb_ops
                0x00000000110751d8       0x48 arch/arm/cpu/armv8/start.o
 .rela.u_boot_list_2_driver_2_usb_dwc2
                0x0000000011075220       0x90 arch/arm/cpu/armv8/start.o
 .rela.data.env_htab
                0x00000000110752b0       0x18 arch/arm/cpu/armv8/start.o
 .rela.u_boot_list_2_env_clbk_2_callbacks
                0x00000000110752c8       0x30 arch/arm/cpu/armv8/start.o
 .rela.u_boot_list_2_env_clbk_2_flags
                0x00000000110752f8       0x30 arch/arm/cpu/armv8/start.o
 .rela.u_boot_list_2_env_driver_2_fat
                0x0000000011075328       0x48 arch/arm/cpu/armv8/start.o
 .rela.data.fstypes
                0x0000000011075370      0x390 arch/arm/cpu/armv8/start.o
 .rela.rodata.driver_ops
                0x0000000011075700       0x48 arch/arm/cpu/armv8/start.o
 .rela.rodata.efi_blk_ops
                0x0000000011075748       0x30 arch/arm/cpu/armv8/start.o
 .rela.rodata.efi_device_path_to_text
                0x0000000011075778       0x30 arch/arm/cpu/armv8/start.o
 .rela.rodata.efi_device_path_utilities
                0x00000000110757a8       0xc0 arch/arm/cpu/armv8/start.o
 .rela.rodata.efi_file_handle_protocol
                0x0000000011075868       0xf0 arch/arm/cpu/armv8/start.o
 .rela.rodata.efi_runtime_detach_list
                0x0000000011075958      0x180 arch/arm/cpu/armv8/start.o
 .rela.rodata.efi_unicode_collation_protocol
                0x0000000011075ad8       0xa8 arch/arm/cpu/armv8/start.o
 .rela.rodata.smbios_write_funcs
                0x0000000011075b80       0xa8 arch/arm/cpu/armv8/start.o
 .rela.rodata.fdt_errtable
                0x0000000011075c28      0x198 arch/arm/cpu/armv8/start.o
 .rela.u_boot_list_2_uclass_2_efi
                0x0000000011075dc0       0x48 arch/arm/cpu/armv8/start.o
 .rela.u_boot_list_2_driver_2_efi_blk
                0x0000000011075e08       0x30 arch/arm/cpu/armv8/start.o
 .rela.u_boot_list_2_driver_2_efi_block
                0x0000000011075e38       0x30 arch/arm/cpu/armv8/start.o
 .rela.data.efi_boot_services
                0x0000000011075e68      0x408 arch/arm/cpu/armv8/start.o
 .rela.data.efi_events
                0x0000000011076270       0x30 arch/arm/cpu/armv8/start.o
 .rela.data.efi_obj_list
                0x00000000110762a0       0x30 arch/arm/cpu/armv8/start.o
 .rela.data.cin_notify_functions
                0x00000000110762d0       0x30 arch/arm/cpu/armv8/start.o
 .rela.data.efi_con_in
                0x0000000011076300       0x30 arch/arm/cpu/armv8/start.o
 .rela.data.efi_con_in_ex
                0x0000000011076330       0x78 arch/arm/cpu/armv8/start.o
 .rela.data.efi_con_out
                0x00000000110763a8       0xf0 arch/arm/cpu/armv8/start.o
 .rela.data.efi_mem
                0x0000000011076498       0x30 arch/arm/cpu/armv8/start.o
 .rela.data.efi_runtime_mmio
                0x00000000110764c8       0x30 arch/arm/cpu/armv8/start.o
 .rela.u_boot_list_2_env_clbk_2_ethaddr
                0x00000000110764f8       0x30 arch/arm/cpu/armv8/start.o
 .rela.u_boot_list_2_uclass_2_eth
                0x0000000011076528       0x78 arch/arm/cpu/armv8/start.o
 .rela.u_boot_list_2_env_clbk_2_gatewayip
                0x00000000110765a0       0x30 arch/arm/cpu/armv8/start.o
 .rela.u_boot_list_2_env_clbk_2_ipaddr
                0x00000000110765d0       0x30 arch/arm/cpu/armv8/start.o
 .rela.u_boot_list_2_env_clbk_2_netmask
                0x0000000011076600       0x30 arch/arm/cpu/armv8/start.o
 .rela.u_boot_list_2_env_clbk_2_nvlan
                0x0000000011076630       0x30 arch/arm/cpu/armv8/start.o
 .rela.u_boot_list_2_env_clbk_2_serverip
                0x0000000011076660       0x30 arch/arm/cpu/armv8/start.o
 .rela.u_boot_list_2_env_clbk_2_vlan
                0x0000000011076690       0x30 arch/arm/cpu/armv8/start.o

.rel_dyn_end    0x00000000110766c0        0x0
 *(.__rel_dyn_end)
 .__rel_dyn_end
                0x00000000110766c0        0x0 arch/arm/lib/built-in.o
                0x00000000110766c0                _end = .
                0x00000000110766c0                . = ALIGN (0x8)

.bss_start      0x00000000110766c0        0x0
 *(.__bss_start)
 .__bss_start   0x00000000110766c0        0x0 arch/arm/lib/built-in.o
                0x00000000110766c0                __bss_start

.bss            0x00000000110766c0    0x2ad00
 *(.bss*)
 .bss.params    0x00000000110766c0        0x8 arch/arm/lib/built-in.o
 .bss.model     0x00000000110766c8        0x8 board/raspberrypi/rpi/built-in.o
 .bss.rev_scheme
                0x00000000110766d0        0x4 board/raspberrypi/rpi/built-in.o
 .bss.rev_type  0x00000000110766d4        0x4 board/raspberrypi/rpi/built-in.o
 .bss.revision  0x00000000110766d8        0x4 board/raspberrypi/rpi/built-in.o
 *fill*         0x00000000110766dc        0x4 
 .bss.bootefi_device_path
                0x00000000110766e0        0x8 cmd/built-in.o
 .bss.bootefi_image_path
                0x00000000110766e8        0x8 cmd/built-in.o
 .bss.data.7493
                0x00000000110766f0      0x400 cmd/built-in.o
 .bss.working_fdt
                0x0000000011076af0        0x8 cmd/built-in.o
                0x0000000011076af0                working_fdt
 .bss.a_b       0x0000000011076af8       0x18 cmd/built-in.o
 .bss.bin_start_address
                0x0000000011076b10        0x8 cmd/built-in.o
 .bss.his_eol   0x0000000011076b18        0x1 cmd/built-in.o
 .bss.his_pad_char
                0x0000000011076b19        0x1 cmd/built-in.o
 *fill*         0x0000000011076b1a        0x2 
 .bss.his_pad_count
                0x0000000011076b1c        0x4 cmd/built-in.o
 .bss.his_quote
                0x0000000011076b20        0x1 cmd/built-in.o
 *fill*         0x0000000011076b21        0x3 
 .bss.k_data_escape
                0x0000000011076b24        0x4 cmd/built-in.o
 .bss.k_data_escape_saved
                0x0000000011076b28        0x4 cmd/built-in.o
 *fill*         0x0000000011076b2c        0x4 
 .bss.os_data_addr
                0x0000000011076b30        0x8 cmd/built-in.o
 .bss.os_data_addr_saved
                0x0000000011076b38        0x8 cmd/built-in.o
 .bss.os_data_char
                0x0000000011076b40        0x8 cmd/built-in.o
 .bss.os_data_init
                0x0000000011076b48        0x8 cmd/built-in.o
 .bss.os_data_state
                0x0000000011076b50        0x4 cmd/built-in.o
 .bss.os_data_state_saved
                0x0000000011076b54        0x4 cmd/built-in.o
 .bss.send_parms
                0x0000000011076b58       0x14 cmd/built-in.o
 *fill*         0x0000000011076b6c        0x4 
 .bss.send_ptr  0x0000000011076b70        0x8 cmd/built-in.o
 .bss.base_address
                0x0000000011076b78        0x8 cmd/built-in.o
 .bss.dp_last_addr
                0x0000000011076b80        0x8 cmd/built-in.o
 .bss.dp_last_size
                0x0000000011076b88        0x8 cmd/built-in.o
 .bss.mm_last_addr
                0x0000000011076b90        0x8 cmd/built-in.o
 .bss.mm_last_size
                0x0000000011076b98        0x8 cmd/built-in.o
 .bss.last_addr_hi
                0x0000000011076ba0        0x8 cmd/built-in.o
 .bss.last_addr_lo
                0x0000000011076ba8        0x8 cmd/built-in.o
 .bss.last_data
                0x0000000011076bb0        0x8 cmd/built-in.o
 .bss.last_mask
                0x0000000011076bb8        0x4 cmd/built-in.o
 .bss.last_op   0x0000000011076bbc        0x4 cmd/built-in.o
 .bss.last_reg_hi
                0x0000000011076bc0        0x8 cmd/built-in.o
 .bss.last_reg_lo
                0x0000000011076bc8        0x8 cmd/built-in.o
 .bss.last_devad_hi
                0x0000000011076bd0        0x4 cmd/built-in.o
 .bss.last_devad_lo
                0x0000000011076bd4        0x4 cmd/built-in.o
 .bss.currdev   0x0000000011076bd8        0x8 cmd/built-in.o
 .bss.do_getfile
                0x0000000011076be0        0x8 cmd/built-in.o
 .bss.fs_argv   0x0000000011076be8       0x28 cmd/built-in.o
 .bss.is_pxe    0x0000000011076c10        0x1 cmd/built-in.o
 .bss.buf.7085  0x0000000011076c11       0x28 common/built-in.o
 *fill*         0x0000000011076c39        0x3 
 .bss.do_repeat
                0x0000000011076c3c        0x4 common/built-in.o
 .bss.flag_repeat
                0x0000000011076c40        0x4 common/built-in.o
 *fill*         0x0000000011076c44        0x4 
 .bss.ifs       0x0000000011076c48        0x8 common/built-in.o
 .bss.last_return_code
                0x0000000011076c50        0x4 common/built-in.o
 .bss.map       0x0000000011076c54      0x100 common/built-in.o
 .bss.the_command.6885
                0x0000000011076d54      0x401 common/built-in.o
 *fill*         0x0000000011077155        0x3 
 .bss.top_vars  0x0000000011077158        0x8 common/built-in.o
 .bss.stored_bootdelay
                0x0000000011077160        0x4 common/built-in.o
 *fill*         0x0000000011077164        0x4 
 .bss.monitor_flash_len
                0x0000000011077168        0x8 common/built-in.o
                0x0000000011077168                monitor_flash_len
 .bss.images    0x0000000011077170      0x218 common/built-in.o
                0x0000000011077170                images
 .bss.current_mii
                0x0000000011077388        0x8 common/built-in.o
 .bss.mii_devs  0x0000000011077390       0x10 common/built-in.o
 .bss.usb_started
                0x00000000110773a0        0x1 common/built-in.o
                0x00000000110773a0                usb_started
 *fill*         0x00000000110773a1        0x3 
 .bss.running.9600
                0x00000000110773a4        0x4 common/built-in.o
 .bss.CBWTag    0x00000000110773a8        0x4 common/built-in.o
 *fill*         0x00000000110773ac       0x14 
 .bss.usb_ccb   0x00000000110773c0      0x100 common/built-in.o
 .bss.usb_max_devs
                0x00000000110774c0        0x4 common/built-in.o
 *fill*         0x00000000110774c4        0x4 
 .bss.kbd_testc_tms
                0x00000000110774c8        0x8 common/built-in.o
 .bss.console_buffer
                0x00000000110774d0      0x401 common/built-in.o
                0x00000000110774d0                console_buffer
 *fill*         0x00000000110778d1        0x3 
 .bss.hist_add_idx
                0x00000000110778d4        0x4 common/built-in.o
 .bss.hist_lines
                0x00000000110778d8     0x5014 common/built-in.o
 *fill*         0x000000001107c8ec        0x4 
 .bss.hist_list
                0x000000001107c8f0       0xa0 common/built-in.o
 .bss.hist_max  0x000000001107c990        0x4 common/built-in.o
 .bss.hist_num  0x000000001107c994        0x4 common/built-in.o
 .bss.initted.6694
                0x000000001107c998        0x4 common/built-in.o
 .bss.cd_count  0x000000001107c99c        0xc common/built-in.o
                0x000000001107c99c                cd_count
 .bss.console_devices
                0x000000001107c9a8       0x18 common/built-in.o
                0x000000001107c9a8                console_devices
 .bss.ctrlc_disabled
                0x000000001107c9c0        0x4 common/built-in.o
 .bss.ctrlc_was_pressed
                0x000000001107c9c4        0x4 common/built-in.o
 .bss.tstcdev   0x000000001107c9c8        0x8 common/built-in.o
 .bss.current_mallinfo
                0x000000001107c9d0       0x28 common/built-in.o
 .bss.max_sbrked_mem
                0x000000001107c9f8        0x8 common/built-in.o
 .bss.max_total_mem
                0x000000001107ca00        0x8 common/built-in.o
 .bss.mem_malloc_brk
                0x000000001107ca08        0x8 common/built-in.o
                0x000000001107ca08                mem_malloc_brk
 .bss.mem_malloc_end
                0x000000001107ca10        0x8 common/built-in.o
                0x000000001107ca10                mem_malloc_end
 .bss.mem_malloc_start
                0x000000001107ca18        0x8 common/built-in.o
                0x000000001107ca18                mem_malloc_start
 .bss.top_pad   0x000000001107ca20        0x8 common/built-in.o
 .bss.devs      0x000000001107ca28       0x70 common/built-in.o
 .bss.stdio_devices
                0x000000001107ca98       0x18 common/built-in.o
                0x000000001107ca98                stdio_devices
 .bss.env_complete_buf
                0x000000001107cab0      0x200 common/built-in.o
 .bss.tmp_buf   0x000000001107ccb0      0x401 common/built-in.o
 *fill*         0x000000001107d0b1        0x7 
 .bss.xyz       0x000000001107d0b8      0x448 common/built-in.o
 .bss.tmpbuf    0x000000001107d500      0x800 disk/built-in.o
 .bss.name.7810
                0x000000001107dd00       0x25 disk/built-in.o
 *fill*         0x000000001107dd25        0x3 
 .bss.initialized.9581
                0x000000001107dd28        0x4 drivers/built-in.o
 *fill*         0x000000001107dd2c        0x4 
 .bss.aligned_buffer
                0x000000001107dd30        0x8 drivers/built-in.o
                0x000000001107dd30                aligned_buffer
 .bss.shadow.9631
                0x000000001107dd38        0x4 drivers/built-in.o
 .bss.asynch_allowed
                0x000000001107dd3c        0x1 drivers/usb/host/built-in.o
 *fill*         0x000000001107dd3d        0x3 
 .bss.callback_list
                0x000000001107dd40        0x8 env/built-in.o
 .bss.flags_list
                0x000000001107dd48        0x8 env/built-in.o
 .bss.fs_dev_desc
                0x000000001107dd50        0x8 fs/built-in.o
 .bss.fs_dev_part
                0x000000001107dd58        0x4 fs/built-in.o
 *fill*         0x000000001107dd5c        0x4 
 .bss.fs_partition
                0x000000001107dd60       0x88 fs/built-in.o
 .bss.fs_type   0x000000001107dde8        0x4 fs/built-in.o
 *fill*         0x000000001107ddec        0x4 
 .bss.ext_fs    0x000000001107ddf0       0x68 fs/built-in.o
                0x000000001107ddf0                ext_fs
 .bss.ext4fs_file
                0x000000001107de58        0x8 fs/built-in.o
                0x000000001107de58                ext4fs_file
 .bss.ext4fs_indir1_block
                0x000000001107de60        0x8 fs/built-in.o
                0x000000001107de60                ext4fs_indir1_block
 .bss.ext4fs_indir1_size
                0x000000001107de68        0x4 fs/built-in.o
                0x000000001107de68                ext4fs_indir1_size
 *fill*         0x000000001107de6c        0x4 
 .bss.ext4fs_indir2_block
                0x000000001107de70        0x8 fs/built-in.o
                0x000000001107de70                ext4fs_indir2_block
 .bss.ext4fs_indir2_size
                0x000000001107de78        0x4 fs/built-in.o
                0x000000001107de78                ext4fs_indir2_size
 *fill*         0x000000001107de7c        0x4 
 .bss.ext4fs_indir3_block
                0x000000001107de80        0x8 fs/built-in.o
                0x000000001107de80                ext4fs_indir3_block
 .bss.ext4fs_indir3_size
                0x000000001107de88        0x4 fs/built-in.o
                0x000000001107de88                ext4fs_indir3_size
 *fill*         0x000000001107de8c        0x4 
 .bss.ext4fs_root
                0x000000001107de90        0x8 fs/built-in.o
                0x000000001107de90                ext4fs_root
 .bss.symlinknest
                0x000000001107de98        0x4 fs/built-in.o
 *fill*         0x000000001107de9c        0x4 
 .bss.part_info
                0x000000001107dea0        0x8 fs/built-in.o
 .bss.part_offset
                0x000000001107dea8        0x8 fs/built-in.o
                0x000000001107dea8                part_offset
 .bss.cur_dev   0x000000001107deb0        0x8 fs/built-in.o
 .bss.cur_part_info
                0x000000001107deb8       0x88 fs/built-in.o
 .bss.get_contents_vfatname_block
                0x000000001107df40    0x10000 fs/built-in.o
                0x000000001107df40                get_contents_vfatname_block
 .bss.tmpbuf_cluster
                0x000000001108df40    0x10000 fs/built-in.o
 .bss.total_sector
                0x000000001109df40        0x4 fs/built-in.o
 *fill*         0x000000001109df44        0x4 
 .bss.rs        0x000000001109df48        0x8 lib/built-in.o
 .bss.app_gd    0x000000001109df50        0x8 lib/built-in.o
 .bss.efi_gd    0x000000001109df58        0x8 lib/built-in.o
 .bss.entry_count
                0x000000001109df60        0x4 lib/built-in.o
 *fill*         0x000000001109df64        0x4 
 .bss.mono.8576
                0x000000001109df68        0x8 lib/built-in.o
 .bss.ret.8483  0x000000001109df70        0x8 lib/built-in.o
 .bss.console_timer_event
                0x000000001109df78        0x8 lib/built-in.o
 .bss.key_available
                0x000000001109df80        0x1 lib/built-in.o
 *fill*         0x000000001109df81        0x3 
 .bss.next_key  0x000000001109df84        0xc lib/built-in.o
 .bss.efi_memory_map_key
                0x000000001109df90        0x8 lib/built-in.o
                0x000000001109df90                efi_memory_map_key
 .bss.watchdog_timer_event
                0x000000001109df98        0x8 lib/built-in.o
 .bss.dhcp_ack  0x000000001109dfa0        0x8 lib/built-in.o
 .bss.network_timer_event
                0x000000001109dfa8        0x8 lib/built-in.o
 .bss.new_rx_packet
                0x000000001109dfb0        0x1 lib/built-in.o
 *fill*         0x000000001109dfb1        0x7 
 .bss.new_tx_packet
                0x000000001109dfb8        0x8 lib/built-in.o
 .bss.transmit_buffer
                0x000000001109dfc0        0x8 lib/built-in.o
 .bss.wait_for_packet
                0x000000001109dfc8        0x8 lib/built-in.o
 .bss.errno     0x000000001109dfd0        0x4 lib/built-in.o
                0x000000001109dfd0                errno
 .bss.local.8206
                0x000000001109dfd4       0x16 lib/built-in.o
 *fill*         0x000000001109dfea        0x6 
 .bss.arp_tx_packet
                0x000000001109dff0        0x8 net/built-in.o
                0x000000001109dff0                arp_tx_packet
 .bss.arp_tx_packet_buf
                0x000000001109dff8      0x640 net/built-in.o
 .bss.arp_wait_packet_ethaddr
                0x000000001109e638        0x8 net/built-in.o
                0x000000001109e638                arp_wait_packet_ethaddr
 .bss.arp_wait_timer_start
                0x000000001109e640        0x8 net/built-in.o
                0x000000001109e640                arp_wait_timer_start
 .bss.arp_wait_try
                0x000000001109e648        0x4 net/built-in.o
                0x000000001109e648                arp_wait_try
 .bss.arp_wait_tx_packet_size
                0x000000001109e64c        0x4 net/built-in.o
                0x000000001109e64c                arp_wait_tx_packet_size
 .bss.net_arp_wait_packet_ip
                0x000000001109e650        0x4 net/built-in.o
                0x000000001109e650                net_arp_wait_packet_ip
 .bss.net_arp_wait_reply_ip
                0x000000001109e654        0x4 net/built-in.o
 .bss.bootp_ids
                0x000000001109e658       0x10 net/built-in.o
                0x000000001109e658                bootp_ids
 .bss.bootp_num_ids
                0x000000001109e668        0x4 net/built-in.o
                0x000000001109e668                bootp_num_ids
 *fill*         0x000000001109e66c        0x4 
 .bss.bootp_start
                0x000000001109e670        0x8 net/built-in.o
                0x000000001109e670                bootp_start
 .bss.bootp_timeout
                0x000000001109e678        0x8 net/built-in.o
                0x000000001109e678                bootp_timeout
 .bss.bootp_try
                0x000000001109e680        0x4 net/built-in.o
                0x000000001109e680                bootp_try
 .bss.dhcp_leasetime
                0x000000001109e684        0x4 net/built-in.o
 .bss.dhcp_option_overload
                0x000000001109e688        0x1 net/built-in.o
 *fill*         0x000000001109e689        0x3 
 .bss.dhcp_server_ip
                0x000000001109e68c        0x4 net/built-in.o
 .bss.dhcp_state
                0x000000001109e690        0x4 net/built-in.o
 .bss.net_hostname
                0x000000001109e694       0x20 net/built-in.o
                0x000000001109e694                net_hostname
 .bss.net_nis_domain
                0x000000001109e6b4       0x20 net/built-in.o
                0x000000001109e6b4                net_nis_domain
 .bss.net_root_path
                0x000000001109e6d4       0x40 net/built-in.o
                0x000000001109e6d4                net_root_path
 *fill*         0x000000001109e714        0x4 
 .bss.time_taken_max
                0x000000001109e718        0x8 net/built-in.o
 .bss.eth_errno
                0x000000001109e720        0x4 net/built-in.o
 *fill*         0x000000001109e724        0x4 
 .bss.act.9314  0x000000001109e728        0x8 net/built-in.o
 .bss.env_changed_id.9315
                0x000000001109e730        0x4 net/built-in.o
 *fill*         0x000000001109e734        0x4 
 .bss.first_failed.9309
                0x000000001109e738        0x8 net/built-in.o
 .bss.arp_packet_handler
                0x000000001109e740        0x8 net/built-in.o
 .bss.net_boot_file_expected_size_in_blocks
                0x000000001109e748        0x4 net/built-in.o
                0x000000001109e748                net_boot_file_expected_size_in_blocks
 .bss.net_boot_file_name
                0x000000001109e74c      0x400 net/built-in.o
                0x000000001109e74c                net_boot_file_name
 .bss.net_boot_file_name_explicit
                0x000000001109eb4c        0x1 net/built-in.o
                0x000000001109eb4c                net_boot_file_name_explicit
 *fill*         0x000000001109eb4d        0x3 
 .bss.net_boot_file_size
                0x000000001109eb50        0x4 net/built-in.o
                0x000000001109eb50                net_boot_file_size
 .bss.net_busy_flag
                0x000000001109eb54        0x4 net/built-in.o
                0x000000001109eb54                net_busy_flag
 .bss.net_dev_exists
                0x000000001109eb58        0x4 net/built-in.o
 .bss.net_dns_server
                0x000000001109eb5c        0x4 net/built-in.o
                0x000000001109eb5c                net_dns_server
 .bss.net_ethaddr
                0x000000001109eb60        0x6 net/built-in.o
                0x000000001109eb60                net_ethaddr
 *fill*         0x000000001109eb66        0x2 
 .bss.net_gateway
                0x000000001109eb68        0x4 net/built-in.o
                0x000000001109eb68                net_gateway
 .bss.net_ip    0x000000001109eb6c        0x4 net/built-in.o
                0x000000001109eb6c                net_ip
 .bss.net_ip_id
                0x000000001109eb70        0x4 net/built-in.o
 .bss.net_netmask
                0x000000001109eb74        0x4 net/built-in.o
                0x000000001109eb74                net_netmask
 .bss.net_pkt_buf
                0x000000001109eb78     0x1e40 net/built-in.o
 .bss.net_restart_wrap
                0x00000000110a09b8        0x4 net/built-in.o
                0x00000000110a09b8                net_restart_wrap
 .bss.net_restarted
                0x00000000110a09bc        0x4 net/built-in.o
 .bss.net_rx_packet
                0x00000000110a09c0        0x8 net/built-in.o
                0x00000000110a09c0                net_rx_packet
 .bss.net_rx_packet_len
                0x00000000110a09c8        0x4 net/built-in.o
                0x00000000110a09c8                net_rx_packet_len
 *fill*         0x00000000110a09cc        0x4 
 .bss.net_rx_packets
                0x00000000110a09d0       0x20 net/built-in.o
                0x00000000110a09d0                net_rx_packets
 .bss.net_server_ethaddr
                0x00000000110a09f0        0x6 net/built-in.o
                0x00000000110a09f0                net_server_ethaddr
 *fill*         0x00000000110a09f6        0x2 
 .bss.net_server_ip
                0x00000000110a09f8        0x4 net/built-in.o
                0x00000000110a09f8                net_server_ip
 .bss.net_state
                0x00000000110a09fc        0x4 net/built-in.o
                0x00000000110a09fc                net_state
 .bss.net_try_count
                0x00000000110a0a00        0x4 net/built-in.o
 *fill*         0x00000000110a0a04        0x4 
 .bss.net_tx_packet
                0x00000000110a0a08        0x8 net/built-in.o
                0x00000000110a0a08                net_tx_packet
 .bss.push_packet
                0x00000000110a0a10        0x8 net/built-in.o
                0x00000000110a0a10                push_packet
 .bss.time_delta
                0x00000000110a0a18        0x8 net/built-in.o
 .bss.time_handler
                0x00000000110a0a20        0x8 net/built-in.o
 .bss.time_start
                0x00000000110a0a28       0x10 net/built-in.o
 .bss.udp_packet_handler
                0x00000000110a0a38        0x8 net/built-in.o
 .bss.dirfh     0x00000000110a0a40       0x20 net/built-in.o
 .bss.filefh    0x00000000110a0a60       0x40 net/built-in.o
 .bss.filefh3_length
                0x00000000110a0aa0        0x4 net/built-in.o
 .bss.fs_mounted
                0x00000000110a0aa4        0x4 net/built-in.o
 .bss.nfs_download_state
                0x00000000110a0aa8        0x4 net/built-in.o
 *fill*         0x00000000110a0aac        0x4 
 .bss.nfs_filename
                0x00000000110a0ab0        0x8 net/built-in.o
 .bss.nfs_len   0x00000000110a0ab8        0x4 net/built-in.o
 .bss.nfs_our_port
                0x00000000110a0abc        0x4 net/built-in.o
 .bss.nfs_path  0x00000000110a0ac0        0x8 net/built-in.o
 .bss.nfs_path_buff
                0x00000000110a0ac8      0x800 net/built-in.o
 .bss.nfs_server_ip
                0x00000000110a12c8        0x4 net/built-in.o
 .bss.nfs_server_mount_port
                0x00000000110a12cc        0x4 net/built-in.o
 .bss.nfs_server_port
                0x00000000110a12d0        0x4 net/built-in.o
 .bss.nfs_state
                0x00000000110a12d4        0x4 net/built-in.o
 .bss.nfs_timeout_count
                0x00000000110a12d8        0x4 net/built-in.o
 *fill*         0x00000000110a12dc        0x4 
 .bss.rpc_id    0x00000000110a12e0        0x8 net/built-in.o
 .bss.net_ping_ip
                0x00000000110a12e8        0x4 net/built-in.o
                0x00000000110a12e8                net_ping_ip
 .bss.ping_seq_number
                0x00000000110a12ec        0x2 net/built-in.o
 .bss.default_filename
                0x00000000110a12ee        0xd net/built-in.o
 *fill*         0x00000000110a12fb        0x5 
 .bss.tftp_block_wrap
                0x00000000110a1300        0x8 net/built-in.o
 .bss.tftp_block_wrap_offset
                0x00000000110a1308        0x8 net/built-in.o
 .bss.tftp_cur_block
                0x00000000110a1310        0x8 net/built-in.o
 .bss.tftp_filename
                0x00000000110a1318       0x80 net/built-in.o
 .bss.tftp_our_port
                0x00000000110a1398        0x4 net/built-in.o
 *fill*         0x00000000110a139c        0x4 
 .bss.tftp_prev_block
                0x00000000110a13a0        0x8 net/built-in.o
 .bss.tftp_remote_ip
                0x00000000110a13a8        0x4 net/built-in.o
 .bss.tftp_remote_port
                0x00000000110a13ac        0x4 net/built-in.o
 .bss.tftp_state
                0x00000000110a13b0        0x4 net/built-in.o
 .bss.tftp_tsize
                0x00000000110a13b4        0x4 net/built-in.o
 .bss.tftp_tsize_num_hash
                0x00000000110a13b8        0x2 net/built-in.o
 *fill*         0x00000000110a13ba        0x2 
 .bss.timeout_count
                0x00000000110a13bc        0x4 net/built-in.o
                0x00000000110a13c0                . = ALIGN (0x8)

.dynbss         0x00000000110a13c0        0x0
 .dynbss        0x00000000110a13c0        0x0 arch/arm/cpu/armv8/start.o

.bss_end        0x00000000110a13c0        0x0
 *(.__bss_end)
 .__bss_end     0x00000000110a13c0        0x0 arch/arm/lib/built-in.o
                0x00000000110a13c0                __bss_end

/DISCARD/
 *(.dynsym)
 *(.dynstr*)
 *(.dynamic*)
 *(.plt*)
 *(.interp*)
 *(.gnu*)
LOAD arch/arm/cpu/armv8/start.o
START GROUP
LOAD arch/arm/cpu/built-in.o
LOAD arch/arm/cpu/armv8/built-in.o
LOAD arch/arm/lib/built-in.o
LOAD arch/arm/mach-bcm283x/built-in.o
LOAD board/raspberrypi/rpi/built-in.o
LOAD cmd/built-in.o
LOAD common/built-in.o
LOAD disk/built-in.o
LOAD drivers/built-in.o
LOAD drivers/dma/built-in.o
LOAD drivers/gpio/built-in.o
LOAD drivers/i2c/built-in.o
LOAD drivers/mtd/built-in.o
LOAD drivers/mtd/onenand/built-in.o
LOAD drivers/mtd/spi/built-in.o
LOAD drivers/net/built-in.o
LOAD drivers/net/phy/built-in.o
LOAD drivers/power/built-in.o
LOAD drivers/power/battery/built-in.o
LOAD drivers/power/domain/built-in.o
LOAD drivers/power/fuel_gauge/built-in.o
LOAD drivers/power/mfd/built-in.o
LOAD drivers/power/pmic/built-in.o
LOAD drivers/power/regulator/built-in.o
LOAD drivers/serial/built-in.o
LOAD drivers/spi/built-in.o
LOAD drivers/usb/common/built-in.o
LOAD drivers/usb/dwc3/built-in.o
LOAD drivers/usb/emul/built-in.o
LOAD drivers/usb/eth/built-in.o
LOAD drivers/usb/host/built-in.o
LOAD drivers/usb/musb-new/built-in.o
LOAD drivers/usb/musb/built-in.o
LOAD drivers/usb/phy/built-in.o
LOAD drivers/usb/ulpi/built-in.o
LOAD dts/built-in.o
LOAD env/built-in.o
LOAD fs/built-in.o
LOAD lib/built-in.o
LOAD net/built-in.o
END GROUP
LOAD /home/peizhiliu/Documents/Synced/2021_Spring_Classes/CS446/optee-rpi3b-test/toolchains/aarch64/bin/../lib/gcc/aarch64-none-linux-gnu/9.2.1/libgcc.a
OUTPUT(u-boot elf64-littleaarch64)

.debug_line     0x0000000000000000    0x74a84
 .debug_line    0x0000000000000000       0x8b arch/arm/cpu/armv8/start.o
 .debug_line    0x000000000000008b     0x1ca7 arch/arm/cpu/armv8/built-in.o
 .debug_line    0x0000000000001d32     0x185a arch/arm/lib/built-in.o
 .debug_line    0x000000000000358c      0xc2c arch/arm/mach-bcm283x/built-in.o
 .debug_line    0x00000000000041b8      0x706 board/raspberrypi/rpi/built-in.o
 .debug_line    0x00000000000048be     0xeaee cmd/built-in.o
 .debug_line    0x00000000000133ac    0x14192 common/built-in.o
 .debug_line    0x000000000002753e     0x2b40 disk/built-in.o
 .debug_line    0x000000000002a07e    0x128ec drivers/built-in.o
 .debug_line    0x000000000003c96a     0x1835 drivers/gpio/built-in.o
 .debug_line    0x000000000003e19f     0x1389 drivers/net/phy/built-in.o
 .debug_line    0x000000000003f528     0x1772 drivers/serial/built-in.o
 .debug_line    0x0000000000040c9a     0x2798 drivers/usb/eth/built-in.o
 .debug_line    0x0000000000043432     0x23a8 drivers/usb/host/built-in.o
 .debug_line    0x00000000000457da     0x1c59 env/built-in.o
 .debug_line    0x0000000000047433     0x6029 fs/built-in.o
 .debug_line    0x000000000004d45c    0x216b1 lib/built-in.o
 .debug_line    0x000000000006eb0d     0x5f77 net/built-in.o

.debug_info     0x0000000000000000   0x1e4936
 .debug_info    0x0000000000000000       0x2e arch/arm/cpu/armv8/start.o
 .debug_info    0x000000000000002e     0x5c6b arch/arm/cpu/armv8/built-in.o
 .debug_info    0x0000000000005c99     0xa9ba arch/arm/lib/built-in.o
 .debug_info    0x0000000000010653     0x54e4 arch/arm/mach-bcm283x/built-in.o
 .debug_info    0x0000000000015b37     0x3ac9 board/raspberrypi/rpi/built-in.o
 .debug_info    0x0000000000019600    0x49ea4 cmd/built-in.o
 .debug_info    0x00000000000634a4    0x4bf1a common/built-in.o
 .debug_info    0x00000000000af3be     0x94af disk/built-in.o
 .debug_info    0x00000000000b886d    0x4fe92 drivers/built-in.o
 .debug_info    0x00000000001086ff     0x5e62 drivers/gpio/built-in.o
 .debug_info    0x000000000010e561     0x3ae2 drivers/net/phy/built-in.o
 .debug_info    0x0000000000112043     0x8a1a drivers/serial/built-in.o
 .debug_info    0x000000000011aa5d     0xcb03 drivers/usb/eth/built-in.o
 .debug_info    0x0000000000127560     0x96f5 drivers/usb/host/built-in.o
 .debug_info    0x0000000000130c55     0x880b env/built-in.o
 .debug_info    0x0000000000139460    0x118f4 fs/built-in.o
 .debug_info    0x000000000014ad54    0x8354b lib/built-in.o
 .debug_info    0x00000000001ce29f    0x16697 net/built-in.o

.debug_abbrev   0x0000000000000000    0x3afa0
 .debug_abbrev  0x0000000000000000       0x14 arch/arm/cpu/armv8/start.o
 .debug_abbrev  0x0000000000000014      0xf65 arch/arm/cpu/armv8/built-in.o
 .debug_abbrev  0x0000000000000f79     0x184e arch/arm/lib/built-in.o
 .debug_abbrev  0x00000000000027c7      0xb44 arch/arm/mach-bcm283x/built-in.o
 .debug_abbrev  0x000000000000330b      0x445 board/raspberrypi/rpi/built-in.o
 .debug_abbrev  0x0000000000003750     0x9d58 cmd/built-in.o
 .debug_abbrev  0x000000000000d4a8     0x96c7 common/built-in.o
 .debug_abbrev  0x0000000000016b6f     0x14a1 disk/built-in.o
 .debug_abbrev  0x0000000000018010     0x9e2d drivers/built-in.o
 .debug_abbrev  0x0000000000021e3d      0xa6c drivers/gpio/built-in.o
 .debug_abbrev  0x00000000000228a9      0x65f drivers/net/phy/built-in.o
 .debug_abbrev  0x0000000000022f08     0x1264 drivers/serial/built-in.o
 .debug_abbrev  0x000000000002416c     0x1531 drivers/usb/eth/built-in.o
 .debug_abbrev  0x000000000002569d      0xced drivers/usb/host/built-in.o
 .debug_abbrev  0x000000000002638a     0x1756 env/built-in.o
 .debug_abbrev  0x0000000000027ae0     0x1b6f fs/built-in.o
 .debug_abbrev  0x000000000002964f     0xee61 lib/built-in.o
 .debug_abbrev  0x00000000000384b0     0x2af0 net/built-in.o

.debug_aranges  0x0000000000000000     0xa330
 .debug_aranges
                0x0000000000000000       0x30 arch/arm/cpu/armv8/start.o
 .debug_aranges
                0x0000000000000030      0x440 arch/arm/cpu/armv8/built-in.o
 .debug_aranges
                0x0000000000000470      0x3d0 arch/arm/lib/built-in.o
 .debug_aranges
                0x0000000000000840      0x170 arch/arm/mach-bcm283x/built-in.o
 .debug_aranges
                0x00000000000009b0       0xb0 board/raspberrypi/rpi/built-in.o
 .debug_aranges
                0x0000000000000a60     0x1190 cmd/built-in.o
 .debug_aranges
                0x0000000000001bf0     0x1c60 common/built-in.o
 .debug_aranges
                0x0000000000003850      0x320 disk/built-in.o
 .debug_aranges
                0x0000000000003b70     0x1a60 drivers/built-in.o
 .debug_aranges
                0x00000000000055d0      0x360 drivers/gpio/built-in.o
 .debug_aranges
                0x0000000000005930      0x180 drivers/net/phy/built-in.o
 .debug_aranges
                0x0000000000005ab0      0x2b0 drivers/serial/built-in.o
 .debug_aranges
                0x0000000000005d60      0x370 drivers/usb/eth/built-in.o
 .debug_aranges
                0x00000000000060d0      0x260 drivers/usb/host/built-in.o
 .debug_aranges
                0x0000000000006330      0x2f0 env/built-in.o
 .debug_aranges
                0x0000000000006620      0x6d0 fs/built-in.o
 .debug_aranges
                0x0000000000006cf0     0x2e60 lib/built-in.o
 .debug_aranges
                0x0000000000009b50      0x7e0 net/built-in.o

.debug_str      0x0000000000000000    0x1bd13
 .debug_str     0x0000000000000000       0x7c arch/arm/cpu/armv8/start.o
 .debug_str     0x000000000000007c     0x143c arch/arm/cpu/armv8/built-in.o
                                       0x4284 (size before relaxing)
 .debug_str     0x00000000000014b8     0x1e1c arch/arm/lib/built-in.o
                                       0x966a (size before relaxing)
 .debug_str     0x00000000000032d4      0x43c arch/arm/mach-bcm283x/built-in.o
                                       0x3f3f (size before relaxing)
 .debug_str     0x0000000000003710      0x482 board/raspberrypi/rpi/built-in.o
                                       0x285f (size before relaxing)
 .debug_str     0x0000000000003b92     0x4d61 cmd/built-in.o
                                      0x33ef7 (size before relaxing)
 .debug_str     0x00000000000088f3     0x420f common/built-in.o
                                      0x30269 (size before relaxing)
 .debug_str     0x000000000000cb02      0xbd8 disk/built-in.o
                                       0x4f55 (size before relaxing)
 .debug_str     0x000000000000d6da     0x3c0c drivers/built-in.o
                                      0x32c18 (size before relaxing)
 .debug_str     0x00000000000112e6      0x584 drivers/gpio/built-in.o
                                       0x32e9 (size before relaxing)
 .debug_str     0x000000000001186a      0x24b drivers/net/phy/built-in.o
                                       0x1acc (size before relaxing)
 .debug_str     0x0000000000011ab5      0x6e2 drivers/serial/built-in.o
                                       0x60dd (size before relaxing)
 .debug_str     0x0000000000012197      0x886 drivers/usb/eth/built-in.o
                                       0x742a (size before relaxing)
 .debug_str     0x0000000000012a1d      0x948 drivers/usb/host/built-in.o
                                       0x41c2 (size before relaxing)
 .debug_str     0x0000000000013365      0x6f5 env/built-in.o
                                       0x6ee2 (size before relaxing)
 .debug_str     0x0000000000013a5a     0x1064 fs/built-in.o
                                       0x8c9f (size before relaxing)
 .debug_str     0x0000000000014abe     0x5f0b lib/built-in.o
                                      0x4cee6 (size before relaxing)
 .debug_str     0x000000000001a9c9     0x134a net/built-in.o
                                       0xf3bd (size before relaxing)

.comment        0x0000000000000000       0x5a
 .comment       0x0000000000000000       0x5a arch/arm/cpu/armv8/built-in.o
                                        0x1c7 (size before relaxing)
 .comment       0x000000000000005a      0x333 arch/arm/lib/built-in.o
 .comment       0x000000000000005a      0x1c7 arch/arm/mach-bcm283x/built-in.o
 .comment       0x000000000000005a       0x5b board/raspberrypi/rpi/built-in.o
 .comment       0x000000000000005a      0xeee cmd/built-in.o
 .comment       0x000000000000005a      0xbbb common/built-in.o
 .comment       0x000000000000005a      0x16c disk/built-in.o
 .comment       0x000000000000005a      0xccc drivers/built-in.o
 .comment       0x000000000000005a       0xb6 drivers/gpio/built-in.o
 .comment       0x000000000000005a       0x5b drivers/net/phy/built-in.o
 .comment       0x000000000000005a      0x16c drivers/serial/built-in.o
 .comment       0x000000000000005a      0x16c drivers/usb/eth/built-in.o
 .comment       0x000000000000005a       0xb6 drivers/usb/host/built-in.o
 .comment       0x000000000000005a      0x222 env/built-in.o
 .comment       0x000000000000005a      0x222 fs/built-in.o
 .comment       0x000000000000005a     0x182c lib/built-in.o
 .comment       0x000000000000005a      0x333 net/built-in.o

.note.GNU-stack
                0x0000000000000000        0x0
 .note.GNU-stack
                0x0000000000000000        0x0 arch/arm/cpu/armv8/built-in.o
 .note.GNU-stack
                0x0000000000000000        0x0 arch/arm/lib/built-in.o
 .note.GNU-stack
                0x0000000000000000        0x0 arch/arm/mach-bcm283x/built-in.o
 .note.GNU-stack
                0x0000000000000000        0x0 board/raspberrypi/rpi/built-in.o
 .note.GNU-stack
                0x0000000000000000        0x0 cmd/built-in.o
 .note.GNU-stack
                0x0000000000000000        0x0 common/built-in.o
 .note.GNU-stack
                0x0000000000000000        0x0 disk/built-in.o
 .note.GNU-stack
                0x0000000000000000        0x0 drivers/built-in.o
 .note.GNU-stack
                0x0000000000000000        0x0 drivers/gpio/built-in.o
 .note.GNU-stack
                0x0000000000000000        0x0 drivers/net/phy/built-in.o
 .note.GNU-stack
                0x0000000000000000        0x0 drivers/serial/built-in.o
 .note.GNU-stack
                0x0000000000000000        0x0 drivers/usb/eth/built-in.o
 .note.GNU-stack
                0x0000000000000000        0x0 drivers/usb/host/built-in.o
 .note.GNU-stack
                0x0000000000000000        0x0 env/built-in.o
 .note.GNU-stack
                0x0000000000000000        0x0 fs/built-in.o
 .note.GNU-stack
                0x0000000000000000        0x0 lib/built-in.o
 .note.GNU-stack
                0x0000000000000000        0x0 net/built-in.o

.debug_loc      0x0000000000000000   0x11d46f
 .debug_loc     0x0000000000000000     0x2e55 arch/arm/cpu/armv8/built-in.o
 .debug_loc     0x0000000000002e55     0x14d1 arch/arm/lib/built-in.o
 .debug_loc     0x0000000000004326     0x1194 arch/arm/mach-bcm283x/built-in.o
 .debug_loc     0x00000000000054ba      0x3fc board/raspberrypi/rpi/built-in.o
 .debug_loc     0x00000000000058b6    0x22fca cmd/built-in.o
 .debug_loc     0x0000000000028880    0x3067a common/built-in.o
 .debug_loc     0x0000000000058efa     0x66a4 disk/built-in.o
 .debug_loc     0x000000000005f59e    0x285e5 drivers/built-in.o
 .debug_loc     0x0000000000087b83     0x44e6 drivers/gpio/built-in.o
 .debug_loc     0x000000000008c069     0x34fe drivers/net/phy/built-in.o
 .debug_loc     0x000000000008f567     0x287b drivers/serial/built-in.o
 .debug_loc     0x0000000000091de2     0x61bc drivers/usb/eth/built-in.o
 .debug_loc     0x0000000000097f9e     0x8c92 drivers/usb/host/built-in.o
 .debug_loc     0x00000000000a0c30     0x358e env/built-in.o
 .debug_loc     0x00000000000a41be     0xfd2e fs/built-in.o
 .debug_loc     0x00000000000b3eec    0x5e3f3 lib/built-in.o
 .debug_loc     0x00000000001122df     0xb190 net/built-in.o

.debug_ranges   0x0000000000000000    0x20c80
 .debug_ranges  0x0000000000000000      0xae0 arch/arm/cpu/armv8/built-in.o
 .debug_ranges  0x0000000000000ae0      0x360 arch/arm/lib/built-in.o
 .debug_ranges  0x0000000000000e40      0x270 arch/arm/mach-bcm283x/built-in.o
 .debug_ranges  0x00000000000010b0      0x1b0 board/raspberrypi/rpi/built-in.o
 .debug_ranges  0x0000000000001260     0x3ce0 cmd/built-in.o
 .debug_ranges  0x0000000000004f40     0x5b30 common/built-in.o
 .debug_ranges  0x000000000000aa70      0xc40 disk/built-in.o
 .debug_ranges  0x000000000000b6b0     0x6120 drivers/built-in.o
 .debug_ranges  0x00000000000117d0      0x600 drivers/gpio/built-in.o
 .debug_ranges  0x0000000000011dd0      0x910 drivers/net/phy/built-in.o
 .debug_ranges  0x00000000000126e0      0x5c0 drivers/serial/built-in.o
 .debug_ranges  0x0000000000012ca0      0x8b0 drivers/usb/eth/built-in.o
 .debug_ranges  0x0000000000013550      0xee0 drivers/usb/host/built-in.o
 .debug_ranges  0x0000000000014430      0x6c0 env/built-in.o
 .debug_ranges  0x0000000000014af0     0x16b0 fs/built-in.o
 .debug_ranges  0x00000000000161a0     0x8f00 lib/built-in.o
 .debug_ranges  0x000000000001f0a0     0x1be0 net/built-in.o
