
build/rpi3/debug/bl2/bl2.elf:     file format elf64-littleaarch64
build/rpi3/debug/bl2/bl2.elf
architecture: aarch64, flags 0x00000112:
EXEC_P, HAS_SYMS, D_PAGED
start address 0x00000000100b4000

Program Header:
    LOAD off    0x0000000000000000 vaddr 0x00000000100b0000 paddr 0x00000000100b0000 align 2**16
         filesz 0x000000000000c410 memsz 0x0000000000015000 flags rwx
   STACK off    0x0000000000000000 vaddr 0x0000000000000000 paddr 0x0000000000000000 align 2**4
         filesz 0x0000000000000000 memsz 0x0000000000000000 flags rw-
private flags = 0:

Sections:
Idx Name          Size      VMA               LMA               File off  Algn
  0 .text         00006000  00000000100b4000  00000000100b4000  00004000  2**11
                  CONTENTS, ALLOC, LOAD, READONLY, CODE
  1 .rodata       00002000  00000000100ba000  00000000100ba000  0000a000  2**3
                  CONTENTS, ALLOC, LOAD, READONLY, DATA
  2 .data         00000410  00000000100bc000  00000000100bc000  0000c000  2**3
                  CONTENTS, ALLOC, LOAD, DATA
  3 stacks        00004000  00000000100bc440  00000000100bc440  0000c410  2**6
                  ALLOC
  4 .bss          000005d0  00000000100c0440  00000000100c0440  0000c410  2**6
                  ALLOC
  5 xlat_table    00004000  00000000100c1000  00000000100c1000  0000c410  2**12
                  ALLOC
  6 coherent_ram  00000000  00000000100c5000  00000000100c5000  0000d000  2**12
                  CONTENTS
  7 .debug_info   00013055  0000000000000000  0000000000000000  0000d000  2**0
                  CONTENTS, READONLY, DEBUGGING
  8 .debug_abbrev 000046c6  0000000000000000  0000000000000000  00020055  2**0
                  CONTENTS, READONLY, DEBUGGING
  9 .debug_aranges 00001430  0000000000000000  0000000000000000  00024720  2**4
                  CONTENTS, READONLY, DEBUGGING
 10 .debug_line   00008b6c  0000000000000000  0000000000000000  00025b50  2**0
                  CONTENTS, READONLY, DEBUGGING
 11 .debug_str    00002dc0  0000000000000000  0000000000000000  0002e6bc  2**0
                  CONTENTS, READONLY, DEBUGGING
 12 .comment      0000005a  0000000000000000  0000000000000000  0003147c  2**0
                  CONTENTS, READONLY
 13 .debug_loc    00013280  0000000000000000  0000000000000000  000314d6  2**0
                  CONTENTS, READONLY, DEBUGGING
 14 .debug_ranges 00002a80  0000000000000000  0000000000000000  00044760  2**4
                  CONTENTS, READONLY, DEBUGGING
 15 .debug_frame  00000760  0000000000000000  0000000000000000  000471e0  2**3
                  CONTENTS, READONLY, DEBUGGING
SYMBOL TABLE:
00000000100b4000 l    d  .text	0000000000000000 .text
00000000100ba000 l    d  .rodata	0000000000000000 .rodata
00000000100bc000 l    d  .data	0000000000000000 .data
00000000100bc440 l    d  stacks	0000000000000000 stacks
00000000100c0440 l    d  .bss	0000000000000000 .bss
00000000100c1000 l    d  xlat_table	0000000000000000 xlat_table
00000000100c5000 l    d  coherent_ram	0000000000000000 coherent_ram
0000000000000000 l    d  .debug_info	0000000000000000 .debug_info
0000000000000000 l    d  .debug_abbrev	0000000000000000 .debug_abbrev
0000000000000000 l    d  .debug_aranges	0000000000000000 .debug_aranges
0000000000000000 l    d  .debug_line	0000000000000000 .debug_line
0000000000000000 l    d  .debug_str	0000000000000000 .debug_str
0000000000000000 l    d  .comment	0000000000000000 .comment
0000000000000000 l    d  .debug_loc	0000000000000000 .debug_loc
0000000000000000 l    d  .debug_ranges	0000000000000000 .debug_ranges
0000000000000000 l    d  .debug_frame	0000000000000000 .debug_frame
0000000000000000 l    df *ABS*	0000000000000000 ./build/rpi3/debug/bl2/bl2_entrypoint.o
0000000000000000 l    df *ABS*	0000000000000000 desc_image_load.c
00000000100c0688 l     O .bss	0000000000000010 bl_load_info
00000000100c0698 l     O .bss	0000000000000010 next_bl_params
0000000000000000 l    df *ABS*	0000000000000000 io_fip.c
00000000100b4398 l     F .text	0000000000000008 device_type_fip
00000000100b43a0 l     F .text	000000000000003c fip_file_close
00000000100b43dc l     F .text	00000000000000d8 fip_dev_init
00000000100b44b4 l     F .text	0000000000000120 fip_file_read
00000000100b45d4 l     F .text	000000000000007c fip_dev_open
00000000100b4650 l     F .text	0000000000000040 fip_file_len
00000000100b4690 l     F .text	0000000000000154 fip_file_open
00000000100b47e4 l     F .text	0000000000000070 fip_dev_close
00000000100c06a8 l     O .bss	0000000000000008 backend_dev_handle
00000000100c06b0 l     O .bss	0000000000000008 backend_image_spec
00000000100c06b8 l     O .bss	0000000000000030 current_file
00000000100c06e8 l     O .bss	0000000000000010 dev_info_pool
00000000100c09c8 l     O .bss	0000000000000004 fip_dev_count
00000000100c06f8 l     O .bss	0000000000000008 state_pool
00000000100ba1e0 l     O .rodata	0000000000000008 fip_dev_connector
00000000100ba1e8 l     O .rodata	0000000000000048 fip_dev_funcs
00000000100ba230 l     O .rodata	0000000000000010 uuid_null
0000000000000000 l    df *ABS*	0000000000000000 io_memmap.c
00000000100b48a0 l     F .text	0000000000000008 device_type_memmap
00000000100b48a8 l     F .text	0000000000000008 memmap_dev_close
00000000100b48b0 l     F .text	0000000000000030 memmap_dev_open
00000000100b48e0 l     F .text	0000000000000040 memmap_block_len
00000000100b4920 l     F .text	0000000000000060 memmap_block_seek
00000000100b4980 l     F .text	000000000000003c memmap_block_close
00000000100b49bc l     F .text	0000000000000084 memmap_block_write
00000000100b4a40 l     F .text	0000000000000088 memmap_block_read
00000000100b4ac8 l     F .text	000000000000006c memmap_block_open
00000000100c0700 l     O .bss	0000000000000020 current_file
00000000100ba290 l     O .rodata	0000000000000008 memmap_dev_connector
00000000100ba298 l     O .rodata	0000000000000048 memmap_dev_funcs
00000000100ba2e0 l     O .rodata	0000000000000010 memmap_dev_info
0000000000000000 l    df *ABS*	0000000000000000 io_storage.c
00000000100b4b80 l     F .text	0000000000000038 is_valid_dev
00000000100b4bb8 l     F .text	000000000000002c is_valid_entity
00000000100b4be4 l     F .text	0000000000000068 free_entity
00000000100c09cc l     O .bss	0000000000000004 dev_count
00000000100c09d0 l     O .bss	0000000000000004 entity_count
00000000100c0720 l     O .bss	0000000000000020 entity_map
00000000100c0740 l     O .bss	0000000000000040 entity_pool
0000000000000000 l    df *ABS*	0000000000000000 gpio.c
00000000100c0780 l     O .bss	0000000000000008 ops
0000000000000000 l    df *ABS*	0000000000000000 delay_timer.c
00000000100c0788 l     O .bss	0000000000000008 timer_ops
0000000000000000 l    df *ABS*	0000000000000000 generic_delay_timer.c
00000000100b5214 l     F .text	000000000000000c get_timer_value
00000000100c0790 l     O .bss	0000000000000010 ops
0000000000000000 l    df *ABS*	0000000000000000 rpi3_gpio.c
00000000100b5284 l     F .text	0000000000000038 rpi3_gpio_get_value
00000000100b52bc l     F .text	0000000000000048 rpi3_gpio_set_value
00000000100b5304 l     F .text	0000000000000098 rpi3_gpio_set_pull
00000000100b53c8 l     F .text	000000000000001c rpi3_gpio_get_direction
00000000100b5424 l     F .text	0000000000000020 rpi3_gpio_set_direction
00000000100c07a0 l     O .bss	0000000000000008 rpi3_gpio_params
00000000100ba360 l     O .rodata	0000000000000030 rpi3_gpio_ops
0000000000000000 l    df *ABS*	0000000000000000 mmc.c
00000000100b5484 l     F .text	0000000000000084 mmc_send_cmd
00000000100b5508 l     F .text	0000000000000074 mmc_device_state
00000000100b557c l     F .text	0000000000000040 mmc_reset_to_idle
00000000100b55bc l     F .text	0000000000000060 mmc_set_ext_csd
00000000100c09d4 l     O .bss	0000000000000010 mmc_csd
00000000100c07a8 l     O .bss	0000000000000008 mmc_dev_info
00000000100c0480 l     O .bss	0000000000000200 mmc_ext_csd
00000000100c09e4 l     O .bss	0000000000000004 mmc_flags
00000000100c09e8 l     O .bss	0000000000000004 mmc_ocr_value
00000000100c07b0 l     O .bss	0000000000000008 ops
00000000100c09ec l     O .bss	0000000000000004 rca
00000000100c0680 l     O .bss	0000000000000008 scr
00000000100ba457 l     O .rodata	0000000000000010 sd_tran_speed_base
00000000100ba467 l     O .rodata	0000000000000010 tran_speed_base
0000000000000000 l    df *ABS*	0000000000000000 rpi3_sdhost.c
00000000100b5c34 l     F .text	0000000000000060 rpi3_sdhost_waitcommand
00000000100b5c94 l     F .text	000000000000007c send_command_decorated
00000000100b5d10 l     F .text	00000000000000c8 rpi3_sdhost_write
00000000100b5dd8 l     F .text	0000000000000220 rpi3_sdhost_read
00000000100b5ff8 l     F .text	00000000000000e0 rpi3_sdhost_set_ios
00000000100b60d8 l     F .text	00000000000000a8 rpi3_drain_fifo
00000000100b6180 l     F .text	0000000000000068 rpi3_sdhost_prepare
00000000100b61e8 l     F .text	0000000000000224 rpi3_sdhost_send_cmd
00000000100b640c l     F .text	00000000000000bc rpi3_sdhost_initialize
00000000100c07b8 l     O .bss	0000000000000040 rpi3_sdhost_params
00000000100ba84a l     O .rodata	0000000000000068 CSWTCH.15
00000000100ba8b2 l     O .rodata	0000000000000010 __func__.2604
00000000100ba8c8 l     O .rodata	0000000000000030 rpi3_sdhost_ops
0000000000000000 l    df *ABS*	0000000000000000 rpi3_bl2_setup.c
00000000100c0440 l     O .bss	0000000000000010 bl2_tzram_layout
00000000100c07f8 l     O .bss	0000000000000018 mmc_info
0000000000000000 l    df *ABS*	0000000000000000 rpi3_image_load.c
0000000000000000 l    df *ABS*	0000000000000000 rpi3_io_storage.c
00000000100b684c l     F .text	0000000000000060 open_fip
00000000100b68ac l     F .text	0000000000000060 open_memmap
00000000100c0810 l     O .bss	0000000000000008 fip_dev_con
00000000100c0818 l     O .bss	0000000000000008 fip_dev_handle
00000000100c0820 l     O .bss	0000000000000008 memmap_dev_con
00000000100c0828 l     O .bss	0000000000000008 memmap_dev_handle
00000000100ba955 l     O .rodata	0000000000000010 bl2_uuid_spec
00000000100ba965 l     O .rodata	0000000000000010 bl31_uuid_spec
00000000100ba975 l     O .rodata	0000000000000010 bl32_extra1_uuid_spec
00000000100ba985 l     O .rodata	0000000000000010 bl32_extra2_uuid_spec
00000000100ba995 l     O .rodata	0000000000000010 bl32_uuid_spec
00000000100ba9a5 l     O .rodata	0000000000000010 bl33_uuid_spec
00000000100ba9b8 l     O .rodata	0000000000000010 fip_block_spec
00000000100ba9c8 l     O .rodata	0000000000000228 policies
0000000000000000 l    df *ABS*	0000000000000000 optee_utils.c
00000000100b6a1c l     F .text	00000000000000a4 parse_optee_image
0000000000000000 l    df *ABS*	0000000000000000 bl2_image_load_v2.c
0000000000000000 l    df *ABS*	0000000000000000 bl2_main.c
0000000000000000 l    df *ABS*	0000000000000000 bl2_arch_setup.c
0000000000000000 l    df *ABS*	0000000000000000 bl_common.c
0000000000000000 l    df *ABS*	0000000000000000 tf_log.c
00000000100bc3a8 l     O .data	0000000000000004 max_log_level
0000000000000000 l    df *ABS*	0000000000000000 multi_console.c
0000000000000000 l    df *ABS*	0000000000000000 plat_bl_common.c
0000000000000000 l    df *ABS*	0000000000000000 plat_log_common.c
00000000100bafb0 l     O .rodata	0000000000000028 plat_prefix_str
0000000000000000 l    df *ABS*	0000000000000000 backtrace.c
00000000100b7370 l     F .text	0000000000000040 is_address_readable
00000000100b73b0 l     F .text	0000000000000054 is_valid_object.constprop.0
0000000000000000 l    df *ABS*	0000000000000000 rpi3_common.c
00000000100c0830 l     O .bss	0000000000000030 rpi3_console
00000000100bb0b3 l     O .rodata	0000000000000012 __func__.2424
00000000100bb0c8 l     O .rodata	00000000000000f0 plat_rpi3_mmap
0000000000000000 l    df *ABS*	0000000000000000 xlat_tables_arch.c
00000000100bb1e8 l     O .rodata	000000000000001c pa_range_bits_arr
0000000000000000 l    df *ABS*	0000000000000000 xlat_tables_context.c
00000000100c0460 l     O .bss	0000000000000020 tf_base_xlat_table
00000000100c0860 l     O .bss	0000000000000168 tf_mmap
00000000100bc3b0 l     O .data	0000000000000060 tf_xlat_ctx
00000000100c1000 l     O xlat_table	0000000000004000 tf_xlat_tables
0000000000000000 l    df *ABS*	0000000000000000 xlat_tables_core.c
00000000100b7a4c l     F .text	0000000000000040 xlat_clean_dcache_range
00000000100b7b90 l     F .text	0000000000000274 xlat_tables_map_region
00000000100bb2cd l     O .rodata	0000000000000015 __func__.2541
0000000000000000 l    df *ABS*	0000000000000000 xlat_tables_utils.c
0000000000000000 l    df *ABS*	0000000000000000 ./build/rpi3/debug/bl2/platform_mp_stack.o
00000000100bc440 l       stacks	0000000000000000 platform_normal_stacks
0000000000000006 l       *ABS*	0000000000000000 TZ_COUNT
0000000000000000 l    df *ABS*	0000000000000000 ./build/rpi3/debug/bl2/plat_helpers.o
0000000000000000 l    df *ABS*	0000000000000000 ./build/rpi3/debug/bl2/debug.o
00000000100bb2e2 l       .rodata	0000000000000000 assert_msg1
00000000100bb2f0 l       .rodata	0000000000000000 assert_msg2
00000000100b835c l       .text	0000000000000000 _assert_loop
00000000100b8340 l       .text	0000000000000000 dec_print_loop
00000000100bb2f7 l       .rodata	0000000000000000 panic_msg
00000000100b83c4 l       .text	0000000000000000 panic_common
00000000100b83e8 l       .text	0000000000000000 _panic_handler
0000000000000000 l    df *ABS*	0000000000000000 ./build/rpi3/debug/bl2/cache_helpers.o
00000000100b8424 l       .text	0000000000000000 exit_loop_civac
00000000100b8410 l       .text	0000000000000000 loop_civac
00000000100b845c l       .text	0000000000000000 exit_loop_cvac
00000000100b8448 l       .text	0000000000000000 loop_cvac
00000000100b8494 l       .text	0000000000000000 exit_loop_ivac
00000000100b8480 l       .text	0000000000000000 loop_ivac
0000000000000000 l    df *ABS*	0000000000000000 ./build/rpi3/debug/bl2/misc_helpers.o
00000000100b84a4 l     F .text	0000000000000114 zeromem_dczva
0000000000000000 l    df *ABS*	0000000000000000 ./build/rpi3/debug/bl2/platform_helpers.o
0000000000000000 l    df *ABS*	0000000000000000 ./build/rpi3/debug/bl2/16550_console.o
00000000100b862c l       .text	0000000000000000 init_fail
00000000100b8684 l       .text	0000000000000000 register_fail
00000000100b8714 l       .text	0000000000000000 no_char
0000000000000000 l    df *ABS*	0000000000000000 ./build/rpi3/debug/bl2/enable_mmu.o
0000000000000000 l    df *ABS*	0000000000000000 assert.c
0000000000000000 l    df *ABS*	0000000000000000 memcmp.c
0000000000000000 l    df *ABS*	0000000000000000 memcpy.c
0000000000000000 l    df *ABS*	0000000000000000 memmove.c
0000000000000000 l    df *ABS*	0000000000000000 memset.c
0000000000000000 l    df *ABS*	0000000000000000 printf.c
00000000100b88c4 l     F .text	00000000000000d0 unsigned_num_print
0000000000000000 l    df *ABS*	0000000000000000 putchar.c
0000000000000000 l    df *ABS*	0000000000000000 ./build/rpi3/debug/bl2/early_exceptions.o
00000000100b9000 l     F .text	0000000000000000 SynchronousExceptionSP0
00000000100b9080 l     F .text	0000000000000000 IrqSP0
00000000100b9100 l     F .text	0000000000000000 FiqSP0
00000000100b9180 l     F .text	0000000000000000 SErrorSP0
00000000100b9200 l     F .text	0000000000000000 SynchronousExceptionSPx
00000000100b9280 l     F .text	0000000000000000 IrqSPx
00000000100b9300 l     F .text	0000000000000000 FiqSPx
00000000100b9380 l     F .text	0000000000000000 SErrorSPx
00000000100b9400 l     F .text	0000000000000000 SynchronousExceptionA64
00000000100b9480 l     F .text	0000000000000000 IrqA64
00000000100b9500 l     F .text	0000000000000000 FiqA64
00000000100b9580 l     F .text	0000000000000000 SErrorA64
00000000100b9600 l     F .text	0000000000000000 SynchronousExceptionA32
00000000100b9680 l     F .text	0000000000000000 IrqA32
00000000100b9700 l     F .text	0000000000000000 FiqA32
00000000100b9780 l     F .text	0000000000000000 SErrorA32
0000000000000000 l    df *ABS*	0000000000000000 
0000000000000000 l    df *ABS*	0000000000000000 rpi3_bl2_mem_params_desc.c
00000000100bc000 l     O .data	0000000000000398 bl2_mem_params_descs
00000000100b8de8 g     F .text	000000000000002c putchar
00000000100b71e4 g     F .text	0000000000000034 console_set_scope
00000000100b51c8 g     F .text	000000000000000c mdelay
00000000100b7174 g     F .text	0000000000000070 console_register
00000000100c5000 g       coherent_ram	0000000000000000 __COHERENT_RAM_END__
00000000100b8764 g     F .text	000000000000001c console_16550_flush
00000000100b849c g     F .text	0000000000000008 zeromem
00000000100ba01e g     O .rodata	000000000000001c version_string
00000000100b53e4 g     F .text	0000000000000040 rpi3_gpio_set_select
00000000100b8060 g     F .text	000000000000003c mmap_add_ctx
00000000100b8d94 g     F .text	0000000000000054 printf
00000000100c09f8 g     O .bss	0000000000000018 mmu_cfg_params
00000000100b8288 g     F .text	0000000000000004 xlat_tables_print
00000000100bc000 g       .rodata	0000000000000000 __RW_START__
00000000100b8688 g     F .text	000000000000004c console_16550_core_putc
00000000100b7a04 g     F .text	0000000000000048 enable_mmu_el1
00000000100b8498 g     F .text	0000000000000004 smc
00000000100b8780 g     F .text	0000000000000070 enable_mmu_direct_el1
00000000100b6720 g     F .text	0000000000000058 bl2_plat_arch_setup
00000000100b86d4 g     F .text	000000000000001c console_16550_putc
00000000100b8304 g     F .text	0000000000000060 asm_assert
00000000100b83ac g     F .text	0000000000000044 do_panic
00000000100b8874 g     F .text	0000000000000034 memmove
00000000100b7850 g     F .text	0000000000000108 setup_mmu_cfg
00000000100b7340  w    F .text	0000000000000030 plat_log_get_prefix
00000000100b85b8  w    F .text	0000000000000004 plat_report_exception
00000000100ba000 g     O .rodata	000000000000001e build_message
00000000100b799c g     F .text	0000000000000068 init_xlat_tables
00000000100bc000 g       .data	0000000000000000 __DATA_START__
00000000100b4184 g     F .text	0000000000000048 get_bl_mem_params_node
00000000100b7760 g     F .text	0000000000000038 xlat_arch_regime_get_xn_desc
00000000100b671c g     F .text	0000000000000004 bl2_platform_setup
00000000100b8854 g     F .text	0000000000000020 memcpy
00000000100b40f8 g     F .text	000000000000001c flush_bl_params_desc
00000000100b84a4 g     F .text	0000000000000114 zero_normalmem
00000000100b798c g     F .text	0000000000000010 mmap_add
00000000100b7654 g     F .text	000000000000000c plat_get_syscnt_freq2
00000000100b85bc  w    F .text	0000000000000008 plat_panic_handler
00000000100b6840 g     F .text	0000000000000004 plat_flush_next_bl_params
00000000100c0440 g       stacks	0000000000000000 __STACKS_END__
00000000100b7550 g     F .text	000000000000005c rpi3_console_init
00000000100b8428 g     F .text	0000000000000038 clean_dcache_range
00000000100bc3a0 g     O .data	0000000000000008 bl_mem_params_desc_ptr
00000000100b64c8 g     F .text	00000000000000d8 rpi3_sdhost_init
00000000100b4f30 g     F .text	0000000000000068 io_size
00000000100b6e30 g     F .text	0000000000000014 bl2_setup
00000000100b4c90 g     F .text	0000000000000048 io_dev_open
00000000100b82a8  w    F .text	0000000000000010 plat_set_my_stack
00000000100b4114 g     F .text	0000000000000070 get_bl_params_node_index
00000000100b837c g     F .text	0000000000000030 asm_print_hex
00000000000005d0 g       *ABS*	0000000000000000 __BSS_SIZE__
00000000100b8364 g     F .text	0000000000000018 asm_print_str
00000000100b9000 g       .text	0000000000000000 early_exceptions
00000000100b8738 g     F .text	000000000000002c console_16550_core_flush
00000000100b82f8 g     F .text	000000000000000c plat_crash_console_flush
00000000100b7324  w    F .text	0000000000000008 plat_error_handler
00000000100b6778 g     F .text	00000000000000c8 bl2_plat_handle_post_image_load
00000000100b7218 g     F .text	000000000000009c console_putc
00000000100b5444 g     F .text	0000000000000040 rpi3_gpio_init
00000000100b82d0 g     F .text	000000000000001c plat_crash_console_init
00000000100b83f0 g     F .text	0000000000000038 flush_dcache_range
00000000100b51d4 g     F .text	0000000000000040 timer_init
00000000100b4248 g     F .text	0000000000000150 get_next_bl_params_from_mem_params_desc
00000000100b86f0 g     F .text	000000000000002c console_16550_core_getc
00000000100b7404 g     F .text	000000000000014c backtrace
00000000100b7710 g     F .text	000000000000001c xlat_get_min_virt_addr_space_size
00000000100b8994 g     F .text	0000000000000400 vprintf
00000000100b65a0 g     F .text	00000000000000d4 rpi3_sdhost_stop
00000000100b772c g     F .text	0000000000000034 is_dcache_enabled
00000000100b561c g     F .text	0000000000000618 mmc_init
00000000100b6844 g     F .text	0000000000000004 plat_get_bl_image_load_info
00000000100b6ebc g     F .text	00000000000001a8 load_auth_image
00000000100b75ac g     F .text	0000000000000098 rpi3_setup_page_tables
00000000100bc000 g       .rodata	0000000000000000 __RODATA_END__
00000000100c5000 g       xlat_table	0000000000000000 __BL2_END__
00000000100b7798 g     F .text	000000000000002c xlat_arch_current_el
00000000100b6e44 g     F .text	000000000000006c bl2_main
00000000100ba000 g       .rodata	0000000000000000 __RODATA_START__
00000000100bc410 g       .data	0000000000000000 __DATA_END__
00000000100b8380 g       .text	0000000000000000 asm_print_hex_bits
00000000100b5120 g     F .text	00000000000000a8 udelay
00000000100b7660 g     F .text	000000000000006c tcr_physical_addr_size_bits
00000000100b8460 g     F .text	0000000000000038 inv_dcache_range
00000000100bc3ac g     O .data	0000000000000001 console_state
00000000100b4000 g     F .text	000000000000009c bl2_entrypoint
00000000100b5240 g     F .text	0000000000000044 generic_delay_timer_init
00000000100b5220 g     F .text	0000000000000020 generic_delay_timer_init_args
00000000100b8820 g     F .text	0000000000000034 memcmp
00000000100b7a8c g     F .text	0000000000000104 xlat_desc
00000000100b82c0 g     F .text	0000000000000010 plat_rpi3_calc_core_pos
00000000100c0a10 g       .bss	0000000000000000 __BSS_END__
00000000100b4eac g     F .text	0000000000000084 io_seek
00000000100b5018 g     F .text	0000000000000064 io_close
00000000100c5000 g       coherent_ram	0000000000000000 __COHERENT_RAM_START__
00000000100b88a8 g     F .text	000000000000001c memset
00000000100b8634 g     F .text	0000000000000054 console_16550_register
00000000100bb3d0 g       .rodata	0000000000000000 __PARSER_LIB_DESCS_END__
0000000000000000 g       *ABS*	0000000000000000 __COHERENT_RAM_UNALIGNED_SIZE__
00000000100bc398 g     O .data	0000000000000004 bl_mem_params_desc_num
00000000100b732c  w    F .text	0000000000000004 bl2_plat_preload_setup
00000000100b76cc g     F .text	0000000000000044 xlat_arch_get_max_supported_pa
00000000100b6c68 g     F .text	00000000000001c8 bl2_load_images
00000000100b6eb0 g     F .text	000000000000000c bl2_arch_setup
00000000100b7644 g     F .text	0000000000000008 rpi3_get_spsr_for_bl32_entry
00000000100ba000 g       .text	0000000000000000 __TEXT_END__
00000000100b6674 g     F .text	00000000000000a8 bl2_early_platform_setup2
00000000100b409c g     F .text	000000000000005c flush_bl_params_desc_args
00000000100b72b4 g     F .text	0000000000000070 console_flush
00000000100b4cd8 g     F .text	000000000000006c io_dev_init
00000000100b4f98 g     F .text	0000000000000080 io_read
00000000100c0440 g       .bss	0000000000000000 __BSS_START__
00000000100b764c g     F .text	0000000000000008 rpi3_get_spsr_for_bl33_entry
00000000100b7e04 g     F .text	000000000000025c mmap_add_region_ctx
00000000100b7338  w    F .text	0000000000000008 plat_try_next_boot_source
00000000100b82ec g     F .text	000000000000000c plat_crash_console_putc
00000000100b4da8 g     F .text	0000000000000104 io_open
00000000100b712c g     F .text	0000000000000048 console_is_registered
00000000100b77c4 g     F .text	000000000000008c is_mmu_enabled_ctx
00000000100b699c g     F .text	0000000000000080 plat_get_image_source
00000000100b7064 g     F .text	00000000000000c8 tf_log
00000000100b4c4c g     F .text	0000000000000044 io_register_device
00000000100b6ac0 g     F .text	00000000000001a8 parse_optee_header
00000000100b507c g     F .text	000000000000005c gpio_set_pull
00000000100c5000 g       xlat_table	0000000000000000 __RW_END__
00000000100c5000 g       coherent_ram	0000000000000000 __COHERENT_RAM_END_UNALIGNED__
00000000100b871c g     F .text	000000000000001c console_16550_getc
00000000100b41cc g     F .text	000000000000007c get_bl_load_info_from_mem_params_desc
00000000100bc440 g       stacks	0000000000000000 __STACKS_START__
00000000100b690c g     F .text	0000000000000090 plat_rpi3_io_setup
00000000100b809c g     F .text	00000000000001e8 init_xlat_tables_ctx
00000000100b82b8 g     F .text	0000000000000008 plat_my_core_pos
00000000100b7330  w    F .text	0000000000000008 bl2_plat_handle_pre_image_load
00000000100b4b34 g     F .text	000000000000004c register_io_dev_memmap
00000000100b4d44 g     F .text	0000000000000064 io_dev_close
00000000100b87f0 g     F .text	0000000000000030 __assert
00000000100b83c4  w      .text	0000000000000000 el3_panic
00000000100b8284 g     F .text	0000000000000004 xlat_mmap_print
00000000100b4854 g     F .text	000000000000004c register_io_dev_fip
00000000100b50d8 g     F .text	0000000000000048 gpio_init
00000000100b85c4 g     F .text	0000000000000070 console_16550_core_init
00000000100c09f0 g     O .bss	0000000000000008 console_list
00000000100b6848 g     F .text	0000000000000004 plat_get_next_bl_params
00000000100b539c g     F .text	000000000000002c rpi3_gpio_get_select
00000000100b828c  w    F .text	000000000000001c plat_get_my_stack
00000000100b7958 g     F .text	0000000000000034 mmap_add_region
00000000100b4000 g       .text	0000000000000000 __TEXT_START__
00000000100bb3d0 g       .rodata	0000000000000000 __PARSER_LIB_DESCS_START__



Disassembly of section .text:

00000000100b4000 <bl2_entrypoint>:
    100b4000:	aa0003f4 	mov	x20, x0
    100b4004:	aa0103f5 	mov	x21, x1
    100b4008:	aa0203f6 	mov	x22, x2
    100b400c:	aa0303f7 	mov	x23, x3
    100b4010:	10027f80 	adr	x0, 100b9000 <SynchronousExceptionSP0>
    100b4014:	d518c000 	msr	vbar_el1, x0
    100b4018:	d5033fdf 	isb
    100b401c:	d50344ff 	msr	daifclr, #0x4
    100b4020:	d2820141 	mov	x1, #0x100a                	// #4106
    100b4024:	d5381000 	mrs	x0, sctlr_el1
    100b4028:	aa010000 	orr	x0, x0, x1
    100b402c:	9253f800 	and	x0, x0, #0xffffefffffffffff
    100b4030:	d5181000 	msr	sctlr_el1, x0
    100b4034:	d5033fdf 	isb
    100b4038:	1003fe40 	adr	x0, 100bc000 <__RODATA_END__>
    100b403c:	10087e21 	adr	x1, 100c5000 <__BL2_END__>
    100b4040:	cb000021 	sub	x1, x1, x0
    100b4044:	94001107 	bl	100b8460 <inv_dcache_range>
    100b4048:	90000060 	adrp	x0, 100c0000 <__STACKS_START__+0x3bc0>
    100b404c:	91110000 	add	x0, x0, #0x440
    100b4050:	90000061 	adrp	x1, 100c0000 <__STACKS_START__+0x3bc0>
    100b4054:	91284021 	add	x1, x1, #0xa10
    100b4058:	cb000021 	sub	x1, x1, x0
    100b405c:	94001110 	bl	100b849c <zeromem>
    100b4060:	b0000080 	adrp	x0, 100c5000 <__BL2_END__>
    100b4064:	91000000 	add	x0, x0, #0x0
    100b4068:	b0000081 	adrp	x1, 100c5000 <__BL2_END__>
    100b406c:	91000021 	add	x1, x1, #0x0
    100b4070:	cb000021 	sub	x1, x1, x0
    100b4074:	9400110a 	bl	100b849c <zeromem>
    100b4078:	9400108c 	bl	100b82a8 <plat_set_my_stack>
    100b407c:	aa1403e0 	mov	x0, x20
    100b4080:	aa1503e1 	mov	x1, x21
    100b4084:	aa1603e2 	mov	x2, x22
    100b4088:	aa1703e3 	mov	x3, x23
    100b408c:	94000b69 	bl	100b6e30 <bl2_setup>
    100b4090:	94000b6d 	bl	100b6e44 <bl2_main>
    100b4094:	9400114a 	bl	100b85bc <plat_panic_handler>
    100b4098:	d503201f 	nop

00000000100b409c <flush_bl_params_desc_args>:
    100b409c:	a9be7bfd 	stp	x29, x30, [sp, #-32]!
    100b40a0:	910003fd 	mov	x29, sp
    100b40a4:	f9000bf3 	str	x19, [sp, #16]
    100b40a8:	b50000a0 	cbnz	x0, 100b40bc <flush_bl_params_desc_args+0x20>
    100b40ac:	528004a1 	mov	w1, #0x25                  	// #37
    100b40b0:	d0000020 	adrp	x0, 100ba000 <__TEXT_END__>
    100b40b4:	9100e800 	add	x0, x0, #0x3a
    100b40b8:	940011ce 	bl	100b87f0 <__assert>
    100b40bc:	35000061 	cbnz	w1, 100b40c8 <flush_bl_params_desc_args+0x2c>
    100b40c0:	528004c1 	mov	w1, #0x26                  	// #38
    100b40c4:	17fffffb 	b	100b40b0 <flush_bl_params_desc_args+0x14>
    100b40c8:	aa0203f3 	mov	x19, x2
    100b40cc:	b5000062 	cbnz	x2, 100b40d8 <flush_bl_params_desc_args+0x3c>
    100b40d0:	528004e1 	mov	w1, #0x27                  	// #39
    100b40d4:	17fffff7 	b	100b40b0 <flush_bl_params_desc_args+0x14>
    100b40d8:	52801702 	mov	w2, #0xb8                  	// #184
    100b40dc:	9ba27c21 	umull	x1, w1, w2
    100b40e0:	940010c4 	bl	100b83f0 <flush_dcache_range>
    100b40e4:	aa1303e0 	mov	x0, x19
    100b40e8:	d2800201 	mov	x1, #0x10                  	// #16
    100b40ec:	f9400bf3 	ldr	x19, [sp, #16]
    100b40f0:	a8c27bfd 	ldp	x29, x30, [sp], #32
    100b40f4:	140010bf 	b	100b83f0 <flush_dcache_range>

00000000100b40f8 <flush_bl_params_desc>:
    100b40f8:	90000040 	adrp	x0, 100bc000 <__RODATA_END__>
    100b40fc:	b9439801 	ldr	w1, [x0, #920]
    100b4100:	90000040 	adrp	x0, 100bc000 <__RODATA_END__>
    100b4104:	f941d000 	ldr	x0, [x0, #928]
    100b4108:	90000062 	adrp	x2, 100c0000 <__STACKS_START__+0x3bc0>
    100b410c:	911a6042 	add	x2, x2, #0x698
    100b4110:	17ffffe3 	b	100b409c <flush_bl_params_desc_args>

00000000100b4114 <get_bl_params_node_index>:
    100b4114:	3100041f 	cmn	w0, #0x1
    100b4118:	540001a0 	b.eq	100b414c <get_bl_params_node_index+0x38>  // b.none
    100b411c:	2a0003e1 	mov	w1, w0
    100b4120:	90000040 	adrp	x0, 100bc000 <__RODATA_END__>
    100b4124:	b9439804 	ldr	w4, [x0, #920]
    100b4128:	90000040 	adrp	x0, 100bc000 <__RODATA_END__>
    100b412c:	f941d002 	ldr	x2, [x0, #928]
    100b4130:	d2801703 	mov	x3, #0xb8                  	// #184
    100b4134:	d2800000 	mov	x0, #0x0                   	// #0
    100b4138:	d102e042 	sub	x2, x2, #0xb8
    100b413c:	6b00009f 	cmp	w4, w0
    100b4140:	54000128 	b.hi	100b4164 <get_bl_params_node_index+0x50>  // b.pmore
    100b4144:	12800000 	mov	w0, #0xffffffff            	// #-1
    100b4148:	d65f03c0 	ret
    100b414c:	a9bf7bfd 	stp	x29, x30, [sp, #-16]!
    100b4150:	d0000020 	adrp	x0, 100ba000 <__TEXT_END__>
    100b4154:	9100e800 	add	x0, x0, #0x3a
    100b4158:	910003fd 	mov	x29, sp
    100b415c:	52800701 	mov	w1, #0x38                  	// #56
    100b4160:	940011a4 	bl	100b87f0 <__assert>
    100b4164:	d503201f 	nop
    100b4168:	9b030c06 	madd	x6, x0, x3, x3
    100b416c:	91000405 	add	x5, x0, #0x1
    100b4170:	b8666846 	ldr	w6, [x2, x6]
    100b4174:	6b0100df 	cmp	w6, w1
    100b4178:	54fffe80 	b.eq	100b4148 <get_bl_params_node_index+0x34>  // b.none
    100b417c:	aa0503e0 	mov	x0, x5
    100b4180:	17ffffef 	b	100b413c <get_bl_params_node_index+0x28>

00000000100b4184 <get_bl_mem_params_node>:
    100b4184:	a9bf7bfd 	stp	x29, x30, [sp, #-16]!
    100b4188:	3100041f 	cmn	w0, #0x1
    100b418c:	910003fd 	mov	x29, sp
    100b4190:	540000a1 	b.ne	100b41a4 <get_bl_mem_params_node+0x20>  // b.any
    100b4194:	d0000020 	adrp	x0, 100ba000 <__TEXT_END__>
    100b4198:	9100e800 	add	x0, x0, #0x3a
    100b419c:	52800941 	mov	w1, #0x4a                  	// #74
    100b41a0:	94001194 	bl	100b87f0 <__assert>
    100b41a4:	97ffffdc 	bl	100b4114 <get_bl_params_node_index>
    100b41a8:	37f800e0 	tbnz	w0, #31, 100b41c4 <get_bl_mem_params_node+0x40>
    100b41ac:	90000041 	adrp	x1, 100bc000 <__RODATA_END__>
    100b41b0:	f941d021 	ldr	x1, [x1, #928]
    100b41b4:	52801702 	mov	w2, #0xb8                  	// #184
    100b41b8:	9b220400 	smaddl	x0, w0, w2, x1
    100b41bc:	a8c17bfd 	ldp	x29, x30, [sp], #16
    100b41c0:	d65f03c0 	ret
    100b41c4:	d2800000 	mov	x0, #0x0                   	// #0
    100b41c8:	17fffffd 	b	100b41bc <get_bl_mem_params_node+0x38>

00000000100b41cc <get_bl_load_info_from_mem_params_desc>:
    100b41cc:	90000040 	adrp	x0, 100bc000 <__RODATA_END__>
    100b41d0:	b9439805 	ldr	w5, [x0, #920]
    100b41d4:	34000365 	cbz	w5, 100b4240 <get_bl_load_info_from_mem_params_desc+0x74>
    100b41d8:	90000040 	adrp	x0, 100bc000 <__RODATA_END__>
    100b41dc:	f941d006 	ldr	x6, [x0, #928]
    100b41e0:	90000061 	adrp	x1, 100c0000 <__STACKS_START__+0x3bc0>
    100b41e4:	911a2020 	add	x0, x1, #0x688
    100b41e8:	d2804083 	mov	x3, #0x204                 	// #516
    100b41ec:	f2a00203 	movk	x3, #0x10, lsl #16
    100b41f0:	f9034423 	str	x3, [x1, #1672]
    100b41f4:	910020c3 	add	x3, x6, #0x8
    100b41f8:	910200c2 	add	x2, x6, #0x80
    100b41fc:	52800001 	mov	w1, #0x0                   	// #0
    100b4200:	52801707 	mov	w7, #0xb8                  	// #184
    100b4204:	f9000402 	str	x2, [x0, #8]
    100b4208:	b85f8064 	ldur	w4, [x3, #-8]
    100b420c:	11000421 	add	w1, w1, #0x1
    100b4210:	b9000044 	str	w4, [x2]
    100b4214:	6b0100bf 	cmp	w5, w1
    100b4218:	f9000443 	str	x3, [x2, #8]
    100b421c:	540000a9 	b.ls	100b4230 <get_bl_load_info_from_mem_params_desc+0x64>  // b.plast
    100b4220:	9ba71824 	umaddl	x4, w1, w7, x6
    100b4224:	91020084 	add	x4, x4, #0x80
    100b4228:	f9000844 	str	x4, [x2, #16]
    100b422c:	aa0403e2 	mov	x2, x4
    100b4230:	9102e063 	add	x3, x3, #0xb8
    100b4234:	6b0100bf 	cmp	w5, w1
    100b4238:	54fffe81 	b.ne	100b4208 <get_bl_load_info_from_mem_params_desc+0x3c>  // b.any
    100b423c:	d65f03c0 	ret
    100b4240:	d2800000 	mov	x0, #0x0                   	// #0
    100b4244:	17fffffe 	b	100b423c <get_bl_load_info_from_mem_params_desc+0x70>

00000000100b4248 <get_next_bl_params_from_mem_params_desc>:
    100b4248:	a9bc7bfd 	stp	x29, x30, [sp, #-64]!
    100b424c:	910003fd 	mov	x29, sp
    100b4250:	a90153f3 	stp	x19, x20, [sp, #16]
    100b4254:	90000040 	adrp	x0, 100bc000 <__RODATA_END__>
    100b4258:	b9439814 	ldr	w20, [x0, #920]
    100b425c:	a9025bf5 	stp	x21, x22, [sp, #32]
    100b4260:	a90363f7 	stp	x23, x24, [sp, #48]
    100b4264:	340008b4 	cbz	w20, 100b4378 <get_next_bl_params_from_mem_params_desc+0x130>
    100b4268:	90000040 	adrp	x0, 100bc000 <__RODATA_END__>
    100b426c:	f941d017 	ldr	x23, [x0, #928]
    100b4270:	d2800001 	mov	x1, #0x0                   	// #0
    100b4274:	d2801704 	mov	x4, #0xb8                  	// #184
    100b4278:	2a0103e0 	mov	w0, w1
    100b427c:	6b01029f 	cmp	w20, w1
    100b4280:	54000128 	b.hi	100b42a4 <get_next_bl_params_from_mem_params_desc+0x5c>  // b.pmore
    100b4284:	90000060 	adrp	x0, 100c0000 <__STACKS_START__+0x3bc0>
    100b4288:	f9435001 	ldr	x1, [x0, #1696]
    100b428c:	52800000 	mov	w0, #0x0                   	// #0
    100b4290:	b50001e1 	cbnz	x1, 100b42cc <get_next_bl_params_from_mem_params_desc+0x84>
    100b4294:	528013a1 	mov	w1, #0x9d                  	// #157
    100b4298:	d0000020 	adrp	x0, 100ba000 <__TEXT_END__>
    100b429c:	9100e800 	add	x0, x0, #0x3a
    100b42a0:	94001154 	bl	100b87f0 <__assert>
    100b42a4:	d503201f 	nop
    100b42a8:	9b045c22 	madd	x2, x1, x4, x23
    100b42ac:	91000421 	add	x1, x1, #0x1
    100b42b0:	b9402443 	ldr	w3, [x2, #36]
    100b42b4:	121d0463 	and	w3, w3, #0x18
    100b42b8:	7100607f 	cmp	w3, #0x18
    100b42bc:	54fffde1 	b.ne	100b4278 <get_next_bl_params_from_mem_params_desc+0x30>  // b.any
    100b42c0:	90000061 	adrp	x1, 100c0000 <__STACKS_START__+0x3bc0>
    100b42c4:	91026042 	add	x2, x2, #0x98
    100b42c8:	f9035022 	str	x2, [x1, #1696]
    100b42cc:	90000061 	adrp	x1, 100c0000 <__STACKS_START__+0x3bc0>
    100b42d0:	d28040a2 	mov	x2, #0x205                 	// #517
    100b42d4:	f2a00202 	movk	x2, #0x10, lsl #16
    100b42d8:	aa0103f3 	mov	x19, x1
    100b42dc:	f9034c22 	str	x2, [x1, #1688]
    100b42e0:	52800016 	mov	w22, #0x0                   	// #0
    100b42e4:	d2800002 	mov	x2, #0x0                   	// #0
    100b42e8:	52801718 	mov	w24, #0xb8                  	// #184
    100b42ec:	9bb87c00 	umull	x0, w0, w24
    100b42f0:	8b0002e1 	add	x1, x23, x0
    100b42f4:	b9402423 	ldr	w3, [x1, #36]
    100b42f8:	371800a3 	tbnz	w3, #3, 100b430c <get_next_bl_params_from_mem_params_desc+0xc4>
    100b42fc:	52801561 	mov	w1, #0xab                  	// #171
    100b4300:	17ffffe6 	b	100b4298 <get_next_bl_params_from_mem_params_desc+0x50>
    100b4304:	aa1503e2 	mov	x2, x21
    100b4308:	17fffff9 	b	100b42ec <get_next_bl_params_from_mem_params_desc+0xa4>
    100b430c:	91026035 	add	x21, x1, #0x98
    100b4310:	b8606ae0 	ldr	w0, [x23, x0]
    100b4314:	b9009820 	str	w0, [x1, #152]
    100b4318:	91002020 	add	x0, x1, #0x8
    100b431c:	f90006a0 	str	x0, [x21, #8]
    100b4320:	91008020 	add	x0, x1, #0x20
    100b4324:	f9000aa0 	str	x0, [x21, #16]
    100b4328:	b40000c2 	cbz	x2, 100b4340 <get_next_bl_params_from_mem_params_desc+0xf8>
    100b432c:	f9400c40 	ldr	x0, [x2, #24]
    100b4330:	b4000060 	cbz	x0, 100b433c <get_next_bl_params_from_mem_params_desc+0xf4>
    100b4334:	528016e1 	mov	w1, #0xb7                  	// #183
    100b4338:	17ffffd8 	b	100b4298 <get_next_bl_params_from_mem_params_desc+0x50>
    100b433c:	f9000c55 	str	x21, [x2, #24]
    100b4340:	b9407820 	ldr	w0, [x1, #120]
    100b4344:	3100041f 	cmn	w0, #0x1
    100b4348:	54000240 	b.eq	100b4390 <get_next_bl_params_from_mem_params_desc+0x148>  // b.none
    100b434c:	97ffff72 	bl	100b4114 <get_bl_params_node_index>
    100b4350:	34000060 	cbz	w0, 100b435c <get_next_bl_params_from_mem_params_desc+0x114>
    100b4354:	6b00029f 	cmp	w20, w0
    100b4358:	54000068 	b.hi	100b4364 <get_next_bl_params_from_mem_params_desc+0x11c>  // b.pmore
    100b435c:	528018e1 	mov	w1, #0xc7                  	// #199
    100b4360:	17ffffce 	b	100b4298 <get_next_bl_params_from_mem_params_desc+0x50>
    100b4364:	110006d6 	add	w22, w22, #0x1
    100b4368:	6b16029f 	cmp	w20, w22
    100b436c:	54fffcc1 	b.ne	100b4304 <get_next_bl_params_from_mem_params_desc+0xbc>  // b.any
    100b4370:	52801981 	mov	w1, #0xcc                  	// #204
    100b4374:	17ffffc9 	b	100b4298 <get_next_bl_params_from_mem_params_desc+0x50>
    100b4378:	d2800000 	mov	x0, #0x0                   	// #0
    100b437c:	a94153f3 	ldp	x19, x20, [sp, #16]
    100b4380:	a9425bf5 	ldp	x21, x22, [sp, #32]
    100b4384:	a94363f7 	ldp	x23, x24, [sp, #48]
    100b4388:	a8c47bfd 	ldp	x29, x30, [sp], #64
    100b438c:	d65f03c0 	ret
    100b4390:	911a6260 	add	x0, x19, #0x698
    100b4394:	17fffffa 	b	100b437c <get_next_bl_params_from_mem_params_desc+0x134>

00000000100b4398 <device_type_fip>:
    100b4398:	52800080 	mov	w0, #0x4                   	// #4
    100b439c:	d65f03c0 	ret

00000000100b43a0 <fip_file_close>:
    100b43a0:	a9be7bfd 	stp	x29, x30, [sp, #-32]!
    100b43a4:	910003fd 	mov	x29, sp
    100b43a8:	f9000bf3 	str	x19, [sp, #16]
    100b43ac:	aa0003f3 	mov	x19, x0
    100b43b0:	90000061 	adrp	x1, 100c0000 <__STACKS_START__+0x3bc0>
    100b43b4:	911ae020 	add	x0, x1, #0x6b8
    100b43b8:	f9400c01 	ldr	x1, [x0, #24]
    100b43bc:	b4000061 	cbz	x1, 100b43c8 <fip_file_close+0x28>
    100b43c0:	d2800601 	mov	x1, #0x30                  	// #48
    100b43c4:	94001036 	bl	100b849c <zeromem>
    100b43c8:	f900067f 	str	xzr, [x19, #8]
    100b43cc:	52800000 	mov	w0, #0x0                   	// #0
    100b43d0:	f9400bf3 	ldr	x19, [sp, #16]
    100b43d4:	a8c27bfd 	ldp	x29, x30, [sp], #32
    100b43d8:	d65f03c0 	ret

00000000100b43dc <fip_dev_init>:
    100b43dc:	a9bb7bfd 	stp	x29, x30, [sp, #-80]!
    100b43e0:	910003fd 	mov	x29, sp
    100b43e4:	a90153f3 	stp	x19, x20, [sp, #16]
    100b43e8:	aa0103f3 	mov	x19, x1
    100b43ec:	2a1303e0 	mov	w0, w19
    100b43f0:	90000074 	adrp	x20, 100c0000 <__STACKS_START__+0x3bc0>
    100b43f4:	911aa281 	add	x1, x20, #0x6a8
    100b43f8:	f90013f5 	str	x21, [sp, #32]
    100b43fc:	90000075 	adrp	x21, 100c0000 <__STACKS_START__+0x3bc0>
    100b4400:	911ac2a2 	add	x2, x21, #0x6b0
    100b4404:	94000966 	bl	100b699c <plat_get_image_source>
    100b4408:	34000180 	cbz	w0, 100b4438 <fip_dev_init+0x5c>
    100b440c:	2a0003e2 	mov	w2, w0
    100b4410:	2a1303e1 	mov	w1, w19
    100b4414:	d0000020 	adrp	x0, 100ba000 <__TEXT_END__>
    100b4418:	91014c00 	add	x0, x0, #0x53
    100b441c:	12800033 	mov	w19, #0xfffffffe            	// #-2
    100b4420:	94000b11 	bl	100b7064 <tf_log>
    100b4424:	2a1303e0 	mov	w0, w19
    100b4428:	a94153f3 	ldp	x19, x20, [sp, #16]
    100b442c:	f94013f5 	ldr	x21, [sp, #32]
    100b4430:	a8c57bfd 	ldp	x29, x30, [sp], #80
    100b4434:	d65f03c0 	ret
    100b4438:	f9435aa1 	ldr	x1, [x21, #1712]
    100b443c:	9100c3e2 	add	x2, sp, #0x30
    100b4440:	f9435680 	ldr	x0, [x20, #1704]
    100b4444:	94000259 	bl	100b4da8 <io_open>
    100b4448:	2a0003e2 	mov	w2, w0
    100b444c:	340000a0 	cbz	w0, 100b4460 <fip_dev_init+0x84>
    100b4450:	d0000020 	adrp	x0, 100ba000 <__TEXT_END__>
    100b4454:	91021000 	add	x0, x0, #0x84
    100b4458:	2a1303e1 	mov	w1, w19
    100b445c:	17fffff0 	b	100b441c <fip_dev_init+0x40>
    100b4460:	f9401be0 	ldr	x0, [sp, #48]
    100b4464:	9100e3e3 	add	x3, sp, #0x38
    100b4468:	910103e1 	add	x1, sp, #0x40
    100b446c:	d2800202 	mov	x2, #0x10                  	// #16
    100b4470:	940002ca 	bl	100b4f98 <io_read>
    100b4474:	2a0003f3 	mov	w19, w0
    100b4478:	35000180 	cbnz	w0, 100b44a8 <fip_dev_init+0xcc>
    100b447c:	b94043e1 	ldr	w1, [sp, #64]
    100b4480:	52800020 	mov	w0, #0x1                   	// #1
    100b4484:	72b54c80 	movk	w0, #0xaa64, lsl #16
    100b4488:	6b00003f 	cmp	w1, w0
    100b448c:	54000061 	b.ne	100b4498 <fip_dev_init+0xbc>  // b.any
    100b4490:	b94047e0 	ldr	w0, [sp, #68]
    100b4494:	350000a0 	cbnz	w0, 100b44a8 <fip_dev_init+0xcc>
    100b4498:	12800033 	mov	w19, #0xfffffffe            	// #-2
    100b449c:	d0000020 	adrp	x0, 100ba000 <__TEXT_END__>
    100b44a0:	9102a000 	add	x0, x0, #0xa8
    100b44a4:	94000af0 	bl	100b7064 <tf_log>
    100b44a8:	f9401be0 	ldr	x0, [sp, #48]
    100b44ac:	940002db 	bl	100b5018 <io_close>
    100b44b0:	17ffffdd 	b	100b4424 <fip_dev_init+0x48>

00000000100b44b4 <fip_file_read>:
    100b44b4:	a9bb7bfd 	stp	x29, x30, [sp, #-80]!
    100b44b8:	910003fd 	mov	x29, sp
    100b44bc:	a90153f3 	stp	x19, x20, [sp, #16]
    100b44c0:	a9025bf5 	stp	x21, x22, [sp, #32]
    100b44c4:	f9001bf7 	str	x23, [sp, #48]
    100b44c8:	b50000a0 	cbnz	x0, 100b44dc <fip_file_read+0x28>
    100b44cc:	52802ee1 	mov	w1, #0x177                 	// #375
    100b44d0:	d0000020 	adrp	x0, 100ba000 <__TEXT_END__>
    100b44d4:	91035800 	add	x0, x0, #0xd6
    100b44d8:	940010c6 	bl	100b87f0 <__assert>
    100b44dc:	aa0303f5 	mov	x21, x3
    100b44e0:	b5000063 	cbnz	x3, 100b44ec <fip_file_read+0x38>
    100b44e4:	52802f01 	mov	w1, #0x178                 	// #376
    100b44e8:	17fffffa 	b	100b44d0 <fip_file_read+0x1c>
    100b44ec:	aa0003f3 	mov	x19, x0
    100b44f0:	f9400400 	ldr	x0, [x0, #8]
    100b44f4:	b5000060 	cbnz	x0, 100b4500 <fip_file_read+0x4c>
    100b44f8:	52802f21 	mov	w1, #0x179                 	// #377
    100b44fc:	17fffff5 	b	100b44d0 <fip_file_read+0x1c>
    100b4500:	aa0103f6 	mov	x22, x1
    100b4504:	90000060 	adrp	x0, 100c0000 <__STACKS_START__+0x3bc0>
    100b4508:	f9435801 	ldr	x1, [x0, #1712]
    100b450c:	90000060 	adrp	x0, 100c0000 <__STACKS_START__+0x3bc0>
    100b4510:	f9435400 	ldr	x0, [x0, #1704]
    100b4514:	aa0203f7 	mov	x23, x2
    100b4518:	910123e2 	add	x2, sp, #0x48
    100b451c:	94000223 	bl	100b4da8 <io_open>
    100b4520:	2a0003e1 	mov	w1, w0
    100b4524:	34000160 	cbz	w0, 100b4550 <fip_file_read+0x9c>
    100b4528:	12800033 	mov	w19, #0xfffffffe            	// #-2
    100b452c:	d0000020 	adrp	x0, 100ba000 <__TEXT_END__>
    100b4530:	9103a800 	add	x0, x0, #0xea
    100b4534:	94000acc 	bl	100b7064 <tf_log>
    100b4538:	2a1303e0 	mov	w0, w19
    100b453c:	a94153f3 	ldp	x19, x20, [sp, #16]
    100b4540:	a9425bf5 	ldp	x21, x22, [sp, #32]
    100b4544:	f9401bf7 	ldr	x23, [sp, #48]
    100b4548:	a8c57bfd 	ldp	x29, x30, [sp], #80
    100b454c:	d65f03c0 	ret
    100b4550:	f9400674 	ldr	x20, [x19, #8]
    100b4554:	52800021 	mov	w1, #0x1                   	// #1
    100b4558:	f9400e80 	ldr	x0, [x20, #24]
    100b455c:	b9400282 	ldr	w2, [x20]
    100b4560:	8b000042 	add	x2, x2, x0
    100b4564:	f94027e0 	ldr	x0, [sp, #72]
    100b4568:	94000251 	bl	100b4eac <io_seek>
    100b456c:	34000100 	cbz	w0, 100b458c <fip_file_read+0xd8>
    100b4570:	d0000020 	adrp	x0, 100ba000 <__TEXT_END__>
    100b4574:	91041000 	add	x0, x0, #0x104
    100b4578:	94000abb 	bl	100b7064 <tf_log>
    100b457c:	12800033 	mov	w19, #0xfffffffe            	// #-2
    100b4580:	f94027e0 	ldr	x0, [sp, #72]
    100b4584:	940002a5 	bl	100b5018 <io_close>
    100b4588:	17ffffec 	b	100b4538 <fip_file_read+0x84>
    100b458c:	f94027e0 	ldr	x0, [sp, #72]
    100b4590:	910103e3 	add	x3, sp, #0x40
    100b4594:	aa1703e2 	mov	x2, x23
    100b4598:	aa1603e1 	mov	x1, x22
    100b459c:	9400027f 	bl	100b4f98 <io_read>
    100b45a0:	2a0003f3 	mov	w19, w0
    100b45a4:	340000c0 	cbz	w0, 100b45bc <fip_file_read+0x108>
    100b45a8:	2a0003e1 	mov	w1, w0
    100b45ac:	d0000020 	adrp	x0, 100ba000 <__TEXT_END__>
    100b45b0:	91049000 	add	x0, x0, #0x124
    100b45b4:	94000aac 	bl	100b7064 <tf_log>
    100b45b8:	17fffff1 	b	100b457c <fip_file_read+0xc8>
    100b45bc:	f94023e1 	ldr	x1, [sp, #64]
    100b45c0:	b9400280 	ldr	w0, [x20]
    100b45c4:	f90002a1 	str	x1, [x21]
    100b45c8:	0b010000 	add	w0, w0, w1
    100b45cc:	b9000280 	str	w0, [x20]
    100b45d0:	17ffffec 	b	100b4580 <fip_file_read+0xcc>

00000000100b45d4 <fip_dev_open>:
    100b45d4:	a9bf7bfd 	stp	x29, x30, [sp, #-16]!
    100b45d8:	910003fd 	mov	x29, sp
    100b45dc:	b50000a1 	cbnz	x1, 100b45f0 <fip_dev_open+0x1c>
    100b45e0:	52801881 	mov	w1, #0xc4                  	// #196
    100b45e4:	d0000020 	adrp	x0, 100ba000 <__TEXT_END__>
    100b45e8:	91035800 	add	x0, x0, #0xd6
    100b45ec:	94001081 	bl	100b87f0 <__assert>
    100b45f0:	90000065 	adrp	x5, 100c0000 <__STACKS_START__+0x3bc0>
    100b45f4:	b949c8a2 	ldr	w2, [x5, #2504]
    100b45f8:	35000282 	cbnz	w2, 100b4648 <fip_dev_open+0x74>
    100b45fc:	90000062 	adrp	x2, 100c0000 <__STACKS_START__+0x3bc0>
    100b4600:	911be047 	add	x7, x2, #0x6f8
    100b4604:	f9437c43 	ldr	x3, [x2, #1784]
    100b4608:	b50001c3 	cbnz	x3, 100b4640 <fip_dev_open+0x6c>
    100b460c:	90000066 	adrp	x6, 100c0000 <__STACKS_START__+0x3bc0>
    100b4610:	911ba0c4 	add	x4, x6, #0x6e8
    100b4614:	f9037c40 	str	x0, [x2, #1784]
    100b4618:	d0000023 	adrp	x3, 100ba000 <__TEXT_END__>
    100b461c:	9107a063 	add	x3, x3, #0x1e8
    100b4620:	f90374c3 	str	x3, [x6, #1768]
    100b4624:	f9000487 	str	x7, [x4, #8]
    100b4628:	52800023 	mov	w3, #0x1                   	// #1
    100b462c:	52800000 	mov	w0, #0x0                   	// #0
    100b4630:	b909c8a3 	str	w3, [x5, #2504]
    100b4634:	f9000024 	str	x4, [x1]
    100b4638:	a8c17bfd 	ldp	x29, x30, [sp], #16
    100b463c:	d65f03c0 	ret
    100b4640:	52801301 	mov	w1, #0x98                  	// #152
    100b4644:	17ffffe8 	b	100b45e4 <fip_dev_open+0x10>
    100b4648:	12800160 	mov	w0, #0xfffffff4            	// #-12
    100b464c:	17fffffb 	b	100b4638 <fip_dev_open+0x64>

00000000100b4650 <fip_file_len>:
    100b4650:	a9bf7bfd 	stp	x29, x30, [sp, #-16]!
    100b4654:	910003fd 	mov	x29, sp
    100b4658:	b50000a0 	cbnz	x0, 100b466c <fip_file_len+0x1c>
    100b465c:	52802c81 	mov	w1, #0x164                 	// #356
    100b4660:	d0000020 	adrp	x0, 100ba000 <__TEXT_END__>
    100b4664:	91035800 	add	x0, x0, #0xd6
    100b4668:	94001062 	bl	100b87f0 <__assert>
    100b466c:	b5000061 	cbnz	x1, 100b4678 <fip_file_len+0x28>
    100b4670:	52802ca1 	mov	w1, #0x165                 	// #357
    100b4674:	17fffffb 	b	100b4660 <fip_file_len+0x10>
    100b4678:	f9400400 	ldr	x0, [x0, #8]
    100b467c:	f9401000 	ldr	x0, [x0, #32]
    100b4680:	f9000020 	str	x0, [x1]
    100b4684:	52800000 	mov	w0, #0x0                   	// #0
    100b4688:	a8c17bfd 	ldp	x29, x30, [sp], #16
    100b468c:	d65f03c0 	ret

00000000100b4690 <fip_file_open>:
    100b4690:	a9bb7bfd 	stp	x29, x30, [sp, #-80]!
    100b4694:	910003fd 	mov	x29, sp
    100b4698:	a90153f3 	stp	x19, x20, [sp, #16]
    100b469c:	a9025bf5 	stp	x21, x22, [sp, #32]
    100b46a0:	a90363f7 	stp	x23, x24, [sp, #48]
    100b46a4:	b50000a1 	cbnz	x1, 100b46b8 <fip_file_open+0x28>
    100b46a8:	52802361 	mov	w1, #0x11b                 	// #283
    100b46ac:	d0000020 	adrp	x0, 100ba000 <__TEXT_END__>
    100b46b0:	91035800 	add	x0, x0, #0xd6
    100b46b4:	9400104f 	bl	100b87f0 <__assert>
    100b46b8:	aa0203f5 	mov	x21, x2
    100b46bc:	b5000062 	cbnz	x2, 100b46c8 <fip_file_open+0x38>
    100b46c0:	52802381 	mov	w1, #0x11c                 	// #284
    100b46c4:	17fffffa 	b	100b46ac <fip_file_open+0x1c>
    100b46c8:	90000074 	adrp	x20, 100c0000 <__STACKS_START__+0x3bc0>
    100b46cc:	911ae294 	add	x20, x20, #0x6b8
    100b46d0:	f9400e80 	ldr	x0, [x20, #24]
    100b46d4:	b4000160 	cbz	x0, 100b4700 <fip_file_open+0x70>
    100b46d8:	12800173 	mov	w19, #0xfffffff4            	// #-12
    100b46dc:	d0000020 	adrp	x0, 100ba000 <__TEXT_END__>
    100b46e0:	91050800 	add	x0, x0, #0x142
    100b46e4:	94000a60 	bl	100b7064 <tf_log>
    100b46e8:	2a1303e0 	mov	w0, w19
    100b46ec:	a94153f3 	ldp	x19, x20, [sp, #16]
    100b46f0:	a9425bf5 	ldp	x21, x22, [sp, #32]
    100b46f4:	a94363f7 	ldp	x23, x24, [sp, #48]
    100b46f8:	a8c57bfd 	ldp	x29, x30, [sp], #80
    100b46fc:	d65f03c0 	ret
    100b4700:	aa0103f6 	mov	x22, x1
    100b4704:	90000060 	adrp	x0, 100c0000 <__STACKS_START__+0x3bc0>
    100b4708:	f9435801 	ldr	x1, [x0, #1712]
    100b470c:	90000060 	adrp	x0, 100c0000 <__STACKS_START__+0x3bc0>
    100b4710:	f9435400 	ldr	x0, [x0, #1704]
    100b4714:	910103e2 	add	x2, sp, #0x40
    100b4718:	940001a4 	bl	100b4da8 <io_open>
    100b471c:	2a0003e1 	mov	w1, w0
    100b4720:	340000c0 	cbz	w0, 100b4738 <fip_file_open+0xa8>
    100b4724:	d0000020 	adrp	x0, 100ba000 <__TEXT_END__>
    100b4728:	9105c800 	add	x0, x0, #0x172
    100b472c:	12800033 	mov	w19, #0xfffffffe            	// #-2
    100b4730:	94000a4d 	bl	100b7064 <tf_log>
    100b4734:	17ffffed 	b	100b46e8 <fip_file_open+0x58>
    100b4738:	f94023e0 	ldr	x0, [sp, #64]
    100b473c:	d2800202 	mov	x2, #0x10                  	// #16
    100b4740:	52800021 	mov	w1, #0x1                   	// #1
    100b4744:	940001da 	bl	100b4eac <io_seek>
    100b4748:	35000280 	cbnz	w0, 100b4798 <fip_file_open+0x108>
    100b474c:	d0000038 	adrp	x24, 100ba000 <__TEXT_END__>
    100b4750:	9108c318 	add	x24, x24, #0x230
    100b4754:	91002297 	add	x23, x20, #0x8
    100b4758:	f94023e0 	ldr	x0, [sp, #64]
    100b475c:	910123e3 	add	x3, sp, #0x48
    100b4760:	aa1703e1 	mov	x1, x23
    100b4764:	d2800502 	mov	x2, #0x28                  	// #40
    100b4768:	9400020c 	bl	100b4f98 <io_read>
    100b476c:	2a0003f3 	mov	w19, w0
    100b4770:	350001e0 	cbnz	w0, 100b47ac <fip_file_open+0x11c>
    100b4774:	aa1603e1 	mov	x1, x22
    100b4778:	aa1703e0 	mov	x0, x23
    100b477c:	d2800202 	mov	x2, #0x10                  	// #16
    100b4780:	94001028 	bl	100b8820 <memcmp>
    100b4784:	2a0003f3 	mov	w19, w0
    100b4788:	35000200 	cbnz	w0, 100b47c8 <fip_file_open+0x138>
    100b478c:	b900029f 	str	wzr, [x20]
    100b4790:	f90006b4 	str	x20, [x21, #8]
    100b4794:	1400000a 	b	100b47bc <fip_file_open+0x12c>
    100b4798:	d0000020 	adrp	x0, 100ba000 <__TEXT_END__>
    100b479c:	91067c00 	add	x0, x0, #0x19f
    100b47a0:	94000a31 	bl	100b7064 <tf_log>
    100b47a4:	12800033 	mov	w19, #0xfffffffe            	// #-2
    100b47a8:	14000005 	b	100b47bc <fip_file_open+0x12c>
    100b47ac:	2a0003e1 	mov	w1, w0
    100b47b0:	d0000020 	adrp	x0, 100ba000 <__TEXT_END__>
    100b47b4:	9106fc00 	add	x0, x0, #0x1bf
    100b47b8:	94000a2b 	bl	100b7064 <tf_log>
    100b47bc:	f94023e0 	ldr	x0, [sp, #64]
    100b47c0:	94000216 	bl	100b5018 <io_close>
    100b47c4:	17ffffc9 	b	100b46e8 <fip_file_open+0x58>
    100b47c8:	aa1803e1 	mov	x1, x24
    100b47cc:	aa1703e0 	mov	x0, x23
    100b47d0:	d2800202 	mov	x2, #0x10                  	// #16
    100b47d4:	94001013 	bl	100b8820 <memcmp>
    100b47d8:	35fffc00 	cbnz	w0, 100b4758 <fip_file_open+0xc8>
    100b47dc:	f9000e9f 	str	xzr, [x20, #24]
    100b47e0:	17fffff1 	b	100b47a4 <fip_file_open+0x114>

00000000100b47e4 <fip_dev_close>:
    100b47e4:	a9bf7bfd 	stp	x29, x30, [sp, #-16]!
    100b47e8:	90000061 	adrp	x1, 100c0000 <__STACKS_START__+0x3bc0>
    100b47ec:	910003fd 	mov	x29, sp
    100b47f0:	f903543f 	str	xzr, [x1, #1704]
    100b47f4:	90000061 	adrp	x1, 100c0000 <__STACKS_START__+0x3bc0>
    100b47f8:	f903583f 	str	xzr, [x1, #1712]
    100b47fc:	b50000a0 	cbnz	x0, 100b4810 <fip_dev_close+0x2c>
    100b4800:	d0000020 	adrp	x0, 100ba000 <__TEXT_END__>
    100b4804:	91035800 	add	x0, x0, #0xd6
    100b4808:	52801561 	mov	w1, #0xab                  	// #171
    100b480c:	94000ff9 	bl	100b87f0 <__assert>
    100b4810:	f9400400 	ldr	x0, [x0, #8]
    100b4814:	90000061 	adrp	x1, 100c0000 <__STACKS_START__+0x3bc0>
    100b4818:	f9437c21 	ldr	x1, [x1, #1784]
    100b481c:	f9400002 	ldr	x2, [x0]
    100b4820:	eb01005f 	cmp	x2, x1
    100b4824:	54000141 	b.ne	100b484c <fip_dev_close+0x68>  // b.any
    100b4828:	d2800101 	mov	x1, #0x8                   	// #8
    100b482c:	94000f1c 	bl	100b849c <zeromem>
    100b4830:	90000061 	adrp	x1, 100c0000 <__STACKS_START__+0x3bc0>
    100b4834:	b949c820 	ldr	w0, [x1, #2504]
    100b4838:	51000400 	sub	w0, w0, #0x1
    100b483c:	b909c820 	str	w0, [x1, #2504]
    100b4840:	52800000 	mov	w0, #0x0                   	// #0
    100b4844:	a8c17bfd 	ldp	x29, x30, [sp], #16
    100b4848:	d65f03c0 	ret
    100b484c:	12800020 	mov	w0, #0xfffffffe            	// #-2
    100b4850:	17fffffd 	b	100b4844 <fip_dev_close+0x60>

00000000100b4854 <register_io_dev_fip>:
    100b4854:	a9be7bfd 	stp	x29, x30, [sp, #-32]!
    100b4858:	910003fd 	mov	x29, sp
    100b485c:	f9000bf3 	str	x19, [sp, #16]
    100b4860:	b50000a0 	cbnz	x0, 100b4874 <register_io_dev_fip+0x20>
    100b4864:	d0000020 	adrp	x0, 100ba000 <__TEXT_END__>
    100b4868:	91035800 	add	x0, x0, #0xd6
    100b486c:	52803741 	mov	w1, #0x1ba                 	// #442
    100b4870:	94000fe0 	bl	100b87f0 <__assert>
    100b4874:	aa0003f3 	mov	x19, x0
    100b4878:	90000060 	adrp	x0, 100c0000 <__STACKS_START__+0x3bc0>
    100b487c:	911ba000 	add	x0, x0, #0x6e8
    100b4880:	940000f3 	bl	100b4c4c <io_register_device>
    100b4884:	35000080 	cbnz	w0, 100b4894 <register_io_dev_fip+0x40>
    100b4888:	d0000021 	adrp	x1, 100ba000 <__TEXT_END__>
    100b488c:	91078021 	add	x1, x1, #0x1e0
    100b4890:	f9000261 	str	x1, [x19]
    100b4894:	f9400bf3 	ldr	x19, [sp, #16]
    100b4898:	a8c27bfd 	ldp	x29, x30, [sp], #32
    100b489c:	d65f03c0 	ret

00000000100b48a0 <device_type_memmap>:
    100b48a0:	52800040 	mov	w0, #0x2                   	// #2
    100b48a4:	d65f03c0 	ret

00000000100b48a8 <memmap_dev_close>:
    100b48a8:	52800000 	mov	w0, #0x0                   	// #0
    100b48ac:	d65f03c0 	ret

00000000100b48b0 <memmap_dev_open>:
    100b48b0:	b50000e1 	cbnz	x1, 100b48cc <memmap_dev_open+0x1c>
    100b48b4:	a9bf7bfd 	stp	x29, x30, [sp, #-16]!
    100b48b8:	d0000020 	adrp	x0, 100ba000 <__TEXT_END__>
    100b48bc:	91090000 	add	x0, x0, #0x240
    100b48c0:	910003fd 	mov	x29, sp
    100b48c4:	52800a81 	mov	w1, #0x54                  	// #84
    100b48c8:	94000fca 	bl	100b87f0 <__assert>
    100b48cc:	d0000020 	adrp	x0, 100ba000 <__TEXT_END__>
    100b48d0:	910b8000 	add	x0, x0, #0x2e0
    100b48d4:	f9000020 	str	x0, [x1]
    100b48d8:	52800000 	mov	w0, #0x0                   	// #0
    100b48dc:	d65f03c0 	ret

00000000100b48e0 <memmap_block_len>:
    100b48e0:	a9bf7bfd 	stp	x29, x30, [sp, #-16]!
    100b48e4:	910003fd 	mov	x29, sp
    100b48e8:	b50000a0 	cbnz	x0, 100b48fc <memmap_block_len+0x1c>
    100b48ec:	528013c1 	mov	w1, #0x9e                  	// #158
    100b48f0:	d0000020 	adrp	x0, 100ba000 <__TEXT_END__>
    100b48f4:	91090000 	add	x0, x0, #0x240
    100b48f8:	94000fbe 	bl	100b87f0 <__assert>
    100b48fc:	b5000061 	cbnz	x1, 100b4908 <memmap_block_len+0x28>
    100b4900:	528013e1 	mov	w1, #0x9f                  	// #159
    100b4904:	17fffffb 	b	100b48f0 <memmap_block_len+0x10>
    100b4908:	f9400400 	ldr	x0, [x0, #8]
    100b490c:	f9400c00 	ldr	x0, [x0, #24]
    100b4910:	f9000020 	str	x0, [x1]
    100b4914:	52800000 	mov	w0, #0x0                   	// #0
    100b4918:	a8c17bfd 	ldp	x29, x30, [sp], #16
    100b491c:	d65f03c0 	ret

00000000100b4920 <memmap_block_seek>:
    100b4920:	7100043f 	cmp	w1, #0x1
    100b4924:	540002a1 	b.ne	100b4978 <memmap_block_seek+0x58>  // b.any
    100b4928:	a9bf7bfd 	stp	x29, x30, [sp, #-16]!
    100b492c:	910003fd 	mov	x29, sp
    100b4930:	b50000a0 	cbnz	x0, 100b4944 <memmap_block_seek+0x24>
    100b4934:	d0000020 	adrp	x0, 100ba000 <__TEXT_END__>
    100b4938:	91090000 	add	x0, x0, #0x240
    100b493c:	52801161 	mov	w1, #0x8b                  	// #139
    100b4940:	94000fac 	bl	100b87f0 <__assert>
    100b4944:	f9400400 	ldr	x0, [x0, #8]
    100b4948:	b7f80082 	tbnz	x2, #63, 100b4958 <memmap_block_seek+0x38>
    100b494c:	f9400c01 	ldr	x1, [x0, #24]
    100b4950:	eb02003f 	cmp	x1, x2
    100b4954:	540000a8 	b.hi	100b4968 <memmap_block_seek+0x48>  // b.pmore
    100b4958:	d0000020 	adrp	x0, 100ba000 <__TEXT_END__>
    100b495c:	91090000 	add	x0, x0, #0x240
    100b4960:	52801201 	mov	w1, #0x90                  	// #144
    100b4964:	94000fa3 	bl	100b87f0 <__assert>
    100b4968:	f9000802 	str	x2, [x0, #16]
    100b496c:	52800000 	mov	w0, #0x0                   	// #0
    100b4970:	a8c17bfd 	ldp	x29, x30, [sp], #16
    100b4974:	d65f03c0 	ret
    100b4978:	12800020 	mov	w0, #0xfffffffe            	// #-2
    100b497c:	d65f03c0 	ret

00000000100b4980 <memmap_block_close>:
    100b4980:	a9bf7bfd 	stp	x29, x30, [sp, #-16]!
    100b4984:	910003fd 	mov	x29, sp
    100b4988:	b50000a0 	cbnz	x0, 100b499c <memmap_block_close+0x1c>
    100b498c:	d0000020 	adrp	x0, 100ba000 <__TEXT_END__>
    100b4990:	91090000 	add	x0, x0, #0x240
    100b4994:	52801c01 	mov	w1, #0xe0                  	// #224
    100b4998:	94000f96 	bl	100b87f0 <__assert>
    100b499c:	f900041f 	str	xzr, [x0, #8]
    100b49a0:	d2800401 	mov	x1, #0x20                  	// #32
    100b49a4:	90000060 	adrp	x0, 100c0000 <__STACKS_START__+0x3bc0>
    100b49a8:	911c0000 	add	x0, x0, #0x700
    100b49ac:	94000ebc 	bl	100b849c <zeromem>
    100b49b0:	52800000 	mov	w0, #0x0                   	// #0
    100b49b4:	a8c17bfd 	ldp	x29, x30, [sp], #16
    100b49b8:	d65f03c0 	ret

00000000100b49bc <memmap_block_write>:
    100b49bc:	a9bd7bfd 	stp	x29, x30, [sp, #-48]!
    100b49c0:	910003fd 	mov	x29, sp
    100b49c4:	a90153f3 	stp	x19, x20, [sp, #16]
    100b49c8:	a9025bf5 	stp	x21, x22, [sp, #32]
    100b49cc:	b50000a0 	cbnz	x0, 100b49e0 <memmap_block_write+0x24>
    100b49d0:	52801921 	mov	w1, #0xc9                  	// #201
    100b49d4:	d0000020 	adrp	x0, 100ba000 <__TEXT_END__>
    100b49d8:	91090000 	add	x0, x0, #0x240
    100b49dc:	94000f85 	bl	100b87f0 <__assert>
    100b49e0:	aa0303f5 	mov	x21, x3
    100b49e4:	b5000063 	cbnz	x3, 100b49f0 <memmap_block_write+0x34>
    100b49e8:	52801941 	mov	w1, #0xca                  	// #202
    100b49ec:	17fffffa 	b	100b49d4 <memmap_block_write+0x18>
    100b49f0:	f9400414 	ldr	x20, [x0, #8]
    100b49f4:	aa0203f3 	mov	x19, x2
    100b49f8:	f9400a80 	ldr	x0, [x20, #16]
    100b49fc:	ab020016 	adds	x22, x0, x2
    100b4a00:	54000082 	b.cs	100b4a10 <memmap_block_write+0x54>  // b.hs, b.nlast
    100b4a04:	f9400e83 	ldr	x3, [x20, #24]
    100b4a08:	eb16007f 	cmp	x3, x22
    100b4a0c:	54000062 	b.cs	100b4a18 <memmap_block_write+0x5c>  // b.hs, b.nlast
    100b4a10:	52801a01 	mov	w1, #0xd0                  	// #208
    100b4a14:	17fffff0 	b	100b49d4 <memmap_block_write+0x18>
    100b4a18:	f9400683 	ldr	x3, [x20, #8]
    100b4a1c:	8b030000 	add	x0, x0, x3
    100b4a20:	94000f8d 	bl	100b8854 <memcpy>
    100b4a24:	f90002b3 	str	x19, [x21]
    100b4a28:	f9000a96 	str	x22, [x20, #16]
    100b4a2c:	52800000 	mov	w0, #0x0                   	// #0
    100b4a30:	a94153f3 	ldp	x19, x20, [sp, #16]
    100b4a34:	a9425bf5 	ldp	x21, x22, [sp, #32]
    100b4a38:	a8c37bfd 	ldp	x29, x30, [sp], #48
    100b4a3c:	d65f03c0 	ret

00000000100b4a40 <memmap_block_read>:
    100b4a40:	a9bd7bfd 	stp	x29, x30, [sp, #-48]!
    100b4a44:	910003fd 	mov	x29, sp
    100b4a48:	a90153f3 	stp	x19, x20, [sp, #16]
    100b4a4c:	a9025bf5 	stp	x21, x22, [sp, #32]
    100b4a50:	b50000a0 	cbnz	x0, 100b4a64 <memmap_block_read+0x24>
    100b4a54:	528015c1 	mov	w1, #0xae                  	// #174
    100b4a58:	d0000020 	adrp	x0, 100ba000 <__TEXT_END__>
    100b4a5c:	91090000 	add	x0, x0, #0x240
    100b4a60:	94000f64 	bl	100b87f0 <__assert>
    100b4a64:	aa0303f5 	mov	x21, x3
    100b4a68:	b5000063 	cbnz	x3, 100b4a74 <memmap_block_read+0x34>
    100b4a6c:	528015e1 	mov	w1, #0xaf                  	// #175
    100b4a70:	17fffffa 	b	100b4a58 <memmap_block_read+0x18>
    100b4a74:	f9400414 	ldr	x20, [x0, #8]
    100b4a78:	aa0203f3 	mov	x19, x2
    100b4a7c:	f9400a83 	ldr	x3, [x20, #16]
    100b4a80:	ab020076 	adds	x22, x3, x2
    100b4a84:	540000a2 	b.cs	100b4a98 <memmap_block_read+0x58>  // b.hs, b.nlast
    100b4a88:	aa0103e0 	mov	x0, x1
    100b4a8c:	f9400e81 	ldr	x1, [x20, #24]
    100b4a90:	eb16003f 	cmp	x1, x22
    100b4a94:	54000062 	b.cs	100b4aa0 <memmap_block_read+0x60>  // b.hs, b.nlast
    100b4a98:	528016a1 	mov	w1, #0xb5                  	// #181
    100b4a9c:	17ffffef 	b	100b4a58 <memmap_block_read+0x18>
    100b4aa0:	f9400681 	ldr	x1, [x20, #8]
    100b4aa4:	8b010061 	add	x1, x3, x1
    100b4aa8:	94000f6b 	bl	100b8854 <memcpy>
    100b4aac:	f90002b3 	str	x19, [x21]
    100b4ab0:	52800000 	mov	w0, #0x0                   	// #0
    100b4ab4:	f9000a96 	str	x22, [x20, #16]
    100b4ab8:	a94153f3 	ldp	x19, x20, [sp, #16]
    100b4abc:	a9425bf5 	ldp	x21, x22, [sp, #32]
    100b4ac0:	a8c37bfd 	ldp	x29, x30, [sp], #48
    100b4ac4:	d65f03c0 	ret

00000000100b4ac8 <memmap_block_open>:
    100b4ac8:	a9bf7bfd 	stp	x29, x30, [sp, #-16]!
    100b4acc:	910003fd 	mov	x29, sp
    100b4ad0:	90000064 	adrp	x4, 100c0000 <__STACKS_START__+0x3bc0>
    100b4ad4:	b9470080 	ldr	w0, [x4, #1792]
    100b4ad8:	35000240 	cbnz	w0, 100b4b20 <memmap_block_open+0x58>
    100b4adc:	b50000a1 	cbnz	x1, 100b4af0 <memmap_block_open+0x28>
    100b4ae0:	52800e21 	mov	w1, #0x71                  	// #113
    100b4ae4:	d0000020 	adrp	x0, 100ba000 <__TEXT_END__>
    100b4ae8:	91090000 	add	x0, x0, #0x240
    100b4aec:	94000f41 	bl	100b87f0 <__assert>
    100b4af0:	b5000062 	cbnz	x2, 100b4afc <memmap_block_open+0x34>
    100b4af4:	52800e41 	mov	w1, #0x72                  	// #114
    100b4af8:	17fffffb 	b	100b4ae4 <memmap_block_open+0x1c>
    100b4afc:	911c0083 	add	x3, x4, #0x700
    100b4b00:	52800025 	mov	w5, #0x1                   	// #1
    100b4b04:	b9070085 	str	w5, [x4, #1792]
    100b4b08:	a9400424 	ldp	x4, x1, [x1]
    100b4b0c:	a900fc64 	stp	x4, xzr, [x3, #8]
    100b4b10:	f9000c61 	str	x1, [x3, #24]
    100b4b14:	f9000443 	str	x3, [x2, #8]
    100b4b18:	a8c17bfd 	ldp	x29, x30, [sp], #16
    100b4b1c:	d65f03c0 	ret
    100b4b20:	d0000020 	adrp	x0, 100ba000 <__TEXT_END__>
    100b4b24:	91095c00 	add	x0, x0, #0x257
    100b4b28:	9400094f 	bl	100b7064 <tf_log>
    100b4b2c:	12800160 	mov	w0, #0xfffffff4            	// #-12
    100b4b30:	17fffffa 	b	100b4b18 <memmap_block_open+0x50>

00000000100b4b34 <register_io_dev_memmap>:
    100b4b34:	a9be7bfd 	stp	x29, x30, [sp, #-32]!
    100b4b38:	910003fd 	mov	x29, sp
    100b4b3c:	f9000bf3 	str	x19, [sp, #16]
    100b4b40:	b50000a0 	cbnz	x0, 100b4b54 <register_io_dev_memmap+0x20>
    100b4b44:	d0000020 	adrp	x0, 100ba000 <__TEXT_END__>
    100b4b48:	91090000 	add	x0, x0, #0x240
    100b4b4c:	52801e21 	mov	w1, #0xf1                  	// #241
    100b4b50:	94000f28 	bl	100b87f0 <__assert>
    100b4b54:	aa0003f3 	mov	x19, x0
    100b4b58:	d0000020 	adrp	x0, 100ba000 <__TEXT_END__>
    100b4b5c:	910b8000 	add	x0, x0, #0x2e0
    100b4b60:	9400003b 	bl	100b4c4c <io_register_device>
    100b4b64:	35000080 	cbnz	w0, 100b4b74 <register_io_dev_memmap+0x40>
    100b4b68:	d0000021 	adrp	x1, 100ba000 <__TEXT_END__>
    100b4b6c:	910a4021 	add	x1, x1, #0x290
    100b4b70:	f9000261 	str	x1, [x19]
    100b4b74:	f9400bf3 	ldr	x19, [sp, #16]
    100b4b78:	a8c27bfd 	ldp	x29, x30, [sp], #32
    100b4b7c:	d65f03c0 	ret

00000000100b4b80 <is_valid_dev>:
    100b4b80:	b4000180 	cbz	x0, 100b4bb0 <is_valid_dev+0x30>
    100b4b84:	f9400000 	ldr	x0, [x0]
    100b4b88:	b4000140 	cbz	x0, 100b4bb0 <is_valid_dev+0x30>
    100b4b8c:	f9400000 	ldr	x0, [x0]
    100b4b90:	b4000100 	cbz	x0, 100b4bb0 <is_valid_dev+0x30>
    100b4b94:	a9bf7bfd 	stp	x29, x30, [sp, #-16]!
    100b4b98:	910003fd 	mov	x29, sp
    100b4b9c:	d63f0000 	blr	x0
    100b4ba0:	71001c1f 	cmp	w0, #0x7
    100b4ba4:	1a9f87e0 	cset	w0, ls  // ls = plast
    100b4ba8:	a8c17bfd 	ldp	x29, x30, [sp], #16
    100b4bac:	d65f03c0 	ret
    100b4bb0:	52800000 	mov	w0, #0x0                   	// #0
    100b4bb4:	d65f03c0 	ret

00000000100b4bb8 <is_valid_entity>:
    100b4bb8:	b4000120 	cbz	x0, 100b4bdc <is_valid_entity+0x24>
    100b4bbc:	a9bf7bfd 	stp	x29, x30, [sp, #-16]!
    100b4bc0:	910003fd 	mov	x29, sp
    100b4bc4:	f9400000 	ldr	x0, [x0]
    100b4bc8:	97ffffee 	bl	100b4b80 <is_valid_dev>
    100b4bcc:	7100001f 	cmp	w0, #0x0
    100b4bd0:	1a9f07e0 	cset	w0, ne  // ne = any
    100b4bd4:	a8c17bfd 	ldp	x29, x30, [sp], #16
    100b4bd8:	d65f03c0 	ret
    100b4bdc:	52800000 	mov	w0, #0x0                   	// #0
    100b4be0:	d65f03c0 	ret

00000000100b4be4 <free_entity>:
    100b4be4:	b40001a0 	cbz	x0, 100b4c18 <free_entity+0x34>
    100b4be8:	90000062 	adrp	x2, 100c0000 <__STACKS_START__+0x3bc0>
    100b4bec:	911c8042 	add	x2, x2, #0x720
    100b4bf0:	d2800001 	mov	x1, #0x0                   	// #0
    100b4bf4:	f8617844 	ldr	x4, [x2, x1, lsl #3]
    100b4bf8:	2a0103e3 	mov	w3, w1
    100b4bfc:	eb04001f 	cmp	x0, x4
    100b4c00:	54000180 	b.eq	100b4c30 <free_entity+0x4c>  // b.none
    100b4c04:	91000421 	add	x1, x1, #0x1
    100b4c08:	f100103f 	cmp	x1, #0x4
    100b4c0c:	54ffff41 	b.ne	100b4bf4 <free_entity+0x10>  // b.any
    100b4c10:	12800020 	mov	w0, #0xfffffffe            	// #-2
    100b4c14:	d65f03c0 	ret
    100b4c18:	a9bf7bfd 	stp	x29, x30, [sp, #-16]!
    100b4c1c:	d0000020 	adrp	x0, 100ba000 <__TEXT_END__>
    100b4c20:	910bc000 	add	x0, x0, #0x2f0
    100b4c24:	910003fd 	mov	x29, sp
    100b4c28:	52801081 	mov	w1, #0x84                  	// #132
    100b4c2c:	94000ef1 	bl	100b87f0 <__assert>
    100b4c30:	90000061 	adrp	x1, 100c0000 <__STACKS_START__+0x3bc0>
    100b4c34:	b949d020 	ldr	w0, [x1, #2512]
    100b4c38:	f823585f 	str	xzr, [x2, w3, uxtw #3]
    100b4c3c:	51000400 	sub	w0, w0, #0x1
    100b4c40:	b909d020 	str	w0, [x1, #2512]
    100b4c44:	52800000 	mov	w0, #0x0                   	// #0
    100b4c48:	d65f03c0 	ret

00000000100b4c4c <io_register_device>:
    100b4c4c:	b50000e0 	cbnz	x0, 100b4c68 <io_register_device+0x1c>
    100b4c50:	a9bf7bfd 	stp	x29, x30, [sp, #-16]!
    100b4c54:	d0000020 	adrp	x0, 100ba000 <__TEXT_END__>
    100b4c58:	910bc000 	add	x0, x0, #0x2f0
    100b4c5c:	910003fd 	mov	x29, sp
    100b4c60:	528012c1 	mov	w1, #0x96                  	// #150
    100b4c64:	94000ee3 	bl	100b87f0 <__assert>
    100b4c68:	90000061 	adrp	x1, 100c0000 <__STACKS_START__+0x3bc0>
    100b4c6c:	b949cc20 	ldr	w0, [x1, #2508]
    100b4c70:	7100081f 	cmp	w0, #0x2
    100b4c74:	540000a8 	b.hi	100b4c88 <io_register_device+0x3c>  // b.pmore
    100b4c78:	11000400 	add	w0, w0, #0x1
    100b4c7c:	b909cc20 	str	w0, [x1, #2508]
    100b4c80:	52800000 	mov	w0, #0x0                   	// #0
    100b4c84:	d65f03c0 	ret
    100b4c88:	12800160 	mov	w0, #0xfffffff4            	// #-12
    100b4c8c:	d65f03c0 	ret

00000000100b4c90 <io_dev_open>:
    100b4c90:	a9bf7bfd 	stp	x29, x30, [sp, #-16]!
    100b4c94:	910003fd 	mov	x29, sp
    100b4c98:	b50000a2 	cbnz	x2, 100b4cac <io_dev_open+0x1c>
    100b4c9c:	528014e1 	mov	w1, #0xa7                  	// #167
    100b4ca0:	d0000020 	adrp	x0, 100ba000 <__TEXT_END__>
    100b4ca4:	910bc000 	add	x0, x0, #0x2f0
    100b4ca8:	94000ed2 	bl	100b87f0 <__assert>
    100b4cac:	aa0003e3 	mov	x3, x0
    100b4cb0:	b4000100 	cbz	x0, 100b4cd0 <io_dev_open+0x40>
    100b4cb4:	aa0103e0 	mov	x0, x1
    100b4cb8:	aa0203e1 	mov	x1, x2
    100b4cbc:	f9400062 	ldr	x2, [x3]
    100b4cc0:	b4000082 	cbz	x2, 100b4cd0 <io_dev_open+0x40>
    100b4cc4:	a8c17bfd 	ldp	x29, x30, [sp], #16
    100b4cc8:	aa0203f0 	mov	x16, x2
    100b4ccc:	d61f0200 	br	x16
    100b4cd0:	528009e1 	mov	w1, #0x4f                  	// #79
    100b4cd4:	17fffff3 	b	100b4ca0 <io_dev_open+0x10>

00000000100b4cd8 <io_dev_init>:
    100b4cd8:	a9be7bfd 	stp	x29, x30, [sp, #-32]!
    100b4cdc:	910003fd 	mov	x29, sp
    100b4ce0:	a90153f3 	stp	x19, x20, [sp, #16]
    100b4ce4:	b50000a0 	cbnz	x0, 100b4cf8 <io_dev_init+0x20>
    100b4ce8:	52801661 	mov	w1, #0xb3                  	// #179
    100b4cec:	d0000020 	adrp	x0, 100ba000 <__TEXT_END__>
    100b4cf0:	910bc000 	add	x0, x0, #0x2f0
    100b4cf4:	94000ebf 	bl	100b87f0 <__assert>
    100b4cf8:	aa0003f3 	mov	x19, x0
    100b4cfc:	aa0103f4 	mov	x20, x1
    100b4d00:	97ffffa0 	bl	100b4b80 <is_valid_dev>
    100b4d04:	35000060 	cbnz	w0, 100b4d10 <io_dev_init+0x38>
    100b4d08:	52801681 	mov	w1, #0xb4                  	// #180
    100b4d0c:	17fffff8 	b	100b4cec <io_dev_init+0x14>
    100b4d10:	f9400260 	ldr	x0, [x19]
    100b4d14:	f9401c02 	ldr	x2, [x0, #56]
    100b4d18:	b40000e2 	cbz	x2, 100b4d34 <io_dev_init+0x5c>
    100b4d1c:	aa1403e1 	mov	x1, x20
    100b4d20:	aa1303e0 	mov	x0, x19
    100b4d24:	a94153f3 	ldp	x19, x20, [sp, #16]
    100b4d28:	aa0203f0 	mov	x16, x2
    100b4d2c:	a8c27bfd 	ldp	x29, x30, [sp], #32
    100b4d30:	d61f0200 	br	x16
    100b4d34:	52800000 	mov	w0, #0x0                   	// #0
    100b4d38:	a94153f3 	ldp	x19, x20, [sp, #16]
    100b4d3c:	a8c27bfd 	ldp	x29, x30, [sp], #32
    100b4d40:	d65f03c0 	ret

00000000100b4d44 <io_dev_close>:
    100b4d44:	a9be7bfd 	stp	x29, x30, [sp, #-32]!
    100b4d48:	910003fd 	mov	x29, sp
    100b4d4c:	f9000bf3 	str	x19, [sp, #16]
    100b4d50:	b50000a0 	cbnz	x0, 100b4d64 <io_dev_close+0x20>
    100b4d54:	52801881 	mov	w1, #0xc4                  	// #196
    100b4d58:	d0000020 	adrp	x0, 100ba000 <__TEXT_END__>
    100b4d5c:	910bc000 	add	x0, x0, #0x2f0
    100b4d60:	94000ea4 	bl	100b87f0 <__assert>
    100b4d64:	aa0003f3 	mov	x19, x0
    100b4d68:	97ffff86 	bl	100b4b80 <is_valid_dev>
    100b4d6c:	35000060 	cbnz	w0, 100b4d78 <io_dev_close+0x34>
    100b4d70:	528018a1 	mov	w1, #0xc5                  	// #197
    100b4d74:	17fffff9 	b	100b4d58 <io_dev_close+0x14>
    100b4d78:	f9400260 	ldr	x0, [x19]
    100b4d7c:	f9402001 	ldr	x1, [x0, #64]
    100b4d80:	b40000c1 	cbz	x1, 100b4d98 <io_dev_close+0x54>
    100b4d84:	aa1303e0 	mov	x0, x19
    100b4d88:	aa0103f0 	mov	x16, x1
    100b4d8c:	f9400bf3 	ldr	x19, [sp, #16]
    100b4d90:	a8c27bfd 	ldp	x29, x30, [sp], #32
    100b4d94:	d61f0200 	br	x16
    100b4d98:	52800000 	mov	w0, #0x0                   	// #0
    100b4d9c:	f9400bf3 	ldr	x19, [sp, #16]
    100b4da0:	a8c27bfd 	ldp	x29, x30, [sp], #32
    100b4da4:	d65f03c0 	ret

00000000100b4da8 <io_open>:
    100b4da8:	a9bc7bfd 	stp	x29, x30, [sp, #-64]!
    100b4dac:	f100003f 	cmp	x1, #0x0
    100b4db0:	fa401844 	ccmp	x2, #0x0, #0x4, ne  // ne = any
    100b4db4:	910003fd 	mov	x29, sp
    100b4db8:	a90153f3 	stp	x19, x20, [sp, #16]
    100b4dbc:	a9025bf5 	stp	x21, x22, [sp, #32]
    100b4dc0:	a90363f7 	stp	x23, x24, [sp, #48]
    100b4dc4:	540000a1 	b.ne	100b4dd8 <io_open+0x30>  // b.any
    100b4dc8:	52801b21 	mov	w1, #0xd9                  	// #217
    100b4dcc:	d0000020 	adrp	x0, 100ba000 <__TEXT_END__>
    100b4dd0:	910bc000 	add	x0, x0, #0x2f0
    100b4dd4:	94000e87 	bl	100b87f0 <__assert>
    100b4dd8:	aa0003f6 	mov	x22, x0
    100b4ddc:	aa0103f5 	mov	x21, x1
    100b4de0:	aa0203f7 	mov	x23, x2
    100b4de4:	97ffff67 	bl	100b4b80 <is_valid_dev>
    100b4de8:	35000060 	cbnz	w0, 100b4df4 <io_open+0x4c>
    100b4dec:	52801b41 	mov	w1, #0xda                  	// #218
    100b4df0:	17fffff7 	b	100b4dcc <io_open+0x24>
    100b4df4:	90000060 	adrp	x0, 100c0000 <__STACKS_START__+0x3bc0>
    100b4df8:	b949d002 	ldr	w2, [x0, #2512]
    100b4dfc:	71000c5f 	cmp	w2, #0x3
    100b4e00:	540003c8 	b.hi	100b4e78 <io_open+0xd0>  // b.pmore
    100b4e04:	90000064 	adrp	x4, 100c0000 <__STACKS_START__+0x3bc0>
    100b4e08:	911c8084 	add	x4, x4, #0x720
    100b4e0c:	d2800003 	mov	x3, #0x0                   	// #0
    100b4e10:	f8637881 	ldr	x1, [x4, x3, lsl #3]
    100b4e14:	2a0303f4 	mov	w20, w3
    100b4e18:	b4000341 	cbz	x1, 100b4e80 <io_open+0xd8>
    100b4e1c:	91000463 	add	x3, x3, #0x1
    100b4e20:	f100107f 	cmp	x3, #0x4
    100b4e24:	54ffff61 	b.ne	100b4e10 <io_open+0x68>  // b.any
    100b4e28:	52800ec1 	mov	w1, #0x76                  	// #118
    100b4e2c:	17ffffe8 	b	100b4dcc <io_open+0x24>
    100b4e30:	aa1503e1 	mov	x1, x21
    100b4e34:	aa1303e2 	mov	x2, x19
    100b4e38:	aa1603e0 	mov	x0, x22
    100b4e3c:	d63f0060 	blr	x3
    100b4e40:	2a0003f5 	mov	w21, w0
    100b4e44:	35000140 	cbnz	w0, 100b4e6c <io_open+0xc4>
    100b4e48:	d37cee94 	lsl	x20, x20, #4
    100b4e4c:	f8346b16 	str	x22, [x24, x20]
    100b4e50:	f90002f3 	str	x19, [x23]
    100b4e54:	2a1503e0 	mov	w0, w21
    100b4e58:	a94153f3 	ldp	x19, x20, [sp, #16]
    100b4e5c:	a9425bf5 	ldp	x21, x22, [sp, #32]
    100b4e60:	a94363f7 	ldp	x23, x24, [sp, #48]
    100b4e64:	a8c47bfd 	ldp	x29, x30, [sp], #64
    100b4e68:	d65f03c0 	ret
    100b4e6c:	aa1303e0 	mov	x0, x19
    100b4e70:	97ffff5d 	bl	100b4be4 <free_entity>
    100b4e74:	17fffff8 	b	100b4e54 <io_open+0xac>
    100b4e78:	12800175 	mov	w21, #0xfffffff4            	// #-12
    100b4e7c:	17fffff6 	b	100b4e54 <io_open+0xac>
    100b4e80:	11000442 	add	w2, w2, #0x1
    100b4e84:	b909d002 	str	w2, [x0, #2512]
    100b4e88:	f94002c0 	ldr	x0, [x22]
    100b4e8c:	90000078 	adrp	x24, 100c0000 <__STACKS_START__+0x3bc0>
    100b4e90:	911d0318 	add	x24, x24, #0x740
    100b4e94:	8b031313 	add	x19, x24, x3, lsl #4
    100b4e98:	f8347893 	str	x19, [x4, x20, lsl #3]
    100b4e9c:	f9400403 	ldr	x3, [x0, #8]
    100b4ea0:	b5fffc83 	cbnz	x3, 100b4e30 <io_open+0x88>
    100b4ea4:	52801c41 	mov	w1, #0xe2                  	// #226
    100b4ea8:	17ffffc9 	b	100b4dcc <io_open+0x24>

00000000100b4eac <io_seek>:
    100b4eac:	a9bd7bfd 	stp	x29, x30, [sp, #-48]!
    100b4eb0:	910003fd 	mov	x29, sp
    100b4eb4:	a90153f3 	stp	x19, x20, [sp, #16]
    100b4eb8:	aa0003f3 	mov	x19, x0
    100b4ebc:	2a0103f4 	mov	w20, w1
    100b4ec0:	f90013f5 	str	x21, [sp, #32]
    100b4ec4:	aa0203f5 	mov	x21, x2
    100b4ec8:	97ffff3c 	bl	100b4bb8 <is_valid_entity>
    100b4ecc:	34000080 	cbz	w0, 100b4edc <io_seek+0x30>
    100b4ed0:	51000680 	sub	w0, w20, #0x1
    100b4ed4:	7100081f 	cmp	w0, #0x2
    100b4ed8:	540000a9 	b.ls	100b4eec <io_seek+0x40>  // b.plast
    100b4edc:	d0000020 	adrp	x0, 100ba000 <__TEXT_END__>
    100b4ee0:	910bc000 	add	x0, x0, #0x2f0
    100b4ee4:	52801e61 	mov	w1, #0xf3                  	// #243
    100b4ee8:	94000e42 	bl	100b87f0 <__assert>
    100b4eec:	f9400260 	ldr	x0, [x19]
    100b4ef0:	f9400000 	ldr	x0, [x0]
    100b4ef4:	f9400803 	ldr	x3, [x0, #16]
    100b4ef8:	b4000123 	cbz	x3, 100b4f1c <io_seek+0x70>
    100b4efc:	aa1503e2 	mov	x2, x21
    100b4f00:	2a1403e1 	mov	w1, w20
    100b4f04:	aa1303e0 	mov	x0, x19
    100b4f08:	aa0303f0 	mov	x16, x3
    100b4f0c:	a94153f3 	ldp	x19, x20, [sp, #16]
    100b4f10:	f94013f5 	ldr	x21, [sp, #32]
    100b4f14:	a8c37bfd 	ldp	x29, x30, [sp], #48
    100b4f18:	d61f0200 	br	x16
    100b4f1c:	12800240 	mov	w0, #0xffffffed            	// #-19
    100b4f20:	a94153f3 	ldp	x19, x20, [sp, #16]
    100b4f24:	f94013f5 	ldr	x21, [sp, #32]
    100b4f28:	a8c37bfd 	ldp	x29, x30, [sp], #48
    100b4f2c:	d65f03c0 	ret

00000000100b4f30 <io_size>:
    100b4f30:	a9be7bfd 	stp	x29, x30, [sp, #-32]!
    100b4f34:	910003fd 	mov	x29, sp
    100b4f38:	a90153f3 	stp	x19, x20, [sp, #16]
    100b4f3c:	aa0003f3 	mov	x19, x0
    100b4f40:	aa0103f4 	mov	x20, x1
    100b4f44:	97ffff1d 	bl	100b4bb8 <is_valid_entity>
    100b4f48:	34000040 	cbz	w0, 100b4f50 <io_size+0x20>
    100b4f4c:	b50000b4 	cbnz	x20, 100b4f60 <io_size+0x30>
    100b4f50:	d0000020 	adrp	x0, 100ba000 <__TEXT_END__>
    100b4f54:	910bc000 	add	x0, x0, #0x2f0
    100b4f58:	52802081 	mov	w1, #0x104                 	// #260
    100b4f5c:	94000e25 	bl	100b87f0 <__assert>
    100b4f60:	f9400260 	ldr	x0, [x19]
    100b4f64:	f9400000 	ldr	x0, [x0]
    100b4f68:	f9400c02 	ldr	x2, [x0, #24]
    100b4f6c:	b40000e2 	cbz	x2, 100b4f88 <io_size+0x58>
    100b4f70:	aa1403e1 	mov	x1, x20
    100b4f74:	aa1303e0 	mov	x0, x19
    100b4f78:	a94153f3 	ldp	x19, x20, [sp, #16]
    100b4f7c:	aa0203f0 	mov	x16, x2
    100b4f80:	a8c27bfd 	ldp	x29, x30, [sp], #32
    100b4f84:	d61f0200 	br	x16
    100b4f88:	12800240 	mov	w0, #0xffffffed            	// #-19
    100b4f8c:	a94153f3 	ldp	x19, x20, [sp, #16]
    100b4f90:	a8c27bfd 	ldp	x29, x30, [sp], #32
    100b4f94:	d65f03c0 	ret

00000000100b4f98 <io_read>:
    100b4f98:	a9bd7bfd 	stp	x29, x30, [sp, #-48]!
    100b4f9c:	910003fd 	mov	x29, sp
    100b4fa0:	a90153f3 	stp	x19, x20, [sp, #16]
    100b4fa4:	aa0003f3 	mov	x19, x0
    100b4fa8:	aa0103f4 	mov	x20, x1
    100b4fac:	a9025bf5 	stp	x21, x22, [sp, #32]
    100b4fb0:	aa0203f5 	mov	x21, x2
    100b4fb4:	aa0303f6 	mov	x22, x3
    100b4fb8:	97ffff00 	bl	100b4bb8 <is_valid_entity>
    100b4fbc:	350000a0 	cbnz	w0, 100b4fd0 <io_read+0x38>
    100b4fc0:	d0000020 	adrp	x0, 100ba000 <__TEXT_END__>
    100b4fc4:	910bc000 	add	x0, x0, #0x2f0
    100b4fc8:	52802301 	mov	w1, #0x118                 	// #280
    100b4fcc:	94000e09 	bl	100b87f0 <__assert>
    100b4fd0:	f9400260 	ldr	x0, [x19]
    100b4fd4:	f9400000 	ldr	x0, [x0]
    100b4fd8:	f9401004 	ldr	x4, [x0, #32]
    100b4fdc:	b4000144 	cbz	x4, 100b5004 <io_read+0x6c>
    100b4fe0:	aa1603e3 	mov	x3, x22
    100b4fe4:	aa1503e2 	mov	x2, x21
    100b4fe8:	aa1403e1 	mov	x1, x20
    100b4fec:	aa1303e0 	mov	x0, x19
    100b4ff0:	a94153f3 	ldp	x19, x20, [sp, #16]
    100b4ff4:	aa0403f0 	mov	x16, x4
    100b4ff8:	a9425bf5 	ldp	x21, x22, [sp, #32]
    100b4ffc:	a8c37bfd 	ldp	x29, x30, [sp], #48
    100b5000:	d61f0200 	br	x16
    100b5004:	12800240 	mov	w0, #0xffffffed            	// #-19
    100b5008:	a94153f3 	ldp	x19, x20, [sp, #16]
    100b500c:	a9425bf5 	ldp	x21, x22, [sp, #32]
    100b5010:	a8c37bfd 	ldp	x29, x30, [sp], #48
    100b5014:	d65f03c0 	ret

00000000100b5018 <io_close>:
    100b5018:	a9be7bfd 	stp	x29, x30, [sp, #-32]!
    100b501c:	910003fd 	mov	x29, sp
    100b5020:	a90153f3 	stp	x19, x20, [sp, #16]
    100b5024:	aa0003f3 	mov	x19, x0
    100b5028:	97fffee4 	bl	100b4bb8 <is_valid_entity>
    100b502c:	350000a0 	cbnz	w0, 100b5040 <io_close+0x28>
    100b5030:	b0000020 	adrp	x0, 100ba000 <__TEXT_END__>
    100b5034:	910bc000 	add	x0, x0, #0x2f0
    100b5038:	528027e1 	mov	w1, #0x13f                 	// #319
    100b503c:	94000ded 	bl	100b87f0 <__assert>
    100b5040:	f9400260 	ldr	x0, [x19]
    100b5044:	f9400000 	ldr	x0, [x0]
    100b5048:	f9401801 	ldr	x1, [x0, #48]
    100b504c:	b4000141 	cbz	x1, 100b5074 <io_close+0x5c>
    100b5050:	aa1303e0 	mov	x0, x19
    100b5054:	d63f0020 	blr	x1
    100b5058:	2a0003f4 	mov	w20, w0
    100b505c:	aa1303e0 	mov	x0, x19
    100b5060:	97fffee1 	bl	100b4be4 <free_entity>
    100b5064:	2a1403e0 	mov	w0, w20
    100b5068:	a94153f3 	ldp	x19, x20, [sp, #16]
    100b506c:	a8c27bfd 	ldp	x29, x30, [sp], #32
    100b5070:	d65f03c0 	ret
    100b5074:	52800014 	mov	w20, #0x0                   	// #0
    100b5078:	17fffff9 	b	100b505c <io_close+0x44>

00000000100b507c <gpio_set_pull>:
    100b507c:	a9bf7bfd 	stp	x29, x30, [sp, #-16]!
    100b5080:	910003fd 	mov	x29, sp
    100b5084:	f0000044 	adrp	x4, 100c0000 <__STACKS_START__+0x3bc0>
    100b5088:	f943c084 	ldr	x4, [x4, #1920]
    100b508c:	b50000a4 	cbnz	x4, 100b50a0 <gpio_set_pull+0x24>
    100b5090:	528007c1 	mov	w1, #0x3e                  	// #62
    100b5094:	b0000020 	adrp	x0, 100ba000 <__TEXT_END__>
    100b5098:	910c2000 	add	x0, x0, #0x308
    100b509c:	94000dd5 	bl	100b87f0 <__assert>
    100b50a0:	f9401084 	ldr	x4, [x4, #32]
    100b50a4:	b5000064 	cbnz	x4, 100b50b0 <gpio_set_pull+0x34>
    100b50a8:	528007e1 	mov	w1, #0x3f                  	// #63
    100b50ac:	17fffffa 	b	100b5094 <gpio_set_pull+0x18>
    100b50b0:	7100083f 	cmp	w1, #0x2
    100b50b4:	54000069 	b.ls	100b50c0 <gpio_set_pull+0x44>  // b.plast
    100b50b8:	52800801 	mov	w1, #0x40                  	// #64
    100b50bc:	17fffff6 	b	100b5094 <gpio_set_pull+0x18>
    100b50c0:	36f80060 	tbz	w0, #31, 100b50cc <gpio_set_pull+0x50>
    100b50c4:	52800841 	mov	w1, #0x42                  	// #66
    100b50c8:	17fffff3 	b	100b5094 <gpio_set_pull+0x18>
    100b50cc:	a8c17bfd 	ldp	x29, x30, [sp], #16
    100b50d0:	aa0403f0 	mov	x16, x4
    100b50d4:	d61f0200 	br	x16

00000000100b50d8 <gpio_init>:
    100b50d8:	b4000120 	cbz	x0, 100b50fc <gpio_init+0x24>
    100b50dc:	f9400001 	ldr	x1, [x0]
    100b50e0:	b40000e1 	cbz	x1, 100b50fc <gpio_init+0x24>
    100b50e4:	f9400401 	ldr	x1, [x0, #8]
    100b50e8:	b40000a1 	cbz	x1, 100b50fc <gpio_init+0x24>
    100b50ec:	f9400801 	ldr	x1, [x0, #16]
    100b50f0:	b4000061 	cbz	x1, 100b50fc <gpio_init+0x24>
    100b50f4:	f9400c01 	ldr	x1, [x0, #24]
    100b50f8:	b50000e1 	cbnz	x1, 100b5114 <gpio_init+0x3c>
    100b50fc:	a9bf7bfd 	stp	x29, x30, [sp, #-16]!
    100b5100:	b0000020 	adrp	x0, 100ba000 <__TEXT_END__>
    100b5104:	910c2000 	add	x0, x0, #0x308
    100b5108:	910003fd 	mov	x29, sp
    100b510c:	52800ac1 	mov	w1, #0x56                  	// #86
    100b5110:	94000db8 	bl	100b87f0 <__assert>
    100b5114:	f0000041 	adrp	x1, 100c0000 <__STACKS_START__+0x3bc0>
    100b5118:	f903c020 	str	x0, [x1, #1920]
    100b511c:	d65f03c0 	ret

00000000100b5120 <udelay>:
    100b5120:	a9bd7bfd 	stp	x29, x30, [sp, #-48]!
    100b5124:	910003fd 	mov	x29, sp
    100b5128:	a90153f3 	stp	x19, x20, [sp, #16]
    100b512c:	2a0003f3 	mov	w19, w0
    100b5130:	f0000054 	adrp	x20, 100c0000 <__STACKS_START__+0x3bc0>
    100b5134:	f943c680 	ldr	x0, [x20, #1928]
    100b5138:	f90013f5 	str	x21, [sp, #32]
    100b513c:	b40000e0 	cbz	x0, 100b5158 <udelay+0x38>
    100b5140:	b9400801 	ldr	w1, [x0, #8]
    100b5144:	340000a1 	cbz	w1, 100b5158 <udelay+0x38>
    100b5148:	b9400c02 	ldr	w2, [x0, #12]
    100b514c:	34000062 	cbz	w2, 100b5158 <udelay+0x38>
    100b5150:	f9400001 	ldr	x1, [x0]
    100b5154:	b50000a1 	cbnz	x1, 100b5168 <udelay+0x48>
    100b5158:	52800321 	mov	w1, #0x19                  	// #25
    100b515c:	b0000020 	adrp	x0, 100ba000 <__TEXT_END__>
    100b5160:	910c7000 	add	x0, x0, #0x31c
    100b5164:	94000da3 	bl	100b87f0 <__assert>
    100b5168:	12800000 	mov	w0, #0xffffffff            	// #-1
    100b516c:	1ac20800 	udiv	w0, w0, w2
    100b5170:	6b13001f 	cmp	w0, w19
    100b5174:	54000068 	b.hi	100b5180 <udelay+0x60>  // b.pmore
    100b5178:	52800401 	mov	w1, #0x20                  	// #32
    100b517c:	17fffff8 	b	100b515c <udelay+0x3c>
    100b5180:	d63f0020 	blr	x1
    100b5184:	2a0003f5 	mov	w21, w0
    100b5188:	f943c680 	ldr	x0, [x20, #1928]
    100b518c:	29410801 	ldp	w1, w2, [x0, #8]
    100b5190:	51000420 	sub	w0, w1, #0x1
    100b5194:	1b020273 	madd	w19, w19, w2, w0
    100b5198:	1ac10a73 	udiv	w19, w19, w1
    100b519c:	11000673 	add	w19, w19, #0x1
    100b51a0:	f943c680 	ldr	x0, [x20, #1928]
    100b51a4:	f9400000 	ldr	x0, [x0]
    100b51a8:	d63f0000 	blr	x0
    100b51ac:	4b0002a1 	sub	w1, w21, w0
    100b51b0:	6b01027f 	cmp	w19, w1
    100b51b4:	54ffff68 	b.hi	100b51a0 <udelay+0x80>  // b.pmore
    100b51b8:	a94153f3 	ldp	x19, x20, [sp, #16]
    100b51bc:	f94013f5 	ldr	x21, [sp, #32]
    100b51c0:	a8c37bfd 	ldp	x29, x30, [sp], #48
    100b51c4:	d65f03c0 	ret

00000000100b51c8 <mdelay>:
    100b51c8:	52807d01 	mov	w1, #0x3e8                 	// #1000
    100b51cc:	1b017c00 	mul	w0, w0, w1
    100b51d0:	17ffffd4 	b	100b5120 <udelay>

00000000100b51d4 <timer_init>:
    100b51d4:	b40000e0 	cbz	x0, 100b51f0 <timer_init+0x1c>
    100b51d8:	b9400801 	ldr	w1, [x0, #8]
    100b51dc:	340000a1 	cbz	w1, 100b51f0 <timer_init+0x1c>
    100b51e0:	b9400c01 	ldr	w1, [x0, #12]
    100b51e4:	34000061 	cbz	w1, 100b51f0 <timer_init+0x1c>
    100b51e8:	f9400001 	ldr	x1, [x0]
    100b51ec:	b50000e1 	cbnz	x1, 100b5208 <timer_init+0x34>
    100b51f0:	a9bf7bfd 	stp	x29, x30, [sp, #-16]!
    100b51f4:	b0000020 	adrp	x0, 100ba000 <__TEXT_END__>
    100b51f8:	910c7000 	add	x0, x0, #0x31c
    100b51fc:	910003fd 	mov	x29, sp
    100b5200:	52800841 	mov	w1, #0x42                  	// #66
    100b5204:	94000d7b 	bl	100b87f0 <__assert>
    100b5208:	f0000041 	adrp	x1, 100c0000 <__STACKS_START__+0x3bc0>
    100b520c:	f903c420 	str	x0, [x1, #1928]
    100b5210:	d65f03c0 	ret

00000000100b5214 <get_timer_value>:
    100b5214:	d53be020 	mrs	x0, cntpct_el0
    100b5218:	2a2003e0 	mvn	w0, w0
    100b521c:	d65f03c0 	ret

00000000100b5220 <generic_delay_timer_init_args>:
    100b5220:	2a0003e4 	mov	w4, w0
    100b5224:	f0000043 	adrp	x3, 100c0000 <__STACKS_START__+0x3bc0>
    100b5228:	911e4060 	add	x0, x3, #0x790
    100b522c:	90000002 	adrp	x2, 100b5000 <io_read+0x68>
    100b5230:	91085042 	add	x2, x2, #0x214
    100b5234:	f903c862 	str	x2, [x3, #1936]
    100b5238:	29010404 	stp	w4, w1, [x0, #8]
    100b523c:	17ffffe6 	b	100b51d4 <timer_init>

00000000100b5240 <generic_delay_timer_init>:
    100b5240:	a9bf7bfd 	stp	x29, x30, [sp, #-16]!
    100b5244:	910003fd 	mov	x29, sp
    100b5248:	94000903 	bl	100b7654 <plat_get_syscnt_freq2>
    100b524c:	2a0003e1 	mov	w1, w0
    100b5250:	528000c3 	mov	w3, #0x6                   	// #6
    100b5254:	52884800 	mov	w0, #0x4240                	// #16960
    100b5258:	72a001e0 	movk	w0, #0xf, lsl #16
    100b525c:	52800142 	mov	w2, #0xa                   	// #10
    100b5260:	1ac20824 	udiv	w4, w1, w2
    100b5264:	1b028485 	msub	w5, w4, w2, w1
    100b5268:	350000a5 	cbnz	w5, 100b527c <generic_delay_timer_init+0x3c>
    100b526c:	1ac20800 	udiv	w0, w0, w2
    100b5270:	2a0403e1 	mov	w1, w4
    100b5274:	71000463 	subs	w3, w3, #0x1
    100b5278:	54ffff41 	b.ne	100b5260 <generic_delay_timer_init+0x20>  // b.any
    100b527c:	a8c17bfd 	ldp	x29, x30, [sp], #16
    100b5280:	17ffffe8 	b	100b5220 <generic_delay_timer_init_args>

00000000100b5284 <rpi3_gpio_get_value>:
    100b5284:	52800401 	mov	w1, #0x20                  	// #32
    100b5288:	f0000042 	adrp	x2, 100c0000 <__STACKS_START__+0x3bc0>
    100b528c:	f943d042 	ldr	x2, [x2, #1952]
    100b5290:	1ac10c01 	sdiv	w1, w0, w1
    100b5294:	11003421 	add	w1, w1, #0xd
    100b5298:	531e7421 	lsl	w1, w1, #2
    100b529c:	b8626822 	ldr	w2, [x1, x2]
    100b52a0:	6b0003e1 	negs	w1, w0
    100b52a4:	12001021 	and	w1, w1, #0x1f
    100b52a8:	12001000 	and	w0, w0, #0x1f
    100b52ac:	5a814400 	csneg	w0, w0, w1, mi  // mi = first
    100b52b0:	1ac02440 	lsr	w0, w2, w0
    100b52b4:	12000000 	and	w0, w0, #0x1
    100b52b8:	d65f03c0 	ret

00000000100b52bc <rpi3_gpio_set_value>:
    100b52bc:	6b0003e2 	negs	w2, w0
    100b52c0:	12001003 	and	w3, w0, #0x1f
    100b52c4:	12001042 	and	w2, w2, #0x1f
    100b52c8:	5a824462 	csneg	w2, w3, w2, mi  // mi = first
    100b52cc:	52800403 	mov	w3, #0x20                  	// #32
    100b52d0:	1ac30c00 	sdiv	w0, w0, w3
    100b52d4:	f0000043 	adrp	x3, 100c0000 <__STACKS_START__+0x3bc0>
    100b52d8:	f943d063 	ldr	x3, [x3, #1952]
    100b52dc:	11001c00 	add	w0, w0, #0x7
    100b52e0:	531e7400 	lsl	w0, w0, #2
    100b52e4:	34000081 	cbz	w1, 100b52f4 <rpi3_gpio_set_value+0x38>
    100b52e8:	7100043f 	cmp	w1, #0x1
    100b52ec:	54000060 	b.eq	100b52f8 <rpi3_gpio_set_value+0x3c>  // b.none
    100b52f0:	d65f03c0 	ret
    100b52f4:	52800021 	mov	w1, #0x1                   	// #1
    100b52f8:	1ac22021 	lsl	w1, w1, w2
    100b52fc:	b8236801 	str	w1, [x0, x3]
    100b5300:	17fffffc 	b	100b52f0 <rpi3_gpio_set_value+0x34>

00000000100b5304 <rpi3_gpio_set_pull>:
    100b5304:	a9bd7bfd 	stp	x29, x30, [sp, #-48]!
    100b5308:	910003fd 	mov	x29, sp
    100b530c:	a90153f3 	stp	x19, x20, [sp, #16]
    100b5310:	52800413 	mov	w19, #0x20                  	// #32
    100b5314:	f0000042 	adrp	x2, 100c0000 <__STACKS_START__+0x3bc0>
    100b5318:	f943d054 	ldr	x20, [x2, #1952]
    100b531c:	f90013f5 	str	x21, [sp, #32]
    100b5320:	1ad30c13 	sdiv	w19, w0, w19
    100b5324:	6b0003f5 	negs	w21, w0
    100b5328:	12001002 	and	w2, w0, #0x1f
    100b532c:	120012b5 	and	w21, w21, #0x1f
    100b5330:	5a954455 	csneg	w21, w2, w21, mi  // mi = first
    100b5334:	7100043f 	cmp	w1, #0x1
    100b5338:	11009a73 	add	w19, w19, #0x26
    100b533c:	531e7673 	lsl	w19, w19, #2
    100b5340:	54000240 	b.eq	100b5388 <rpi3_gpio_set_pull+0x84>  // b.none
    100b5344:	7100083f 	cmp	w1, #0x2
    100b5348:	54000260 	b.eq	100b5394 <rpi3_gpio_set_pull+0x90>  // b.none
    100b534c:	35000041 	cbnz	w1, 100b5354 <rpi3_gpio_set_pull+0x50>
    100b5350:	b900969f 	str	wzr, [x20, #148]
    100b5354:	528012c0 	mov	w0, #0x96                  	// #150
    100b5358:	97ffff9c 	bl	100b51c8 <mdelay>
    100b535c:	52800020 	mov	w0, #0x1                   	// #1
    100b5360:	1ad52015 	lsl	w21, w0, w21
    100b5364:	b8346a75 	str	w21, [x19, x20]
    100b5368:	528012c0 	mov	w0, #0x96                  	// #150
    100b536c:	97ffff97 	bl	100b51c8 <mdelay>
    100b5370:	b8346a7f 	str	wzr, [x19, x20]
    100b5374:	f94013f5 	ldr	x21, [sp, #32]
    100b5378:	b900969f 	str	wzr, [x20, #148]
    100b537c:	a94153f3 	ldp	x19, x20, [sp, #16]
    100b5380:	a8c37bfd 	ldp	x29, x30, [sp], #48
    100b5384:	d65f03c0 	ret
    100b5388:	52800040 	mov	w0, #0x2                   	// #2
    100b538c:	b9009680 	str	w0, [x20, #148]
    100b5390:	17fffff1 	b	100b5354 <rpi3_gpio_set_pull+0x50>
    100b5394:	52800020 	mov	w0, #0x1                   	// #1
    100b5398:	17fffffd 	b	100b538c <rpi3_gpio_set_pull+0x88>

00000000100b539c <rpi3_gpio_get_select>:
    100b539c:	52800143 	mov	w3, #0xa                   	// #10
    100b53a0:	f0000042 	adrp	x2, 100c0000 <__STACKS_START__+0x3bc0>
    100b53a4:	f943d042 	ldr	x2, [x2, #1952]
    100b53a8:	1ac30c01 	sdiv	w1, w0, w3
    100b53ac:	531e7424 	lsl	w4, w1, #2
    100b53b0:	1b038020 	msub	w0, w1, w3, w0
    100b53b4:	b8626882 	ldr	w2, [x4, x2]
    100b53b8:	0b000400 	add	w0, w0, w0, lsl #1
    100b53bc:	1ac02440 	lsr	w0, w2, w0
    100b53c0:	12000800 	and	w0, w0, #0x7
    100b53c4:	d65f03c0 	ret

00000000100b53c8 <rpi3_gpio_get_direction>:
    100b53c8:	a9bf7bfd 	stp	x29, x30, [sp, #-16]!
    100b53cc:	910003fd 	mov	x29, sp
    100b53d0:	97fffff3 	bl	100b539c <rpi3_gpio_get_select>
    100b53d4:	7100041f 	cmp	w0, #0x1
    100b53d8:	1a9f07e0 	cset	w0, ne  // ne = any
    100b53dc:	a8c17bfd 	ldp	x29, x30, [sp], #16
    100b53e0:	d65f03c0 	ret

00000000100b53e4 <rpi3_gpio_set_select>:
    100b53e4:	52800142 	mov	w2, #0xa                   	// #10
    100b53e8:	1ac20c03 	sdiv	w3, w0, w2
    100b53ec:	1b028062 	msub	w2, w3, w2, w0
    100b53f0:	f0000040 	adrp	x0, 100c0000 <__STACKS_START__+0x3bc0>
    100b53f4:	f943d004 	ldr	x4, [x0, #1952]
    100b53f8:	531e7463 	lsl	w3, w3, #2
    100b53fc:	0b020442 	add	w2, w2, w2, lsl #1
    100b5400:	b8646865 	ldr	w5, [x3, x4]
    100b5404:	1ac22020 	lsl	w0, w1, w2
    100b5408:	528000e1 	mov	w1, #0x7                   	// #7
    100b540c:	4a050000 	eor	w0, w0, w5
    100b5410:	1ac22022 	lsl	w2, w1, w2
    100b5414:	0a020000 	and	w0, w0, w2
    100b5418:	4a050000 	eor	w0, w0, w5
    100b541c:	b8246860 	str	w0, [x3, x4]
    100b5420:	d65f03c0 	ret

00000000100b5424 <rpi3_gpio_set_direction>:
    100b5424:	340000a1 	cbz	w1, 100b5438 <rpi3_gpio_set_direction+0x14>
    100b5428:	7100043f 	cmp	w1, #0x1
    100b542c:	540000a1 	b.ne	100b5440 <rpi3_gpio_set_direction+0x1c>  // b.any
    100b5430:	52800001 	mov	w1, #0x0                   	// #0
    100b5434:	17ffffec 	b	100b53e4 <rpi3_gpio_set_select>
    100b5438:	52800021 	mov	w1, #0x1                   	// #1
    100b543c:	17fffffe 	b	100b5434 <rpi3_gpio_set_direction+0x10>
    100b5440:	d65f03c0 	ret

00000000100b5444 <rpi3_gpio_init>:
    100b5444:	a9bf7bfd 	stp	x29, x30, [sp, #-16]!
    100b5448:	910003fd 	mov	x29, sp
    100b544c:	b50000a0 	cbnz	x0, 100b5460 <rpi3_gpio_init+0x1c>
    100b5450:	b0000020 	adrp	x0, 100ba000 <__TEXT_END__>
    100b5454:	910cf800 	add	x0, x0, #0x33e
    100b5458:	528014c1 	mov	w1, #0xa6                  	// #166
    100b545c:	94000ce5 	bl	100b87f0 <__assert>
    100b5460:	aa0003e1 	mov	x1, x0
    100b5464:	d2800102 	mov	x2, #0x8                   	// #8
    100b5468:	f0000040 	adrp	x0, 100c0000 <__STACKS_START__+0x3bc0>
    100b546c:	911e8000 	add	x0, x0, #0x7a0
    100b5470:	94000cf9 	bl	100b8854 <memcpy>
    100b5474:	a8c17bfd 	ldp	x29, x30, [sp], #16
    100b5478:	b0000020 	adrp	x0, 100ba000 <__TEXT_END__>
    100b547c:	910d8000 	add	x0, x0, #0x360
    100b5480:	17ffff16 	b	100b50d8 <gpio_init>

00000000100b5484 <mmc_send_cmd>:
    100b5484:	a9bb7bfd 	stp	x29, x30, [sp, #-80]!
    100b5488:	910003fd 	mov	x29, sp
    100b548c:	a90153f3 	stp	x19, x20, [sp, #16]
    100b5490:	2a0203f4 	mov	w20, w2
    100b5494:	aa0303f3 	mov	x19, x3
    100b5498:	a9025bf5 	stp	x21, x22, [sp, #32]
    100b549c:	2a0003f6 	mov	w22, w0
    100b54a0:	2a0103f5 	mov	w21, w1
    100b54a4:	9100c3e0 	add	x0, sp, #0x30
    100b54a8:	d2800381 	mov	x1, #0x1c                  	// #28
    100b54ac:	94000bfc 	bl	100b849c <zeromem>
    100b54b0:	290657f6 	stp	w22, w21, [sp, #48]
    100b54b4:	f0000040 	adrp	x0, 100c0000 <__STACKS_START__+0x3bc0>
    100b54b8:	f943d800 	ldr	x0, [x0, #1968]
    100b54bc:	f9400401 	ldr	x1, [x0, #8]
    100b54c0:	b9003bf4 	str	w20, [sp, #56]
    100b54c4:	9100c3e0 	add	x0, sp, #0x30
    100b54c8:	d63f0020 	blr	x1
    100b54cc:	7100001f 	cmp	w0, #0x0
    100b54d0:	fa400a64 	ccmp	x19, #0x0, #0x4, eq  // eq = none
    100b54d4:	54000120 	b.eq	100b54f8 <mmc_send_cmd+0x74>  // b.none
    100b54d8:	d2800001 	mov	x1, #0x0                   	// #0
    100b54dc:	9100c3e2 	add	x2, sp, #0x30
    100b54e0:	8b010042 	add	x2, x2, x1
    100b54e4:	b9400c42 	ldr	w2, [x2, #12]
    100b54e8:	b8216a62 	str	w2, [x19, x1]
    100b54ec:	91001021 	add	x1, x1, #0x4
    100b54f0:	f100403f 	cmp	x1, #0x10
    100b54f4:	54ffff41 	b.ne	100b54dc <mmc_send_cmd+0x58>  // b.any
    100b54f8:	a94153f3 	ldp	x19, x20, [sp, #16]
    100b54fc:	a9425bf5 	ldp	x21, x22, [sp, #32]
    100b5500:	a8c57bfd 	ldp	x29, x30, [sp], #80
    100b5504:	d65f03c0 	ret

00000000100b5508 <mmc_device_state>:
    100b5508:	a9bd7bfd 	stp	x29, x30, [sp, #-48]!
    100b550c:	910003fd 	mov	x29, sp
    100b5510:	a90153f3 	stp	x19, x20, [sp, #16]
    100b5514:	f0000054 	adrp	x20, 100c0000 <__STACKS_START__+0x3bc0>
    100b5518:	9127b294 	add	x20, x20, #0x9ec
    100b551c:	52800093 	mov	w19, #0x4                   	// #4
    100b5520:	b9400281 	ldr	w1, [x20]
    100b5524:	528001a2 	mov	w2, #0xd                   	// #13
    100b5528:	910083e3 	add	x3, sp, #0x20
    100b552c:	2a0203e0 	mov	w0, w2
    100b5530:	53103c21 	lsl	w1, w1, #16
    100b5534:	97ffffd4 	bl	100b5484 <mmc_send_cmd>
    100b5538:	b94023e1 	ldr	w1, [sp, #32]
    100b553c:	35000040 	cbnz	w0, 100b5544 <mmc_device_state+0x3c>
    100b5540:	373801a1 	tbnz	w1, #7, 100b5574 <mmc_device_state+0x6c>
    100b5544:	364000a1 	tbz	w1, #8, 100b5558 <mmc_device_state+0x50>
    100b5548:	d3493020 	ubfx	x0, x1, #9, #4
    100b554c:	a94153f3 	ldp	x19, x20, [sp, #16]
    100b5550:	a8c37bfd 	ldp	x29, x30, [sp], #48
    100b5554:	d65f03c0 	ret
    100b5558:	51000673 	sub	w19, w19, #0x1
    100b555c:	3100067f 	cmn	w19, #0x1
    100b5560:	54fffe01 	b.ne	100b5520 <mmc_device_state+0x18>  // b.any
    100b5564:	b0000020 	adrp	x0, 100ba000 <__TEXT_END__>
    100b5568:	910e4000 	add	x0, x0, #0x390
    100b556c:	528000a1 	mov	w1, #0x5                   	// #5
    100b5570:	940006bd 	bl	100b7064 <tf_log>
    100b5574:	12800080 	mov	w0, #0xfffffffb            	// #-5
    100b5578:	17fffff5 	b	100b554c <mmc_device_state+0x44>

00000000100b557c <mmc_reset_to_idle>:
    100b557c:	a9be7bfd 	stp	x29, x30, [sp, #-32]!
    100b5580:	d2800003 	mov	x3, #0x0                   	// #0
    100b5584:	52800002 	mov	w2, #0x0                   	// #0
    100b5588:	910003fd 	mov	x29, sp
    100b558c:	52800001 	mov	w1, #0x0                   	// #0
    100b5590:	52800000 	mov	w0, #0x0                   	// #0
    100b5594:	f9000bf3 	str	x19, [sp, #16]
    100b5598:	97ffffbb 	bl	100b5484 <mmc_send_cmd>
    100b559c:	2a0003f3 	mov	w19, w0
    100b55a0:	35000060 	cbnz	w0, 100b55ac <mmc_reset_to_idle+0x30>
    100b55a4:	52800040 	mov	w0, #0x2                   	// #2
    100b55a8:	97ffff08 	bl	100b51c8 <mdelay>
    100b55ac:	2a1303e0 	mov	w0, w19
    100b55b0:	f9400bf3 	ldr	x19, [sp, #16]
    100b55b4:	a8c27bfd 	ldp	x29, x30, [sp], #32
    100b55b8:	d65f03c0 	ret

00000000100b55bc <mmc_set_ext_csd>:
    100b55bc:	a9be7bfd 	stp	x29, x30, [sp, #-32]!
    100b55c0:	53181c21 	ubfiz	w1, w1, #8, #8
    100b55c4:	2a004020 	orr	w0, w1, w0, lsl #16
    100b55c8:	910003fd 	mov	x29, sp
    100b55cc:	d2800003 	mov	x3, #0x0                   	// #0
    100b55d0:	528003a2 	mov	w2, #0x1d                  	// #29
    100b55d4:	52800021 	mov	w1, #0x1                   	// #1
    100b55d8:	72a06001 	movk	w1, #0x300, lsl #16
    100b55dc:	2a010001 	orr	w1, w0, w1
    100b55e0:	528000c0 	mov	w0, #0x6                   	// #6
    100b55e4:	f9000bf3 	str	x19, [sp, #16]
    100b55e8:	97ffffa7 	bl	100b5484 <mmc_send_cmd>
    100b55ec:	2a0003f3 	mov	w19, w0
    100b55f0:	350000a0 	cbnz	w0, 100b5604 <mmc_set_ext_csd+0x48>
    100b55f4:	97ffffc5 	bl	100b5508 <mmc_device_state>
    100b55f8:	37f800e0 	tbnz	w0, #31, 100b5614 <mmc_set_ext_csd+0x58>
    100b55fc:	71001c1f 	cmp	w0, #0x7
    100b5600:	54ffffa0 	b.eq	100b55f4 <mmc_set_ext_csd+0x38>  // b.none
    100b5604:	2a1303e0 	mov	w0, w19
    100b5608:	f9400bf3 	ldr	x19, [sp, #16]
    100b560c:	a8c27bfd 	ldp	x29, x30, [sp], #32
    100b5610:	d65f03c0 	ret
    100b5614:	2a0003f3 	mov	w19, w0
    100b5618:	17fffffb 	b	100b5604 <mmc_set_ext_csd+0x48>

00000000100b561c <mmc_init>:
    100b561c:	a9b87bfd 	stp	x29, x30, [sp, #-128]!
    100b5620:	910003fd 	mov	x29, sp
    100b5624:	a90153f3 	stp	x19, x20, [sp, #16]
    100b5628:	a9025bf5 	stp	x21, x22, [sp, #32]
    100b562c:	a90363f7 	stp	x23, x24, [sp, #48]
    100b5630:	a9046bf9 	stp	x25, x26, [sp, #64]
    100b5634:	a90573fb 	stp	x27, x28, [sp, #80]
    100b5638:	b40002c0 	cbz	x0, 100b5690 <mmc_init+0x74>
    100b563c:	2a0103f9 	mov	w25, w1
    100b5640:	f9400001 	ldr	x1, [x0]
    100b5644:	b4000261 	cbz	x1, 100b5690 <mmc_init+0x74>
    100b5648:	2a0203f6 	mov	w22, w2
    100b564c:	f9400402 	ldr	x2, [x0, #8]
    100b5650:	b4000202 	cbz	x2, 100b5690 <mmc_init+0x74>
    100b5654:	f9400802 	ldr	x2, [x0, #16]
    100b5658:	b40001c2 	cbz	x2, 100b5690 <mmc_init+0x74>
    100b565c:	f9400c02 	ldr	x2, [x0, #24]
    100b5660:	b4000182 	cbz	x2, 100b5690 <mmc_init+0x74>
    100b5664:	f9401002 	ldr	x2, [x0, #32]
    100b5668:	b4000142 	cbz	x2, 100b5690 <mmc_init+0x74>
    100b566c:	f9401402 	ldr	x2, [x0, #40]
    100b5670:	b4000102 	cbz	x2, 100b5690 <mmc_init+0x74>
    100b5674:	f100009f 	cmp	x4, #0x0
    100b5678:	7a401b24 	ccmp	w25, #0x0, #0x4, ne  // ne = any
    100b567c:	540000a0 	b.eq	100b5690 <mmc_init+0x74>  // b.none
    100b5680:	510016c2 	sub	w2, w22, #0x5
    100b5684:	7100045f 	cmp	w2, #0x1
    100b5688:	7a428ac0 	ccmp	w22, #0x2, #0x0, hi  // hi = pmore
    100b568c:	540000a9 	b.ls	100b56a0 <mmc_init+0x84>  // b.plast
    100b5690:	528059a1 	mov	w1, #0x2cd                 	// #717
    100b5694:	b0000020 	adrp	x0, 100ba000 <__TEXT_END__>
    100b5698:	910ec000 	add	x0, x0, #0x3b0
    100b569c:	94000c55 	bl	100b87f0 <__assert>
    100b56a0:	f0000057 	adrp	x23, 100c0000 <__STACKS_START__+0x3bc0>
    100b56a4:	f0000055 	adrp	x21, 100c0000 <__STACKS_START__+0x3bc0>
    100b56a8:	f903dae0 	str	x0, [x23, #1968]
    100b56ac:	f0000040 	adrp	x0, 100c0000 <__STACKS_START__+0x3bc0>
    100b56b0:	f903d6a4 	str	x4, [x21, #1960]
    100b56b4:	b909e403 	str	w3, [x0, #2532]
    100b56b8:	d63f0020 	blr	x1
    100b56bc:	97ffffb0 	bl	100b557c <mmc_reset_to_idle>
    100b56c0:	2a0003f3 	mov	w19, w0
    100b56c4:	35000f20 	cbnz	w0, 100b58a8 <mmc_init+0x28c>
    100b56c8:	f943d6a0 	ldr	x0, [x21, #1960]
    100b56cc:	b9401400 	ldr	w0, [x0, #20]
    100b56d0:	35000fc0 	cbnz	w0, 100b58c8 <mmc_init+0x2ac>
    100b56d4:	97ffffaa 	bl	100b557c <mmc_reset_to_idle>
    100b56d8:	2a0003f3 	mov	w19, w0
    100b56dc:	35000e60 	cbnz	w0, 100b58a8 <mmc_init+0x28c>
    100b56e0:	52901018 	mov	w24, #0x8080                	// #32896
    100b56e4:	72a81ff8 	movk	w24, #0x40ff, lsl #16
    100b56e8:	52800c94 	mov	w20, #0x64                  	// #100
    100b56ec:	52800022 	mov	w2, #0x1                   	// #1
    100b56f0:	9101c3e3 	add	x3, sp, #0x70
    100b56f4:	2a1803e1 	mov	w1, w24
    100b56f8:	2a0203e0 	mov	w0, w2
    100b56fc:	97ffff62 	bl	100b5484 <mmc_send_cmd>
    100b5700:	2a0003f3 	mov	w19, w0
    100b5704:	35000d20 	cbnz	w0, 100b58a8 <mmc_init+0x28c>
    100b5708:	b94073e0 	ldr	w0, [sp, #112]
    100b570c:	36f80bc0 	tbz	w0, #31, 100b5884 <mmc_init+0x268>
    100b5710:	f0000041 	adrp	x1, 100c0000 <__STACKS_START__+0x3bc0>
    100b5714:	b909e820 	str	w0, [x1, #2536]
    100b5718:	d2800003 	mov	x3, #0x0                   	// #0
    100b571c:	528000e2 	mov	w2, #0x7                   	// #7
    100b5720:	52800001 	mov	w1, #0x0                   	// #0
    100b5724:	52800040 	mov	w0, #0x2                   	// #2
    100b5728:	97ffff57 	bl	100b5484 <mmc_send_cmd>
    100b572c:	2a0003f3 	mov	w19, w0
    100b5730:	35000bc0 	cbnz	w0, 100b58a8 <mmc_init+0x28c>
    100b5734:	f943d6a0 	ldr	x0, [x21, #1960]
    100b5738:	b9401400 	ldr	w0, [x0, #20]
    100b573c:	35001220 	cbnz	w0, 100b5980 <mmc_init+0x364>
    100b5740:	f0000040 	adrp	x0, 100c0000 <__STACKS_START__+0x3bc0>
    100b5744:	528000c1 	mov	w1, #0x6                   	// #6
    100b5748:	d2800003 	mov	x3, #0x0                   	// #0
    100b574c:	528001a2 	mov	w2, #0xd                   	// #13
    100b5750:	b909ec01 	str	w1, [x0, #2540]
    100b5754:	52a000c1 	mov	w1, #0x60000               	// #393216
    100b5758:	52800060 	mov	w0, #0x3                   	// #3
    100b575c:	97ffff4a 	bl	100b5484 <mmc_send_cmd>
    100b5760:	2a0003f3 	mov	w19, w0
    100b5764:	35000a20 	cbnz	w0, 100b58a8 <mmc_init+0x28c>
    100b5768:	f0000058 	adrp	x24, 100c0000 <__STACKS_START__+0x3bc0>
    100b576c:	b949ef01 	ldr	w1, [x24, #2540]
    100b5770:	910183e3 	add	x3, sp, #0x60
    100b5774:	528000e2 	mov	w2, #0x7                   	// #7
    100b5778:	52800120 	mov	w0, #0x9                   	// #9
    100b577c:	53103c21 	lsl	w1, w1, #16
    100b5780:	97ffff41 	bl	100b5484 <mmc_send_cmd>
    100b5784:	2a0003f3 	mov	w19, w0
    100b5788:	35000900 	cbnz	w0, 100b58a8 <mmc_init+0x28c>
    100b578c:	f0000054 	adrp	x20, 100c0000 <__STACKS_START__+0x3bc0>
    100b5790:	91275294 	add	x20, x20, #0x9d4
    100b5794:	910183e1 	add	x1, sp, #0x60
    100b5798:	d2800202 	mov	x2, #0x10                  	// #16
    100b579c:	aa1403e0 	mov	x0, x20
    100b57a0:	94000c2d 	bl	100b8854 <memcpy>
    100b57a4:	b949ef01 	ldr	w1, [x24, #2540]
    100b57a8:	d2800003 	mov	x3, #0x0                   	// #0
    100b57ac:	528001a2 	mov	w2, #0xd                   	// #13
    100b57b0:	528000e0 	mov	w0, #0x7                   	// #7
    100b57b4:	53103c21 	lsl	w1, w1, #16
    100b57b8:	97ffff33 	bl	100b5484 <mmc_send_cmd>
    100b57bc:	2a0003f3 	mov	w19, w0
    100b57c0:	35000740 	cbnz	w0, 100b58a8 <mmc_init+0x28c>
    100b57c4:	97ffff51 	bl	100b5508 <mmc_device_state>
    100b57c8:	2a0003f3 	mov	w19, w0
    100b57cc:	37f806e0 	tbnz	w0, #31, 100b58a8 <mmc_init+0x28c>
    100b57d0:	7100101f 	cmp	w0, #0x4
    100b57d4:	54ffff81 	b.ne	100b57c4 <mmc_init+0x1a8>  // b.any
    100b57d8:	f943d6a0 	ldr	x0, [x21, #1960]
    100b57dc:	b9401400 	ldr	w0, [x0, #20]
    100b57e0:	34001940 	cbz	w0, 100b5b08 <mmc_init+0x4ec>
    100b57e4:	71000adf 	cmp	w22, #0x2
    100b57e8:	540000a1 	b.ne	100b57fc <mmc_init+0x1e0>  // b.any
    100b57ec:	52800036 	mov	w22, #0x1                   	// #1
    100b57f0:	b0000020 	adrp	x0, 100ba000 <__TEXT_END__>
    100b57f4:	91100800 	add	x0, x0, #0x402
    100b57f8:	9400061b 	bl	100b7064 <tf_log>
    100b57fc:	f943dae0 	ldr	x0, [x23, #1968]
    100b5800:	f000005c 	adrp	x28, 100c0000 <__STACKS_START__+0x3bc0>
    100b5804:	911a039b 	add	x27, x28, #0x680
    100b5808:	d2800102 	mov	x2, #0x8                   	// #8
    100b580c:	aa1b03e1 	mov	x1, x27
    100b5810:	f9400c03 	ldr	x3, [x0, #24]
    100b5814:	52800000 	mov	w0, #0x0                   	// #0
    100b5818:	d63f0060 	blr	x3
    100b581c:	2a0003f3 	mov	w19, w0
    100b5820:	35000440 	cbnz	w0, 100b58a8 <mmc_init+0x28c>
    100b5824:	b949ef01 	ldr	w1, [x24, #2540]
    100b5828:	d2800003 	mov	x3, #0x0                   	// #0
    100b582c:	528001a2 	mov	w2, #0xd                   	// #13
    100b5830:	528006e0 	mov	w0, #0x37                  	// #55
    100b5834:	53103c21 	lsl	w1, w1, #16
    100b5838:	97ffff13 	bl	100b5484 <mmc_send_cmd>
    100b583c:	2a0003f3 	mov	w19, w0
    100b5840:	35000340 	cbnz	w0, 100b58a8 <mmc_init+0x28c>
    100b5844:	528000ba 	mov	w26, #0x5                   	// #5
    100b5848:	d2800003 	mov	x3, #0x0                   	// #0
    100b584c:	528001a2 	mov	w2, #0xd                   	// #13
    100b5850:	52800001 	mov	w1, #0x0                   	// #0
    100b5854:	52800660 	mov	w0, #0x33                  	// #51
    100b5858:	97ffff0b 	bl	100b5484 <mmc_send_cmd>
    100b585c:	7100001f 	cmp	w0, #0x0
    100b5860:	2a0003f3 	mov	w19, w0
    100b5864:	7a401b40 	ccmp	w26, #0x0, #0x0, ne  // ne = any
    100b5868:	54000a21 	b.ne	100b59ac <mmc_init+0x390>  // b.any
    100b586c:	2a0003e2 	mov	w2, w0
    100b5870:	528000a1 	mov	w1, #0x5                   	// #5
    100b5874:	b0000020 	adrp	x0, 100ba000 <__TEXT_END__>
    100b5878:	9110b400 	add	x0, x0, #0x42d
    100b587c:	940005fa 	bl	100b7064 <tf_log>
    100b5880:	1400000a 	b	100b58a8 <mmc_init+0x28c>
    100b5884:	52800140 	mov	w0, #0xa                   	// #10
    100b5888:	97fffe50 	bl	100b51c8 <mdelay>
    100b588c:	71000694 	subs	w20, w20, #0x1
    100b5890:	54fff2e1 	b.ne	100b56ec <mmc_init+0xd0>  // b.any
    100b5894:	b0000020 	adrp	x0, 100ba000 <__TEXT_END__>
    100b5898:	910f0800 	add	x0, x0, #0x3c2
    100b589c:	52800c81 	mov	w1, #0x64                  	// #100
    100b58a0:	12800093 	mov	w19, #0xfffffffb            	// #-5
    100b58a4:	940005f0 	bl	100b7064 <tf_log>
    100b58a8:	2a1303e0 	mov	w0, w19
    100b58ac:	a94153f3 	ldp	x19, x20, [sp, #16]
    100b58b0:	a9425bf5 	ldp	x21, x22, [sp, #32]
    100b58b4:	a94363f7 	ldp	x23, x24, [sp, #48]
    100b58b8:	a9446bf9 	ldp	x25, x26, [sp, #64]
    100b58bc:	a94573fb 	ldp	x27, x28, [sp, #80]
    100b58c0:	a8c87bfd 	ldp	x29, x30, [sp], #128
    100b58c4:	d65f03c0 	ret
    100b58c8:	910183e3 	add	x3, sp, #0x60
    100b58cc:	528001a2 	mov	w2, #0xd                   	// #13
    100b58d0:	52803541 	mov	w1, #0x1aa                 	// #426
    100b58d4:	52800100 	mov	w0, #0x8                   	// #8
    100b58d8:	97fffeeb 	bl	100b5484 <mmc_send_cmd>
    100b58dc:	2a0003f3 	mov	w19, w0
    100b58e0:	35fffe40 	cbnz	w0, 100b58a8 <mmc_init+0x28c>
    100b58e4:	394183e0 	ldrb	w0, [sp, #96]
    100b58e8:	7102a81f 	cmp	w0, #0xaa
    100b58ec:	54fff161 	b.ne	100b5718 <mmc_init+0xfc>  // b.any
    100b58f0:	52800c94 	mov	w20, #0x64                  	// #100
    100b58f4:	d2800003 	mov	x3, #0x0                   	// #0
    100b58f8:	528001a2 	mov	w2, #0xd                   	// #13
    100b58fc:	52800001 	mov	w1, #0x0                   	// #0
    100b5900:	528006e0 	mov	w0, #0x37                  	// #55
    100b5904:	97fffee0 	bl	100b5484 <mmc_send_cmd>
    100b5908:	2a0003f3 	mov	w19, w0
    100b590c:	35fffce0 	cbnz	w0, 100b58a8 <mmc_init+0x28c>
    100b5910:	f943d6a0 	ldr	x0, [x21, #1960]
    100b5914:	9101c3e3 	add	x3, sp, #0x70
    100b5918:	52800022 	mov	w2, #0x1                   	// #1
    100b591c:	911ea2b8 	add	x24, x21, #0x7a8
    100b5920:	b9401001 	ldr	w1, [x0, #16]
    100b5924:	52800520 	mov	w0, #0x29                  	// #41
    100b5928:	32020021 	orr	w1, w1, #0x40000000
    100b592c:	97fffed6 	bl	100b5484 <mmc_send_cmd>
    100b5930:	2a0003f3 	mov	w19, w0
    100b5934:	35fffba0 	cbnz	w0, 100b58a8 <mmc_init+0x28c>
    100b5938:	b94073e0 	ldr	w0, [sp, #112]
    100b593c:	36f80120 	tbz	w0, #31, 100b5960 <mmc_init+0x344>
    100b5940:	f0000041 	adrp	x1, 100c0000 <__STACKS_START__+0x3bc0>
    100b5944:	f262001f 	tst	x0, #0x40000000
    100b5948:	b909e820 	str	w0, [x1, #2536]
    100b594c:	52800040 	mov	w0, #0x2                   	// #2
    100b5950:	f9400301 	ldr	x1, [x24]
    100b5954:	1a9f1400 	csinc	w0, w0, wzr, ne  // ne = any
    100b5958:	b9001420 	str	w0, [x1, #20]
    100b595c:	17ffff6f 	b	100b5718 <mmc_init+0xfc>
    100b5960:	52800140 	mov	w0, #0xa                   	// #10
    100b5964:	97fffe19 	bl	100b51c8 <mdelay>
    100b5968:	71000694 	subs	w20, w20, #0x1
    100b596c:	54fffc41 	b.ne	100b58f4 <mmc_init+0x2d8>  // b.any
    100b5970:	b0000020 	adrp	x0, 100ba000 <__TEXT_END__>
    100b5974:	910f8400 	add	x0, x0, #0x3e1
    100b5978:	52800c81 	mov	w1, #0x64                  	// #100
    100b597c:	17ffffc9 	b	100b58a0 <mmc_init+0x284>
    100b5980:	910183e3 	add	x3, sp, #0x60
    100b5984:	528001a2 	mov	w2, #0xd                   	// #13
    100b5988:	52800001 	mov	w1, #0x0                   	// #0
    100b598c:	52800060 	mov	w0, #0x3                   	// #3
    100b5990:	97fffebd 	bl	100b5484 <mmc_send_cmd>
    100b5994:	2a0003f3 	mov	w19, w0
    100b5998:	35fff880 	cbnz	w0, 100b58a8 <mmc_init+0x28c>
    100b599c:	f0000040 	adrp	x0, 100c0000 <__STACKS_START__+0x3bc0>
    100b59a0:	7940c7e1 	ldrh	w1, [sp, #98]
    100b59a4:	b909ec01 	str	w1, [x0, #2540]
    100b59a8:	17ffff70 	b	100b5768 <mmc_init+0x14c>
    100b59ac:	5100075a 	sub	w26, w26, #0x1
    100b59b0:	35fff4c0 	cbnz	w0, 100b5848 <mmc_init+0x22c>
    100b59b4:	f943dae1 	ldr	x1, [x23, #1968]
    100b59b8:	d2800102 	mov	x2, #0x8                   	// #8
    100b59bc:	f9401023 	ldr	x3, [x1, #32]
    100b59c0:	aa1b03e1 	mov	x1, x27
    100b59c4:	d63f0060 	blr	x3
    100b59c8:	2a0003f3 	mov	w19, w0
    100b59cc:	35fff6e0 	cbnz	w0, 100b58a8 <mmc_init+0x28c>
    100b59d0:	b9468380 	ldr	w0, [x28, #1664]
    100b59d4:	1216001a 	and	w26, w0, #0x400
    100b59d8:	36500080 	tbz	w0, #10, 100b59e8 <mmc_init+0x3cc>
    100b59dc:	710006df 	cmp	w22, #0x1
    100b59e0:	1a9f17fa 	cset	w26, eq  // eq = none
    100b59e4:	531f7b5a 	lsl	w26, w26, #1
    100b59e8:	b949ef01 	ldr	w1, [x24, #2540]
    100b59ec:	d2800003 	mov	x3, #0x0                   	// #0
    100b59f0:	528001a2 	mov	w2, #0xd                   	// #13
    100b59f4:	528006e0 	mov	w0, #0x37                  	// #55
    100b59f8:	53103c21 	lsl	w1, w1, #16
    100b59fc:	97fffea2 	bl	100b5484 <mmc_send_cmd>
    100b5a00:	2a0003f3 	mov	w19, w0
    100b5a04:	35fff520 	cbnz	w0, 100b58a8 <mmc_init+0x28c>
    100b5a08:	2a1a03e1 	mov	w1, w26
    100b5a0c:	d2800003 	mov	x3, #0x0                   	// #0
    100b5a10:	528001a2 	mov	w2, #0xd                   	// #13
    100b5a14:	528000c0 	mov	w0, #0x6                   	// #6
    100b5a18:	97fffe9b 	bl	100b5484 <mmc_send_cmd>
    100b5a1c:	2a0003f3 	mov	w19, w0
    100b5a20:	35fff440 	cbnz	w0, 100b58a8 <mmc_init+0x28c>
    100b5a24:	97fffeb9 	bl	100b5508 <mmc_device_state>
    100b5a28:	2a0003f3 	mov	w19, w0
    100b5a2c:	37fff3e0 	tbnz	w0, #31, 100b58a8 <mmc_init+0x28c>
    100b5a30:	71001c1f 	cmp	w0, #0x7
    100b5a34:	54ffff80 	b.eq	100b5a24 <mmc_init+0x408>  // b.none
    100b5a38:	f943dae0 	ldr	x0, [x23, #1968]
    100b5a3c:	2a1603e1 	mov	w1, w22
    100b5a40:	f9400802 	ldr	x2, [x0, #16]
    100b5a44:	2a1903e0 	mov	w0, w25
    100b5a48:	d63f0040 	blr	x2
    100b5a4c:	2a0003f3 	mov	w19, w0
    100b5a50:	35fff2c0 	cbnz	w0, 100b58a8 <mmc_init+0x28c>
    100b5a54:	f943d6a2 	ldr	x2, [x21, #1960]
    100b5a58:	b9401441 	ldr	w1, [x2, #20]
    100b5a5c:	7100043f 	cmp	w1, #0x1
    100b5a60:	54000680 	b.eq	100b5b30 <mmc_init+0x514>  // b.none
    100b5a64:	7100083f 	cmp	w1, #0x2
    100b5a68:	540008e0 	b.eq	100b5b84 <mmc_init+0x568>  // b.none
    100b5a6c:	35000d81 	cbnz	w1, 100b5c1c <mmc_init+0x600>
    100b5a70:	52804001 	mov	w1, #0x200                 	// #512
    100b5a74:	b9000841 	str	w1, [x2, #8]
    100b5a78:	f943dae1 	ldr	x1, [x23, #1968]
    100b5a7c:	f0000056 	adrp	x22, 100c0000 <__STACKS_START__+0x3bc0>
    100b5a80:	911202d6 	add	x22, x22, #0x480
    100b5a84:	d2804002 	mov	x2, #0x200                 	// #512
    100b5a88:	f9400c23 	ldr	x3, [x1, #24]
    100b5a8c:	aa1603e1 	mov	x1, x22
    100b5a90:	d63f0060 	blr	x3
    100b5a94:	35000cc0 	cbnz	w0, 100b5c2c <mmc_init+0x610>
    100b5a98:	d2800003 	mov	x3, #0x0                   	// #0
    100b5a9c:	528001a2 	mov	w2, #0xd                   	// #13
    100b5aa0:	52800001 	mov	w1, #0x0                   	// #0
    100b5aa4:	52800100 	mov	w0, #0x8                   	// #8
    100b5aa8:	97fffe77 	bl	100b5484 <mmc_send_cmd>
    100b5aac:	35000bc0 	cbnz	w0, 100b5c24 <mmc_init+0x608>
    100b5ab0:	f943dae1 	ldr	x1, [x23, #1968]
    100b5ab4:	d2804002 	mov	x2, #0x200                 	// #512
    100b5ab8:	f9401023 	ldr	x3, [x1, #32]
    100b5abc:	aa1603e1 	mov	x1, x22
    100b5ac0:	d63f0060 	blr	x3
    100b5ac4:	35000b40 	cbnz	w0, 100b5c2c <mmc_init+0x610>
    100b5ac8:	97fffe90 	bl	100b5508 <mmc_device_state>
    100b5acc:	37f80b00 	tbnz	w0, #31, 100b5c2c <mmc_init+0x610>
    100b5ad0:	7100101f 	cmp	w0, #0x4
    100b5ad4:	54ffffa1 	b.ne	100b5ac8 <mmc_init+0x4ac>  // b.any
    100b5ad8:	f943d6a1 	ldr	x1, [x21, #1960]
    100b5adc:	b940d6c0 	ldr	w0, [x22, #212]
    100b5ae0:	b9400822 	ldr	w2, [x1, #8]
    100b5ae4:	9ba27c00 	umull	x0, w0, w2
    100b5ae8:	f9000020 	str	x0, [x1]
    100b5aec:	39403281 	ldrb	w1, [x20, #12]
    100b5af0:	39403282 	ldrb	w2, [x20, #12]
    100b5af4:	53031820 	ubfx	w0, w1, #3, #4
    100b5af8:	721d0c3f 	tst	w1, #0x78
    100b5afc:	54000621 	b.ne	100b5bc0 <mmc_init+0x5a4>  // b.any
    100b5b00:	528026e1 	mov	w1, #0x137                 	// #311
    100b5b04:	17fffee4 	b	100b5694 <mmc_init+0x78>
    100b5b08:	39403e80 	ldrb	w0, [x20, #15]
    100b5b0c:	121e0c00 	and	w0, w0, #0x3c
    100b5b10:	7100401f 	cmp	w0, #0x10
    100b5b14:	54fff921 	b.ne	100b5a38 <mmc_init+0x41c>  // b.any
    100b5b18:	2a1603e1 	mov	w1, w22
    100b5b1c:	528016e0 	mov	w0, #0xb7                  	// #183
    100b5b20:	97fffea7 	bl	100b55bc <mmc_set_ext_csd>
    100b5b24:	2a0003f3 	mov	w19, w0
    100b5b28:	34fff880 	cbz	w0, 100b5a38 <mmc_init+0x41c>
    100b5b2c:	17ffff5f 	b	100b58a8 <mmc_init+0x28c>
    100b5b30:	39402a80 	ldrb	w0, [x20, #10]
    100b5b34:	39401e83 	ldrb	w3, [x20, #7]
    100b5b38:	d3400c00 	ubfx	x0, x0, #0, #4
    100b5b3c:	d3461c63 	ubfx	x3, x3, #6, #2
    100b5b40:	1ac02021 	lsl	w1, w1, w0
    100b5b44:	79401280 	ldrh	w0, [x20, #8]
    100b5b48:	b9000841 	str	w1, [x2, #8]
    100b5b4c:	d37e2400 	ubfiz	x0, x0, #2, #10
    100b5b50:	aa030000 	orr	x0, x0, x3
    100b5b54:	f13ffc1f 	cmp	x0, #0xfff
    100b5b58:	54000061 	b.ne	100b5b64 <mmc_init+0x548>  // b.any
    100b5b5c:	528022a1 	mov	w1, #0x115                 	// #277
    100b5b60:	17fffecd 	b	100b5694 <mmc_init+0x78>
    100b5b64:	b9400683 	ldr	w3, [x20, #4]
    100b5b68:	91000400 	add	x0, x0, #0x1
    100b5b6c:	d34f4463 	ubfx	x3, x3, #15, #3
    100b5b70:	11000863 	add	w3, w3, #0x2
    100b5b74:	9ac32000 	lsl	x0, x0, x3
    100b5b78:	9b017c00 	mul	x0, x0, x1
    100b5b7c:	f9000040 	str	x0, [x2]
    100b5b80:	17ffffdb 	b	100b5aec <mmc_init+0x4d0>
    100b5b84:	39403e80 	ldrb	w0, [x20, #15]
    100b5b88:	121a0400 	and	w0, w0, #0xc0
    100b5b8c:	7101001f 	cmp	w0, #0x40
    100b5b90:	54000060 	b.eq	100b5b9c <mmc_init+0x580>  // b.none
    100b5b94:	528023c1 	mov	w1, #0x11e                 	// #286
    100b5b98:	17fffebf 	b	100b5694 <mmc_init+0x78>
    100b5b9c:	52804000 	mov	w0, #0x200                 	// #512
    100b5ba0:	b9000840 	str	w0, [x2, #8]
    100b5ba4:	39402280 	ldrb	w0, [x20, #8]
    100b5ba8:	79400e81 	ldrh	w1, [x20, #6]
    100b5bac:	d3701400 	ubfiz	x0, x0, #16, #6
    100b5bb0:	aa010000 	orr	x0, x0, x1
    100b5bb4:	91000400 	add	x0, x0, #0x1
    100b5bb8:	d36db000 	lsl	x0, x0, #19
    100b5bbc:	17fffff0 	b	100b5b7c <mmc_init+0x560>
    100b5bc0:	f943d6a1 	ldr	x1, [x21, #1960]
    100b5bc4:	2a0003e0 	mov	w0, w0
    100b5bc8:	b9401423 	ldr	w3, [x1, #20]
    100b5bcc:	350001a3 	cbnz	w3, 100b5c00 <mmc_init+0x5e4>
    100b5bd0:	b0000023 	adrp	x3, 100ba000 <__TEXT_END__>
    100b5bd4:	91119c63 	add	x3, x3, #0x467
    100b5bd8:	38606860 	ldrb	w0, [x3, x0]
    100b5bdc:	12000842 	and	w2, w2, #0x7
    100b5be0:	52800143 	mov	w3, #0xa                   	// #10
    100b5be4:	b9000c20 	str	w0, [x1, #12]
    100b5be8:	b9400c20 	ldr	w0, [x1, #12]
    100b5bec:	35000102 	cbnz	w2, 100b5c0c <mmc_init+0x5f0>
    100b5bf0:	5284e202 	mov	w2, #0x2710                	// #10000
    100b5bf4:	1b027c00 	mul	w0, w0, w2
    100b5bf8:	b9000c20 	str	w0, [x1, #12]
    100b5bfc:	17ffff2b 	b	100b58a8 <mmc_init+0x28c>
    100b5c00:	b0000023 	adrp	x3, 100ba000 <__TEXT_END__>
    100b5c04:	91115c63 	add	x3, x3, #0x457
    100b5c08:	17fffff4 	b	100b5bd8 <mmc_init+0x5bc>
    100b5c0c:	1b037c00 	mul	w0, w0, w3
    100b5c10:	51000442 	sub	w2, w2, #0x1
    100b5c14:	b9000c20 	str	w0, [x1, #12]
    100b5c18:	17fffff4 	b	100b5be8 <mmc_init+0x5cc>
    100b5c1c:	128002b3 	mov	w19, #0xffffffea            	// #-22
    100b5c20:	17ffff22 	b	100b58a8 <mmc_init+0x28c>
    100b5c24:	2a0003f3 	mov	w19, w0
    100b5c28:	17ffff20 	b	100b58a8 <mmc_init+0x28c>
    100b5c2c:	2a0003f3 	mov	w19, w0
    100b5c30:	17ffff1e 	b	100b58a8 <mmc_init+0x28c>

00000000100b5c34 <rpi3_sdhost_waitcommand>:
    100b5c34:	a9bd7bfd 	stp	x29, x30, [sp, #-48]!
    100b5c38:	910003fd 	mov	x29, sp
    100b5c3c:	f9000bf3 	str	x19, [sp, #16]
    100b5c40:	f0000040 	adrp	x0, 100c0000 <__STACKS_START__+0x3bc0>
    100b5c44:	f943dc13 	ldr	x19, [x0, #1976]
    100b5c48:	52807d00 	mov	w0, #0x3e8                 	// #1000
    100b5c4c:	b9002fe0 	str	w0, [sp, #44]
    100b5c50:	b9400260 	ldr	w0, [x19]
    100b5c54:	37780100 	tbnz	w0, #15, 100b5c74 <rpi3_sdhost_waitcommand+0x40>
    100b5c58:	b9402fe0 	ldr	w0, [sp, #44]
    100b5c5c:	f9400bf3 	ldr	x19, [sp, #16]
    100b5c60:	7100001f 	cmp	w0, #0x0
    100b5c64:	a8c37bfd 	ldp	x29, x30, [sp], #48
    100b5c68:	12800760 	mov	w0, #0xffffffc4            	// #-60
    100b5c6c:	1a80c3e0 	csel	w0, wzr, w0, gt
    100b5c70:	d65f03c0 	ret
    100b5c74:	b9402fe0 	ldr	w0, [sp, #44]
    100b5c78:	51000400 	sub	w0, w0, #0x1
    100b5c7c:	b9002fe0 	str	w0, [sp, #44]
    100b5c80:	7100001f 	cmp	w0, #0x0
    100b5c84:	54fffead 	b.le	100b5c58 <rpi3_sdhost_waitcommand+0x24>
    100b5c88:	52800c80 	mov	w0, #0x64                  	// #100
    100b5c8c:	97fffd25 	bl	100b5120 <udelay>
    100b5c90:	17fffff0 	b	100b5c50 <rpi3_sdhost_waitcommand+0x1c>

00000000100b5c94 <send_command_decorated>:
    100b5c94:	a9bd7bfd 	stp	x29, x30, [sp, #-48]!
    100b5c98:	12001402 	and	w2, w0, #0x3f
    100b5c9c:	7100cc5f 	cmp	w2, #0x33
    100b5ca0:	910003fd 	mov	x29, sp
    100b5ca4:	a90153f3 	stp	x19, x20, [sp, #16]
    100b5ca8:	a9025bf5 	stp	x21, x22, [sp, #32]
    100b5cac:	2a0103f6 	mov	w22, w1
    100b5cb0:	540002c8 	b.hi	100b5d08 <send_command_decorated+0x74>  // b.pmore
    100b5cb4:	b0000021 	adrp	x1, 100ba000 <__TEXT_END__>
    100b5cb8:	91212821 	add	x1, x1, #0x84a
    100b5cbc:	78627833 	ldrh	w19, [x1, x2, lsl #1]
    100b5cc0:	f0000054 	adrp	x20, 100c0000 <__STACKS_START__+0x3bc0>
    100b5cc4:	f943de95 	ldr	x21, [x20, #1976]
    100b5cc8:	2a000273 	orr	w19, w19, w0
    100b5ccc:	97ffffda 	bl	100b5c34 <rpi3_sdhost_waitcommand>
    100b5cd0:	b94022a0 	ldr	w0, [x21, #32]
    100b5cd4:	721d101f 	tst	w0, #0xf8
    100b5cd8:	54000040 	b.eq	100b5ce0 <send_command_decorated+0x4c>  // b.none
    100b5cdc:	b90022a0 	str	w0, [x21, #32]
    100b5ce0:	911ee294 	add	x20, x20, #0x7b8
    100b5ce4:	12001660 	and	w0, w19, #0x3f
    100b5ce8:	32110273 	orr	w19, w19, #0x8000
    100b5cec:	b9001680 	str	w0, [x20, #20]
    100b5cf0:	b90006b6 	str	w22, [x21, #4]
    100b5cf4:	b90002b3 	str	w19, [x21]
    100b5cf8:	a94153f3 	ldp	x19, x20, [sp, #16]
    100b5cfc:	a9425bf5 	ldp	x21, x22, [sp, #32]
    100b5d00:	a8c37bfd 	ldp	x29, x30, [sp], #48
    100b5d04:	d65f03c0 	ret
    100b5d08:	52800013 	mov	w19, #0x0                   	// #0
    100b5d0c:	17ffffed 	b	100b5cc0 <send_command_decorated+0x2c>

00000000100b5d10 <rpi3_sdhost_write>:
    100b5d10:	a9bb7bfd 	stp	x29, x30, [sp, #-80]!
    100b5d14:	910003fd 	mov	x29, sp
    100b5d18:	a9025bf5 	stp	x21, x22, [sp, #32]
    100b5d1c:	f0000040 	adrp	x0, 100c0000 <__STACKS_START__+0x3bc0>
    100b5d20:	f943dc16 	ldr	x22, [x0, #1976]
    100b5d24:	927ef455 	and	x21, x2, #0xfffffffffffffffc
    100b5d28:	8b0102b5 	add	x21, x21, x1
    100b5d2c:	a90153f3 	stp	x19, x20, [sp, #16]
    100b5d30:	aa0103f3 	mov	x19, x1
    100b5d34:	aa0003f4 	mov	x20, x0
    100b5d38:	a90363f7 	stp	x23, x24, [sp, #48]
    100b5d3c:	52800017 	mov	w23, #0x0                   	// #0
    100b5d40:	12800ab8 	mov	w24, #0xffffffaa            	// #-86
    100b5d44:	f90023f9 	str	x25, [sp, #64]
    100b5d48:	d2859919 	mov	x25, #0x2cc8                	// #11464
    100b5d4c:	eb1302bf 	cmp	x21, x19
    100b5d50:	540001e1 	b.ne	100b5d8c <rpi3_sdhost_write+0x7c>  // b.any
    100b5d54:	911ee280 	add	x0, x20, #0x7b8
    100b5d58:	b9401400 	ldr	w0, [x0, #20]
    100b5d5c:	7100641f 	cmp	w0, #0x19
    100b5d60:	54000081 	b.ne	100b5d70 <rpi3_sdhost_write+0x60>  // b.any
    100b5d64:	52800001 	mov	w1, #0x0                   	// #0
    100b5d68:	52800180 	mov	w0, #0xc                   	// #12
    100b5d6c:	97ffffca 	bl	100b5c94 <send_command_decorated>
    100b5d70:	2a1703e0 	mov	w0, w23
    100b5d74:	a94153f3 	ldp	x19, x20, [sp, #16]
    100b5d78:	a9425bf5 	ldp	x21, x22, [sp, #32]
    100b5d7c:	a94363f7 	ldp	x23, x24, [sp, #48]
    100b5d80:	f94023f9 	ldr	x25, [sp, #64]
    100b5d84:	a8c57bfd 	ldp	x29, x30, [sp], #80
    100b5d88:	d65f03c0 	ret
    100b5d8c:	b9400260 	ldr	w0, [x19]
    100b5d90:	b90042c0 	str	w0, [x22, #64]
    100b5d94:	b94036c0 	ldr	w0, [x22, #52]
    100b5d98:	12000c00 	and	w0, w0, #0xf
    100b5d9c:	7100341f 	cmp	w0, #0xd
    100b5da0:	54000068 	b.hi	100b5dac <rpi3_sdhost_write+0x9c>  // b.pmore
    100b5da4:	9ac02720 	lsr	x0, x25, x0
    100b5da8:	37000080 	tbnz	w0, #0, 100b5db8 <rpi3_sdhost_write+0xa8>
    100b5dac:	b94022c0 	ldr	w0, [x22, #32]
    100b5db0:	721d101f 	tst	w0, #0xf8
    100b5db4:	1a9802f7 	csel	w23, w23, w24, eq  // eq = none
    100b5db8:	b94036c0 	ldr	w0, [x22, #52]
    100b5dbc:	d3442000 	ubfx	x0, x0, #4, #5
    100b5dc0:	7100101f 	cmp	w0, #0x4
    100b5dc4:	5400006d 	b.le	100b5dd0 <rpi3_sdhost_write+0xc0>
    100b5dc8:	52800c80 	mov	w0, #0x64                  	// #100
    100b5dcc:	97fffcd5 	bl	100b5120 <udelay>
    100b5dd0:	91001273 	add	x19, x19, #0x4
    100b5dd4:	17ffffde 	b	100b5d4c <rpi3_sdhost_write+0x3c>

00000000100b5dd8 <rpi3_sdhost_read>:
    100b5dd8:	a9b87bfd 	stp	x29, x30, [sp, #-128]!
    100b5ddc:	d342fc40 	lsr	x0, x2, #2
    100b5de0:	910003fd 	mov	x29, sp
    100b5de4:	a90153f3 	stp	x19, x20, [sp, #16]
    100b5de8:	52800013 	mov	w19, #0x0                   	// #0
    100b5dec:	a9025bf5 	stp	x21, x22, [sp, #32]
    100b5df0:	f0000054 	adrp	x20, 100c0000 <__STACKS_START__+0x3bc0>
    100b5df4:	f943de96 	ldr	x22, [x20, #1976]
    100b5df8:	a90363f7 	stp	x23, x24, [sp, #48]
    100b5dfc:	aa0103f7 	mov	x23, x1
    100b5e00:	a9046bf9 	stp	x25, x26, [sp, #64]
    100b5e04:	b0000039 	adrp	x25, 100ba000 <__TEXT_END__>
    100b5e08:	9111df39 	add	x25, x25, #0x477
    100b5e0c:	b000003a 	adrp	x26, 100ba000 <__TEXT_END__>
    100b5e10:	91127b5a 	add	x26, x26, #0x49e
    100b5e14:	d2800015 	mov	x21, #0x0                   	// #0
    100b5e18:	a90573fb 	stp	x27, x28, [sp, #80]
    100b5e1c:	5290d41b 	mov	w27, #0x86a0                	// #34464
    100b5e20:	72a0003b 	movk	w27, #0x1, lsl #16
    100b5e24:	f90033e0 	str	x0, [sp, #96]
    100b5e28:	f94033e0 	ldr	x0, [sp, #96]
    100b5e2c:	2a1503fc 	mov	w28, w21
    100b5e30:	eb15001f 	cmp	x0, x21
    100b5e34:	54000201 	b.ne	100b5e74 <rpi3_sdhost_read+0x9c>  // b.any
    100b5e38:	911ee294 	add	x20, x20, #0x7b8
    100b5e3c:	b9401680 	ldr	w0, [x20, #20]
    100b5e40:	7100481f 	cmp	w0, #0x12
    100b5e44:	54000081 	b.ne	100b5e54 <rpi3_sdhost_read+0x7c>  // b.any
    100b5e48:	52800001 	mov	w1, #0x0                   	// #0
    100b5e4c:	52800180 	mov	w0, #0xc                   	// #12
    100b5e50:	97ffff91 	bl	100b5c94 <send_command_decorated>
    100b5e54:	2a1303e0 	mov	w0, w19
    100b5e58:	a94153f3 	ldp	x19, x20, [sp, #16]
    100b5e5c:	a9425bf5 	ldp	x21, x22, [sp, #32]
    100b5e60:	a94363f7 	ldp	x23, x24, [sp, #48]
    100b5e64:	a9446bf9 	ldp	x25, x26, [sp, #64]
    100b5e68:	a94573fb 	ldp	x27, x28, [sp, #80]
    100b5e6c:	a8c87bfd 	ldp	x29, x30, [sp], #128
    100b5e70:	d65f03c0 	ret
    100b5e74:	b9007ffb 	str	w27, [sp, #124]
    100b5e78:	b94022c0 	ldr	w0, [x22, #32]
    100b5e7c:	910082d8 	add	x24, x22, #0x20
    100b5e80:	370000e0 	tbnz	w0, #0, 100b5e9c <rpi3_sdhost_read+0xc4>
    100b5e84:	b9407fe0 	ldr	w0, [sp, #124]
    100b5e88:	35000ac0 	cbnz	w0, 100b5fe0 <rpi3_sdhost_read+0x208>
    100b5e8c:	12800773 	mov	w19, #0xffffffc4            	// #-60
    100b5e90:	2a1b03e1 	mov	w1, w27
    100b5e94:	aa1903e0 	mov	x0, x25
    100b5e98:	94000473 	bl	100b7064 <tf_log>
    100b5e9c:	b9407fe0 	ldr	w0, [sp, #124]
    100b5ea0:	34fffcc0 	cbz	w0, 100b5e38 <rpi3_sdhost_read+0x60>
    100b5ea4:	b94042c5 	ldr	w5, [x22, #64]
    100b5ea8:	b9400300 	ldr	w0, [x24]
    100b5eac:	721d1003 	ands	w3, w0, #0xf8
    100b5eb0:	54000840 	b.eq	100b5fb8 <rpi3_sdhost_read+0x1e0>  // b.none
    100b5eb4:	b9400302 	ldr	w2, [x24]
    100b5eb8:	2a1c03e1 	mov	w1, w28
    100b5ebc:	aa1a03e0 	mov	x0, x26
    100b5ec0:	290d17e3 	stp	w3, w5, [sp, #104]
    100b5ec4:	94000468 	bl	100b7064 <tf_log>
    100b5ec8:	f943de93 	ldr	x19, [x20, #1976]
    100b5ecc:	b0000020 	adrp	x0, 100ba000 <__TEXT_END__>
    100b5ed0:	91132400 	add	x0, x0, #0x4c9
    100b5ed4:	b9400261 	ldr	w1, [x19]
    100b5ed8:	94000463 	bl	100b7064 <tf_log>
    100b5edc:	b9400661 	ldr	w1, [x19, #4]
    100b5ee0:	b0000020 	adrp	x0, 100ba000 <__TEXT_END__>
    100b5ee4:	9113c800 	add	x0, x0, #0x4f2
    100b5ee8:	9400045f 	bl	100b7064 <tf_log>
    100b5eec:	b9400a61 	ldr	w1, [x19, #8]
    100b5ef0:	b0000020 	adrp	x0, 100ba000 <__TEXT_END__>
    100b5ef4:	91146c00 	add	x0, x0, #0x51b
    100b5ef8:	9400045b 	bl	100b7064 <tf_log>
    100b5efc:	b9400e61 	ldr	w1, [x19, #12]
    100b5f00:	b0000020 	adrp	x0, 100ba000 <__TEXT_END__>
    100b5f04:	91151000 	add	x0, x0, #0x544
    100b5f08:	94000457 	bl	100b7064 <tf_log>
    100b5f0c:	b9401261 	ldr	w1, [x19, #16]
    100b5f10:	b0000020 	adrp	x0, 100ba000 <__TEXT_END__>
    100b5f14:	9115b400 	add	x0, x0, #0x56d
    100b5f18:	94000453 	bl	100b7064 <tf_log>
    100b5f1c:	b9401661 	ldr	w1, [x19, #20]
    100b5f20:	b0000020 	adrp	x0, 100ba000 <__TEXT_END__>
    100b5f24:	91165800 	add	x0, x0, #0x596
    100b5f28:	9400044f 	bl	100b7064 <tf_log>
    100b5f2c:	b9401a61 	ldr	w1, [x19, #24]
    100b5f30:	b0000020 	adrp	x0, 100ba000 <__TEXT_END__>
    100b5f34:	9116fc00 	add	x0, x0, #0x5bf
    100b5f38:	9400044b 	bl	100b7064 <tf_log>
    100b5f3c:	b9401e61 	ldr	w1, [x19, #28]
    100b5f40:	b0000020 	adrp	x0, 100ba000 <__TEXT_END__>
    100b5f44:	9117a000 	add	x0, x0, #0x5e8
    100b5f48:	94000447 	bl	100b7064 <tf_log>
    100b5f4c:	b9402261 	ldr	w1, [x19, #32]
    100b5f50:	b0000020 	adrp	x0, 100ba000 <__TEXT_END__>
    100b5f54:	91184400 	add	x0, x0, #0x611
    100b5f58:	94000443 	bl	100b7064 <tf_log>
    100b5f5c:	b9403261 	ldr	w1, [x19, #48]
    100b5f60:	b0000020 	adrp	x0, 100ba000 <__TEXT_END__>
    100b5f64:	9118e800 	add	x0, x0, #0x63a
    100b5f68:	9400043f 	bl	100b7064 <tf_log>
    100b5f6c:	b9403661 	ldr	w1, [x19, #52]
    100b5f70:	b0000020 	adrp	x0, 100ba000 <__TEXT_END__>
    100b5f74:	91198c00 	add	x0, x0, #0x663
    100b5f78:	9400043b 	bl	100b7064 <tf_log>
    100b5f7c:	b9403a61 	ldr	w1, [x19, #56]
    100b5f80:	b0000020 	adrp	x0, 100ba000 <__TEXT_END__>
    100b5f84:	911a3000 	add	x0, x0, #0x68c
    100b5f88:	94000437 	bl	100b7064 <tf_log>
    100b5f8c:	b9403e61 	ldr	w1, [x19, #60]
    100b5f90:	b0000020 	adrp	x0, 100ba000 <__TEXT_END__>
    100b5f94:	911ad400 	add	x0, x0, #0x6b5
    100b5f98:	94000433 	bl	100b7064 <tf_log>
    100b5f9c:	b9405261 	ldr	w1, [x19, #80]
    100b5fa0:	b0000020 	adrp	x0, 100ba000 <__TEXT_END__>
    100b5fa4:	911b7800 	add	x0, x0, #0x6de
    100b5fa8:	12800ab3 	mov	w19, #0xffffffaa            	// #-86
    100b5fac:	9400042e 	bl	100b7064 <tf_log>
    100b5fb0:	294d17e3 	ldp	w3, w5, [sp, #104]
    100b5fb4:	b9000303 	str	w3, [x24]
    100b5fb8:	b4000057 	cbz	x23, 100b5fc0 <rpi3_sdhost_read+0x1e8>
    100b5fbc:	b8357ae5 	str	w5, [x23, x21, lsl #2]
    100b5fc0:	b94036c0 	ldr	w0, [x22, #52]
    100b5fc4:	d3442000 	ubfx	x0, x0, #4, #5
    100b5fc8:	7100181f 	cmp	w0, #0x6
    100b5fcc:	5400006c 	b.gt	100b5fd8 <rpi3_sdhost_read+0x200>
    100b5fd0:	52800c80 	mov	w0, #0x64                  	// #100
    100b5fd4:	97fffc53 	bl	100b5120 <udelay>
    100b5fd8:	910006b5 	add	x21, x21, #0x1
    100b5fdc:	17ffff93 	b	100b5e28 <rpi3_sdhost_read+0x50>
    100b5fe0:	b9407fe0 	ldr	w0, [sp, #124]
    100b5fe4:	51000400 	sub	w0, w0, #0x1
    100b5fe8:	b9007fe0 	str	w0, [sp, #124]
    100b5fec:	52800140 	mov	w0, #0xa                   	// #10
    100b5ff0:	97fffc4c 	bl	100b5120 <udelay>
    100b5ff4:	17ffffa1 	b	100b5e78 <rpi3_sdhost_read+0xa0>

00000000100b5ff8 <rpi3_sdhost_set_ios>:
    100b5ff8:	f0000043 	adrp	x3, 100c0000 <__STACKS_START__+0x3bc0>
    100b5ffc:	f943dc64 	ldr	x4, [x3, #1976]
    100b6000:	5290d3e2 	mov	w2, #0x869f                	// #34463
    100b6004:	72a00022 	movk	w2, #0x1, lsl #16
    100b6008:	6b02001f 	cmp	w0, w2
    100b600c:	540001a8 	b.hi	100b6040 <rpi3_sdhost_set_ios+0x48>  // b.pmore
    100b6010:	5280ffe0 	mov	w0, #0x7ff                 	// #2047
    100b6014:	b9000c80 	str	w0, [x4, #12]
    100b6018:	7100043f 	cmp	w1, #0x1
    100b601c:	54000429 	b.ls	100b60a0 <rpi3_sdhost_set_ios+0xa8>  // b.plast
    100b6020:	a9bf7bfd 	stp	x29, x30, [sp, #-16]!
    100b6024:	90000020 	adrp	x0, 100ba000 <__TEXT_END__>
    100b6028:	911c1c00 	add	x0, x0, #0x707
    100b602c:	910003fd 	mov	x29, sp
    100b6030:	9400040d 	bl	100b7064 <tf_log>
    100b6034:	12800580 	mov	w0, #0xffffffd3            	// #-45
    100b6038:	a8c17bfd 	ldp	x29, x30, [sp], #16
    100b603c:	d65f03c0 	ret
    100b6040:	52965005 	mov	w5, #0xb280                	// #45696
    100b6044:	72a1dcc5 	movk	w5, #0xee6, lsl #16
    100b6048:	52800046 	mov	w6, #0x2                   	// #2
    100b604c:	1ac008a2 	udiv	w2, w5, w0
    100b6050:	7100085f 	cmp	w2, #0x2
    100b6054:	1a862042 	csel	w2, w2, w6, cs  // cs = hs, nlast
    100b6058:	1ac208a6 	udiv	w6, w5, w2
    100b605c:	6b06001f 	cmp	w0, w6
    100b6060:	5280ffe0 	mov	w0, #0x7ff                 	// #2047
    100b6064:	1a822442 	cinc	w2, w2, cc  // cc = lo, ul, last
    100b6068:	911ee066 	add	x6, x3, #0x7b8
    100b606c:	51000842 	sub	w2, w2, #0x2
    100b6070:	711ffc5f 	cmp	w2, #0x7ff
    100b6074:	1a809042 	csel	w2, w2, w0, ls  // ls = plast
    100b6078:	11000840 	add	w0, w2, #0x2
    100b607c:	1ac008a5 	udiv	w5, w5, w0
    100b6080:	52994000 	mov	w0, #0xca00                	// #51712
    100b6084:	72a77340 	movk	w0, #0x3b9a, lsl #16
    100b6088:	b90008c5 	str	w5, [x6, #8]
    100b608c:	1ac50805 	udiv	w5, w0, w5
    100b6090:	531d70a5 	lsl	w5, w5, #3
    100b6094:	b9001cc5 	str	w5, [x6, #28]
    100b6098:	b9000c82 	str	w2, [x4, #12]
    100b609c:	17ffffdf 	b	100b6018 <rpi3_sdhost_set_ios+0x20>
    100b60a0:	911ee063 	add	x3, x3, #0x7b8
    100b60a4:	b9000c61 	str	w1, [x3, #12]
    100b60a8:	b9403880 	ldr	w0, [x4, #56]
    100b60ac:	121d7800 	and	w0, w0, #0xfffffffb
    100b60b0:	2a0003e1 	mov	w1, w0
    100b60b4:	321e0000 	orr	w0, w0, #0x4
    100b60b8:	1a810000 	csel	w0, w0, w1, eq  // eq = none
    100b60bc:	b9003880 	str	w0, [x4, #56]
    100b60c0:	52800141 	mov	w1, #0xa                   	// #10
    100b60c4:	b9403880 	ldr	w0, [x4, #56]
    100b60c8:	2a010000 	orr	w0, w0, w1
    100b60cc:	b9003880 	str	w0, [x4, #56]
    100b60d0:	52800000 	mov	w0, #0x0                   	// #0
    100b60d4:	d65f03c0 	ret

00000000100b60d8 <rpi3_drain_fifo>:
    100b60d8:	a9bd7bfd 	stp	x29, x30, [sp, #-48]!
    100b60dc:	910003fd 	mov	x29, sp
    100b60e0:	f9000bf3 	str	x19, [sp, #16]
    100b60e4:	d0000040 	adrp	x0, 100c0000 <__STACKS_START__+0x3bc0>
    100b60e8:	f943dc13 	ldr	x19, [x0, #1976]
    100b60ec:	5290d400 	mov	w0, #0x86a0                	// #34464
    100b60f0:	72a00020 	movk	w0, #0x1, lsl #16
    100b60f4:	b9002fe0 	str	w0, [sp, #44]
    100b60f8:	97fffecf 	bl	100b5c34 <rpi3_sdhost_waitcommand>
    100b60fc:	b9402260 	ldr	w0, [x19, #32]
    100b6100:	370001a0 	tbnz	w0, #0, 100b6134 <rpi3_drain_fifo+0x5c>
    100b6104:	b9403660 	ldr	w0, [x19, #52]
    100b6108:	9100d262 	add	x2, x19, #0x34
    100b610c:	12000c01 	and	w1, w0, #0xf
    100b6110:	721f081f 	tst	w0, #0xe
    100b6114:	540000a0 	b.eq	100b6128 <rpi3_drain_fifo+0x50>  // b.none
    100b6118:	7100103f 	cmp	w1, #0x4
    100b611c:	54000141 	b.ne	100b6144 <rpi3_drain_fifo+0x6c>  // b.any
    100b6120:	320e0000 	orr	w0, w0, #0x40000
    100b6124:	b9000040 	str	w0, [x2]
    100b6128:	f9400bf3 	ldr	x19, [sp, #16]
    100b612c:	a8c37bfd 	ldp	x29, x30, [sp], #48
    100b6130:	d65f03c0 	ret
    100b6134:	b9404260 	ldr	w0, [x19, #64]
    100b6138:	52800c80 	mov	w0, #0x64                  	// #100
    100b613c:	97fffbf9 	bl	100b5120 <udelay>
    100b6140:	17ffffef 	b	100b60fc <rpi3_drain_fifo+0x24>
    100b6144:	12000801 	and	w1, w0, #0x7
    100b6148:	7100083f 	cmp	w1, #0x2
    100b614c:	54fffea0 	b.eq	100b6120 <rpi3_drain_fifo+0x48>  // b.none
    100b6150:	b9402fe0 	ldr	w0, [sp, #44]
    100b6154:	51000400 	sub	w0, w0, #0x1
    100b6158:	b9002fe0 	str	w0, [sp, #44]
    100b615c:	7100001f 	cmp	w0, #0x0
    100b6160:	54fffd2c 	b.gt	100b6104 <rpi3_drain_fifo+0x2c>
    100b6164:	f9400bf3 	ldr	x19, [sp, #16]
    100b6168:	90000021 	adrp	x1, 100ba000 <__TEXT_END__>
    100b616c:	9122c821 	add	x1, x1, #0x8b2
    100b6170:	90000020 	adrp	x0, 100ba000 <__TEXT_END__>
    100b6174:	911cb400 	add	x0, x0, #0x72d
    100b6178:	a8c37bfd 	ldp	x29, x30, [sp], #48
    100b617c:	140003ba 	b	100b7064 <tf_log>

00000000100b6180 <rpi3_sdhost_prepare>:
    100b6180:	a9bd7bfd 	stp	x29, x30, [sp, #-48]!
    100b6184:	f107fc5f 	cmp	x2, #0x1ff
    100b6188:	910003fd 	mov	x29, sp
    100b618c:	a90153f3 	stp	x19, x20, [sp, #16]
    100b6190:	aa0203f3 	mov	x19, x2
    100b6194:	f90013f5 	str	x21, [sp, #32]
    100b6198:	d0000040 	adrp	x0, 100c0000 <__STACKS_START__+0x3bc0>
    100b619c:	f943dc15 	ldr	x21, [x0, #1976]
    100b61a0:	540000e9 	b.ls	100b61bc <rpi3_sdhost_prepare+0x3c>  // b.plast
    100b61a4:	d349fc54 	lsr	x20, x2, #9
    100b61a8:	f240205f 	tst	x2, #0x1ff
    100b61ac:	54000040 	b.eq	100b61b4 <rpi3_sdhost_prepare+0x34>  // b.none
    100b61b0:	91000694 	add	x20, x20, #0x1
    100b61b4:	d2804013 	mov	x19, #0x200                 	// #512
    100b61b8:	14000002 	b	100b61c0 <rpi3_sdhost_prepare+0x40>
    100b61bc:	d2800034 	mov	x20, #0x1                   	// #1
    100b61c0:	97ffffc6 	bl	100b60d8 <rpi3_drain_fifo>
    100b61c4:	b9003eb3 	str	w19, [x21, #60]
    100b61c8:	b90052b4 	str	w20, [x21, #80]
    100b61cc:	52800c80 	mov	w0, #0x64                  	// #100
    100b61d0:	97fffbd4 	bl	100b5120 <udelay>
    100b61d4:	52800000 	mov	w0, #0x0                   	// #0
    100b61d8:	a94153f3 	ldp	x19, x20, [sp, #16]
    100b61dc:	f94013f5 	ldr	x21, [sp, #32]
    100b61e0:	a8c37bfd 	ldp	x29, x30, [sp], #48
    100b61e4:	d65f03c0 	ret

00000000100b61e8 <rpi3_sdhost_send_cmd>:
    100b61e8:	a9bb7bfd 	stp	x29, x30, [sp, #-80]!
    100b61ec:	910003fd 	mov	x29, sp
    100b61f0:	a90153f3 	stp	x19, x20, [sp, #16]
    100b61f4:	a9025bf5 	stp	x21, x22, [sp, #32]
    100b61f8:	aa0003f5 	mov	x21, x0
    100b61fc:	d0000040 	adrp	x0, 100c0000 <__STACKS_START__+0x3bc0>
    100b6200:	911ee014 	add	x20, x0, #0x7b8
    100b6204:	a90363f7 	stp	x23, x24, [sp, #48]
    100b6208:	f90023f9 	str	x25, [sp, #64]
    100b620c:	f943dc19 	ldr	x25, [x0, #1976]
    100b6210:	97fffe89 	bl	100b5c34 <rpi3_sdhost_waitcommand>
    100b6214:	2a0003f3 	mov	w19, w0
    100b6218:	34000160 	cbz	w0, 100b6244 <rpi3_sdhost_send_cmd+0x5c>
    100b621c:	90000020 	adrp	x0, 100ba000 <__TEXT_END__>
    100b6220:	911d4c00 	add	x0, x0, #0x753
    100b6224:	94000390 	bl	100b7064 <tf_log>
    100b6228:	2a1303e0 	mov	w0, w19
    100b622c:	a94153f3 	ldp	x19, x20, [sp, #16]
    100b6230:	a9425bf5 	ldp	x21, x22, [sp, #32]
    100b6234:	a94363f7 	ldp	x23, x24, [sp, #48]
    100b6238:	f94023f9 	ldr	x25, [sp, #64]
    100b623c:	a8c57bfd 	ldp	x29, x30, [sp], #80
    100b6240:	d65f03c0 	ret
    100b6244:	294062b6 	ldp	w22, w24, [x21]
    100b6248:	120016d6 	and	w22, w22, #0x3f
    100b624c:	7100cedf 	cmp	w22, #0x33
    100b6250:	54000321 	b.ne	100b62b4 <rpi3_sdhost_send_cmd+0xcc>  // b.any
    100b6254:	b9401680 	ldr	w0, [x20, #20]
    100b6258:	7100dc1f 	cmp	w0, #0x37
    100b625c:	54000180 	b.eq	100b628c <rpi3_sdhost_send_cmd+0xa4>  // b.none
    100b6260:	b9402281 	ldr	w1, [x20, #32]
    100b6264:	528006e0 	mov	w0, #0x37                  	// #55
    100b6268:	53103c21 	lsl	w1, w1, #16
    100b626c:	97fffe8a 	bl	100b5c94 <send_command_decorated>
    100b6270:	52800020 	mov	w0, #0x1                   	// #1
    100b6274:	39006680 	strb	w0, [x20, #25]
    100b6278:	97fffe6f 	bl	100b5c34 <rpi3_sdhost_waitcommand>
    100b627c:	d2800102 	mov	x2, #0x8                   	// #8
    100b6280:	d2800001 	mov	x1, #0x0                   	// #0
    100b6284:	52800000 	mov	w0, #0x0                   	// #0
    100b6288:	97ffffbe 	bl	100b6180 <rpi3_sdhost_prepare>
    100b628c:	b9400aa0 	ldr	w0, [x21, #8]
    100b6290:	52800241 	mov	w1, #0x12                  	// #18
    100b6294:	0a010001 	and	w1, w0, w1
    100b6298:	7100483f 	cmp	w1, #0x12
    100b629c:	54000121 	b.ne	100b62c0 <rpi3_sdhost_send_cmd+0xd8>  // b.any
    100b62a0:	90000020 	adrp	x0, 100ba000 <__TEXT_END__>
    100b62a4:	911dcc00 	add	x0, x0, #0x773
    100b62a8:	12800593 	mov	w19, #0xffffffd3            	// #-45
    100b62ac:	9400036e 	bl	100b7064 <tf_log>
    100b62b0:	17ffffde 	b	100b6228 <rpi3_sdhost_send_cmd+0x40>
    100b62b4:	710032df 	cmp	w22, #0xc
    100b62b8:	54fffea1 	b.ne	100b628c <rpi3_sdhost_send_cmd+0xa4>  // b.any
    100b62bc:	17ffffdb 	b	100b6228 <rpi3_sdhost_send_cmd+0x40>
    100b62c0:	36000800 	tbz	w0, #0, 100b63c0 <rpi3_sdhost_send_cmd+0x1d8>
    100b62c4:	71001c1f 	cmp	w0, #0x7
    100b62c8:	1a9f17f7 	cset	w23, eq  // eq = none
    100b62cc:	53175af7 	lsl	w23, w23, #9
    100b62d0:	37200820 	tbnz	w0, #4, 100b63d4 <rpi3_sdhost_send_cmd+0x1ec>
    100b62d4:	3900629f 	strb	wzr, [x20, #24]
    100b62d8:	39406680 	ldrb	w0, [x20, #25]
    100b62dc:	34000100 	cbz	w0, 100b62fc <rpi3_sdhost_send_cmd+0x114>
    100b62e0:	7100a6df 	cmp	w22, #0x29
    100b62e4:	540000a1 	b.ne	100b62f8 <rpi3_sdhost_send_cmd+0x110>  // b.any
    100b62e8:	52a80000 	mov	w0, #0x40000000            	// #1073741824
    100b62ec:	6b00031f 	cmp	w24, w0
    100b62f0:	52a80400 	mov	w0, #0x40200000            	// #1075838976
    100b62f4:	1a801318 	csel	w24, w24, w0, ne  // ne = any
    100b62f8:	3900669f 	strb	wzr, [x20, #25]
    100b62fc:	7100dedf 	cmp	w22, #0x37
    100b6300:	54000061 	b.ne	100b630c <rpi3_sdhost_send_cmd+0x124>  // b.any
    100b6304:	52800020 	mov	w0, #0x1                   	// #1
    100b6308:	39006680 	strb	w0, [x20, #25]
    100b630c:	2a1803e1 	mov	w1, w24
    100b6310:	2a1602e0 	orr	w0, w23, w22
    100b6314:	97fffe60 	bl	100b5c94 <send_command_decorated>
    100b6318:	39406281 	ldrb	w1, [x20, #24]
    100b631c:	b9402320 	ldr	w0, [x25, #32]
    100b6320:	340000a1 	cbz	w1, 100b6334 <rpi3_sdhost_send_cmd+0x14c>
    100b6324:	36500080 	tbz	w0, #10, 100b6334 <rpi3_sdhost_send_cmd+0x14c>
    100b6328:	52808000 	mov	w0, #0x400                 	// #1024
    100b632c:	b9002320 	str	w0, [x25, #32]
    100b6330:	3900629f 	strb	wzr, [x20, #24]
    100b6334:	375000f7 	tbnz	w23, #10, 100b6350 <rpi3_sdhost_send_cmd+0x168>
    100b6338:	97fffe3f 	bl	100b5c34 <rpi3_sdhost_waitcommand>
    100b633c:	2a0003f3 	mov	w19, w0
    100b6340:	34000080 	cbz	w0, 100b6350 <rpi3_sdhost_send_cmd+0x168>
    100b6344:	90000020 	adrp	x0, 100ba000 <__TEXT_END__>
    100b6348:	911e7400 	add	x0, x0, #0x79d
    100b634c:	94000346 	bl	100b7064 <tf_log>
    100b6350:	b9401320 	ldr	w0, [x25, #16]
    100b6354:	b9000ea0 	str	w0, [x21, #12]
    100b6358:	b9401720 	ldr	w0, [x25, #20]
    100b635c:	b90012a0 	str	w0, [x21, #16]
    100b6360:	b9401b20 	ldr	w0, [x25, #24]
    100b6364:	b90016a0 	str	w0, [x21, #20]
    100b6368:	b9401f20 	ldr	w0, [x25, #28]
    100b636c:	b9001aa0 	str	w0, [x21, #24]
    100b6370:	b9400320 	ldr	w0, [x25]
    100b6374:	367001a0 	tbz	w0, #14, 100b63a8 <rpi3_sdhost_send_cmd+0x1c0>
    100b6378:	b9402337 	ldr	w23, [x25, #32]
    100b637c:	52801f00 	mov	w0, #0xf8                  	// #248
    100b6380:	b9002320 	str	w0, [x25, #32]
    100b6384:	36200077 	tbz	w23, #4, 100b6390 <rpi3_sdhost_send_cmd+0x1a8>
    100b6388:	710006df 	cmp	w22, #0x1
    100b638c:	540000e0 	b.eq	100b63a8 <rpi3_sdhost_send_cmd+0x1c0>  // b.none
    100b6390:	363002b7 	tbz	w23, #6, 100b63e4 <rpi3_sdhost_send_cmd+0x1fc>
    100b6394:	12800773 	mov	w19, #0xffffffc4            	// #-60
    100b6398:	2a1703e1 	mov	w1, w23
    100b639c:	90000020 	adrp	x0, 100ba000 <__TEXT_END__>
    100b63a0:	911f0c00 	add	x0, x0, #0x7c3
    100b63a4:	94000330 	bl	100b7064 <tf_log>
    100b63a8:	7100027f 	cmp	w19, #0x0
    100b63ac:	7a430ac0 	ccmp	w22, #0x3, #0x0, eq  // eq = none
    100b63b0:	54fff3c1 	b.ne	100b6228 <rpi3_sdhost_send_cmd+0x40>  // b.any
    100b63b4:	79401ea0 	ldrh	w0, [x21, #14]
    100b63b8:	b9002280 	str	w0, [x20, #32]
    100b63bc:	17ffff9b 	b	100b6228 <rpi3_sdhost_send_cmd+0x40>
    100b63c0:	f27f001f 	tst	x0, #0x2
    100b63c4:	52804017 	mov	w23, #0x200                 	// #512
    100b63c8:	52808001 	mov	w1, #0x400                 	// #1024
    100b63cc:	1a8112f7 	csel	w23, w23, w1, ne  // ne = any
    100b63d0:	17ffffc0 	b	100b62d0 <rpi3_sdhost_send_cmd+0xe8>
    100b63d4:	52800020 	mov	w0, #0x1                   	// #1
    100b63d8:	321502f7 	orr	w23, w23, #0x800
    100b63dc:	39006280 	strb	w0, [x20, #24]
    100b63e0:	17ffffbe 	b	100b62d8 <rpi3_sdhost_send_cmd+0xf0>
    100b63e4:	b9400321 	ldr	w1, [x25]
    100b63e8:	90000020 	adrp	x0, 100ba000 <__TEXT_END__>
    100b63ec:	911f9800 	add	x0, x0, #0x7e6
    100b63f0:	12800ab3 	mov	w19, #0xffffffaa            	// #-86
    100b63f4:	9400031c 	bl	100b7064 <tf_log>
    100b63f8:	2a1703e1 	mov	w1, w23
    100b63fc:	90000020 	adrp	x0, 100ba000 <__TEXT_END__>
    100b6400:	91203400 	add	x0, x0, #0x80d
    100b6404:	94000318 	bl	100b7064 <tf_log>
    100b6408:	17ffffe8 	b	100b63a8 <rpi3_sdhost_send_cmd+0x1c0>

00000000100b640c <rpi3_sdhost_initialize>:
    100b640c:	a9be7bfd 	stp	x29, x30, [sp, #-32]!
    100b6410:	910003fd 	mov	x29, sp
    100b6414:	a90153f3 	stp	x19, x20, [sp, #16]
    100b6418:	d0000040 	adrp	x0, 100c0000 <__STACKS_START__+0x3bc0>
    100b641c:	f943dc13 	ldr	x19, [x0, #1976]
    100b6420:	f240227f 	tst	x19, #0x1ff
    100b6424:	540000a0 	b.eq	100b6438 <rpi3_sdhost_initialize+0x2c>  // b.none
    100b6428:	90000020 	adrp	x0, 100ba000 <__TEXT_END__>
    100b642c:	9120a000 	add	x0, x0, #0x828
    100b6430:	52801f41 	mov	w1, #0xfa                  	// #250
    100b6434:	940008ef 	bl	100b87f0 <__assert>
    100b6438:	b900327f 	str	wzr, [x19, #48]
    100b643c:	911ee014 	add	x20, x0, #0x7b8
    100b6440:	b900027f 	str	wzr, [x19]
    100b6444:	52a01e00 	mov	w0, #0xf00000              	// #15728640
    100b6448:	b900067f 	str	wzr, [x19, #4]
    100b644c:	52810001 	mov	w1, #0x800                 	// #2048
    100b6450:	72a00021 	movk	w1, #0x1, lsl #16
    100b6454:	b9000a60 	str	w0, [x19, #8]
    100b6458:	b9000e7f 	str	wzr, [x19, #12]
    100b645c:	529fffe0 	mov	w0, #0xffff                	// #65535
    100b6460:	b9002260 	str	w0, [x19, #32]
    100b6464:	b9003a7f 	str	wzr, [x19, #56]
    100b6468:	b9003e7f 	str	wzr, [x19, #60]
    100b646c:	b900527f 	str	wzr, [x19, #80]
    100b6470:	b9403660 	ldr	w0, [x19, #52]
    100b6474:	120d5400 	and	w0, w0, #0xfff801ff
    100b6478:	2a010000 	orr	w0, w0, w1
    100b647c:	b9003660 	str	w0, [x19, #52]
    100b6480:	52801f40 	mov	w0, #0xfa                  	// #250
    100b6484:	97fffb51 	bl	100b51c8 <mdelay>
    100b6488:	52800020 	mov	w0, #0x1                   	// #1
    100b648c:	b9003260 	str	w0, [x19, #48]
    100b6490:	52801f40 	mov	w0, #0xfa                  	// #250
    100b6494:	97fffb4d 	bl	100b51c8 <mdelay>
    100b6498:	b9000a9f 	str	wzr, [x20, #8]
    100b649c:	5280ffe0 	mov	w0, #0x7ff                 	// #2047
    100b64a0:	b9000e60 	str	w0, [x19, #12]
    100b64a4:	b9403a60 	ldr	w0, [x19, #56]
    100b64a8:	32160000 	orr	w0, w0, #0x400
    100b64ac:	b9003a60 	str	w0, [x19, #56]
    100b64b0:	52804f60 	mov	w0, #0x27b                 	// #635
    100b64b4:	b9000e60 	str	w0, [x19, #12]
    100b64b8:	a94153f3 	ldp	x19, x20, [sp, #16]
    100b64bc:	52802580 	mov	w0, #0x12c                 	// #300
    100b64c0:	a8c27bfd 	ldp	x29, x30, [sp], #32
    100b64c4:	17fffb17 	b	100b5120 <udelay>

00000000100b64c8 <rpi3_sdhost_init>:
    100b64c8:	a9bd7bfd 	stp	x29, x30, [sp, #-48]!
    100b64cc:	910003fd 	mov	x29, sp
    100b64d0:	a90153f3 	stp	x19, x20, [sp, #16]
    100b64d4:	a9025bf5 	stp	x21, x22, [sp, #32]
    100b64d8:	b40000a0 	cbz	x0, 100b64ec <rpi3_sdhost_init+0x24>
    100b64dc:	aa0003f3 	mov	x19, x0
    100b64e0:	f9400000 	ldr	x0, [x0]
    100b64e4:	f240201f 	tst	x0, #0x1ff
    100b64e8:	540000a0 	b.eq	100b64fc <rpi3_sdhost_init+0x34>  // b.none
    100b64ec:	90000020 	adrp	x0, 100ba000 <__TEXT_END__>
    100b64f0:	9120a000 	add	x0, x0, #0x828
    100b64f4:	52804a01 	mov	w1, #0x250                 	// #592
    100b64f8:	940008be 	bl	100b87f0 <__assert>
    100b64fc:	d2800614 	mov	x20, #0x30                  	// #48
    100b6500:	d0000055 	adrp	x21, 100c0000 <__STACKS_START__+0x3bc0>
    100b6504:	911ee2b5 	add	x21, x21, #0x7b8
    100b6508:	aa0103f6 	mov	x22, x1
    100b650c:	aa1503e0 	mov	x0, x21
    100b6510:	aa1303e1 	mov	x1, x19
    100b6514:	d2800802 	mov	x2, #0x40                  	// #64
    100b6518:	940008cf 	bl	100b8854 <memcpy>
    100b651c:	2a1403e0 	mov	w0, w20
    100b6520:	97fffb9f 	bl	100b539c <rpi3_gpio_get_select>
    100b6524:	8b140aa1 	add	x1, x21, x20, lsl #2
    100b6528:	91000694 	add	x20, x20, #0x1
    100b652c:	f100da9f 	cmp	x20, #0x36
    100b6530:	b8164020 	stur	w0, [x1, #-156]
    100b6534:	54ffff41 	b.ne	100b651c <rpi3_sdhost_init+0x54>  // b.any
    100b6538:	52800634 	mov	w20, #0x31                  	// #49
    100b653c:	52800001 	mov	w1, #0x0                   	// #0
    100b6540:	52800600 	mov	w0, #0x30                  	// #48
    100b6544:	97ffface 	bl	100b507c <gpio_set_pull>
    100b6548:	2a1403e0 	mov	w0, w20
    100b654c:	52800021 	mov	w1, #0x1                   	// #1
    100b6550:	11000694 	add	w20, w20, #0x1
    100b6554:	97fffaca 	bl	100b507c <gpio_set_pull>
    100b6558:	7100da9f 	cmp	w20, #0x36
    100b655c:	54ffff61 	b.ne	100b6548 <rpi3_sdhost_init+0x80>  // b.any
    100b6560:	52800614 	mov	w20, #0x30                  	// #48
    100b6564:	2a1403e0 	mov	w0, w20
    100b6568:	52800081 	mov	w1, #0x4                   	// #4
    100b656c:	11000694 	add	w20, w20, #0x1
    100b6570:	97fffb9d 	bl	100b53e4 <rpi3_gpio_set_select>
    100b6574:	7100da9f 	cmp	w20, #0x36
    100b6578:	54ffff61 	b.ne	100b6564 <rpi3_sdhost_init+0x9c>  // b.any
    100b657c:	29410a61 	ldp	w1, w2, [x19, #8]
    100b6580:	aa1603e4 	mov	x4, x22
    100b6584:	b9401263 	ldr	w3, [x19, #16]
    100b6588:	90000020 	adrp	x0, 100ba000 <__TEXT_END__>
    100b658c:	91232000 	add	x0, x0, #0x8c8
    100b6590:	a94153f3 	ldp	x19, x20, [sp, #16]
    100b6594:	a9425bf5 	ldp	x21, x22, [sp, #32]
    100b6598:	a8c37bfd 	ldp	x29, x30, [sp], #48
    100b659c:	17fffc20 	b	100b561c <mmc_init>

00000000100b65a0 <rpi3_sdhost_stop>:
    100b65a0:	a9be7bfd 	stp	x29, x30, [sp, #-32]!
    100b65a4:	910003fd 	mov	x29, sp
    100b65a8:	a90153f3 	stp	x19, x20, [sp, #16]
    100b65ac:	d0000054 	adrp	x20, 100c0000 <__STACKS_START__+0x3bc0>
    100b65b0:	f943de93 	ldr	x19, [x20, #1976]
    100b65b4:	97fffec9 	bl	100b60d8 <rpi3_drain_fifo>
    100b65b8:	52802900 	mov	w0, #0x148                 	// #328
    100b65bc:	911ee294 	add	x20, x20, #0x7b8
    100b65c0:	b9000e60 	str	w0, [x19, #12]
    100b65c4:	52803e80 	mov	w0, #0x1f4                 	// #500
    100b65c8:	97fffad6 	bl	100b5120 <udelay>
    100b65cc:	52800001 	mov	w1, #0x0                   	// #0
    100b65d0:	52800000 	mov	w0, #0x0                   	// #0
    100b65d4:	97fffdb0 	bl	100b5c94 <send_command_decorated>
    100b65d8:	52803e80 	mov	w0, #0x1f4                 	// #500
    100b65dc:	97fffad1 	bl	100b5120 <udelay>
    100b65e0:	b900027f 	str	wzr, [x19]
    100b65e4:	52a01400 	mov	w0, #0xa00000              	// #10485760
    100b65e8:	b900067f 	str	wzr, [x19, #4]
    100b65ec:	b9000a60 	str	w0, [x19, #8]
    100b65f0:	52803f60 	mov	w0, #0x1fb                 	// #507
    100b65f4:	b9000e60 	str	w0, [x19, #12]
    100b65f8:	52800c80 	mov	w0, #0x64                  	// #100
    100b65fc:	97fffac9 	bl	100b5120 <udelay>
    100b6600:	b900327f 	str	wzr, [x19, #48]
    100b6604:	b9003a7f 	str	wzr, [x19, #56]
    100b6608:	52808000 	mov	w0, #0x400                 	// #1024
    100b660c:	b9003e60 	str	w0, [x19, #60]
    100b6610:	5280ff00 	mov	w0, #0x7f8                 	// #2040
    100b6614:	b900527f 	str	wzr, [x19, #80]
    100b6618:	b9002260 	str	w0, [x19, #32]
    100b661c:	52800c80 	mov	w0, #0x64                  	// #100
    100b6620:	b900027f 	str	wzr, [x19]
    100b6624:	b900067f 	str	wzr, [x19, #4]
    100b6628:	d2800613 	mov	x19, #0x30                  	// #48
    100b662c:	97fffabd 	bl	100b5120 <udelay>
    100b6630:	8b130a80 	add	x0, x20, x19, lsl #2
    100b6634:	b8564001 	ldur	w1, [x0, #-156]
    100b6638:	2a1303e0 	mov	w0, w19
    100b663c:	91000673 	add	x19, x19, #0x1
    100b6640:	97fffb69 	bl	100b53e4 <rpi3_gpio_set_select>
    100b6644:	f100da7f 	cmp	x19, #0x36
    100b6648:	54ffff41 	b.ne	100b6630 <rpi3_sdhost_stop+0x90>  // b.any
    100b664c:	52800613 	mov	w19, #0x30                  	// #48
    100b6650:	2a1303e0 	mov	w0, w19
    100b6654:	52800021 	mov	w1, #0x1                   	// #1
    100b6658:	11000673 	add	w19, w19, #0x1
    100b665c:	97fffa88 	bl	100b507c <gpio_set_pull>
    100b6660:	7100da7f 	cmp	w19, #0x36
    100b6664:	54ffff61 	b.ne	100b6650 <rpi3_sdhost_stop+0xb0>  // b.any
    100b6668:	a94153f3 	ldp	x19, x20, [sp, #16]
    100b666c:	a8c27bfd 	ldp	x29, x30, [sp], #32
    100b6670:	d65f03c0 	ret

00000000100b6674 <bl2_early_platform_setup2>:
    100b6674:	a9ba7bfd 	stp	x29, x30, [sp, #-96]!
    100b6678:	528ca000 	mov	w0, #0x6500                	// #25856
    100b667c:	72a3b9a0 	movk	w0, #0x1dcd, lsl #16
    100b6680:	910003fd 	mov	x29, sp
    100b6684:	f9000bf3 	str	x19, [sp, #16]
    100b6688:	aa0103f3 	mov	x19, x1
    100b668c:	940003b1 	bl	100b7550 <rpi3_console_init>
    100b6690:	97fffaec 	bl	100b5240 <generic_delay_timer_init>
    100b6694:	d2800102 	mov	x2, #0x8                   	// #8
    100b6698:	52800001 	mov	w1, #0x0                   	// #0
    100b669c:	910083e0 	add	x0, sp, #0x20
    100b66a0:	94000882 	bl	100b88a8 <memset>
    100b66a4:	d2a7e400 	mov	x0, #0x3f200000            	// #1059061760
    100b66a8:	f90013e0 	str	x0, [sp, #32]
    100b66ac:	910083e0 	add	x0, sp, #0x20
    100b66b0:	97fffb65 	bl	100b5444 <rpi3_gpio_init>
    100b66b4:	d0000040 	adrp	x0, 100c0000 <__STACKS_START__+0x3bc0>
    100b66b8:	91110001 	add	x1, x0, #0x440
    100b66bc:	f9400262 	ldr	x2, [x19]
    100b66c0:	f9022002 	str	x2, [x0, #1088]
    100b66c4:	f9400660 	ldr	x0, [x19, #8]
    100b66c8:	d2800802 	mov	x2, #0x40                  	// #64
    100b66cc:	f9000420 	str	x0, [x1, #8]
    100b66d0:	910083e0 	add	x0, sp, #0x20
    100b66d4:	52800001 	mov	w1, #0x0                   	// #0
    100b66d8:	94000874 	bl	100b88a8 <memset>
    100b66dc:	d2840000 	mov	x0, #0x2000                	// #8192
    100b66e0:	f2a7e400 	movk	x0, #0x3f20, lsl #16
    100b66e4:	d0000041 	adrp	x1, 100c0000 <__STACKS_START__+0x3bc0>
    100b66e8:	911fe021 	add	x1, x1, #0x7f8
    100b66ec:	f90013e0 	str	x0, [sp, #32]
    100b66f0:	d29e1000 	mov	x0, #0xf080                	// #61568
    100b66f4:	f2a05f40 	movk	x0, #0x2fa, lsl #16
    100b66f8:	f90017e0 	str	x0, [sp, #40]
    100b66fc:	52800040 	mov	w0, #0x2                   	// #2
    100b6700:	b9001420 	str	w0, [x1, #20]
    100b6704:	910083e0 	add	x0, sp, #0x20
    100b6708:	97ffff70 	bl	100b64c8 <rpi3_sdhost_init>
    100b670c:	94000080 	bl	100b690c <plat_rpi3_io_setup>
    100b6710:	f9400bf3 	ldr	x19, [sp, #16]
    100b6714:	a8c67bfd 	ldp	x29, x30, [sp], #96
    100b6718:	d65f03c0 	ret

00000000100b671c <bl2_platform_setup>:
    100b671c:	d65f03c0 	ret

00000000100b6720 <bl2_plat_arch_setup>:
    100b6720:	d0000040 	adrp	x0, 100c0000 <__STACKS_START__+0x3bc0>
    100b6724:	91110001 	add	x1, x0, #0x440
    100b6728:	a9bf7bfd 	stp	x29, x30, [sp, #-16]!
    100b672c:	f0000067 	adrp	x7, 100c5000 <__BL2_END__>
    100b6730:	910000e7 	add	x7, x7, #0x0
    100b6734:	910003fd 	mov	x29, sp
    100b6738:	f9422000 	ldr	x0, [x0, #1088]
    100b673c:	f0000066 	adrp	x6, 100c5000 <__BL2_END__>
    100b6740:	910000c6 	add	x6, x6, #0x0
    100b6744:	d0000025 	adrp	x5, 100bc000 <__RODATA_END__>
    100b6748:	910000a5 	add	x5, x5, #0x0
    100b674c:	90000024 	adrp	x4, 100ba000 <__TEXT_END__>
    100b6750:	91000084 	add	x4, x4, #0x0
    100b6754:	90000023 	adrp	x3, 100ba000 <__TEXT_END__>
    100b6758:	91000063 	add	x3, x3, #0x0
    100b675c:	d0ffffe2 	adrp	x2, 100b4000 <bl2_entrypoint>
    100b6760:	91000042 	add	x2, x2, #0x0
    100b6764:	f9400421 	ldr	x1, [x1, #8]
    100b6768:	94000391 	bl	100b75ac <rpi3_setup_page_tables>
    100b676c:	a8c17bfd 	ldp	x29, x30, [sp], #16
    100b6770:	52800000 	mov	w0, #0x0                   	// #0
    100b6774:	140004a4 	b	100b7a04 <enable_mmu_el1>

00000000100b6778 <bl2_plat_handle_post_image_load>:
    100b6778:	a9be7bfd 	stp	x29, x30, [sp, #-32]!
    100b677c:	910003fd 	mov	x29, sp
    100b6780:	a90153f3 	stp	x19, x20, [sp, #16]
    100b6784:	2a0003f4 	mov	w20, w0
    100b6788:	97fff67f 	bl	100b4184 <get_bl_mem_params_node>
    100b678c:	b50000a0 	cbnz	x0, 100b67a0 <bl2_plat_handle_post_image_load+0x28>
    100b6790:	52800f01 	mov	w1, #0x78                  	// #120
    100b6794:	90000020 	adrp	x0, 100ba000 <__TEXT_END__>
    100b6798:	9123e000 	add	x0, x0, #0x8f8
    100b679c:	94000815 	bl	100b87f0 <__assert>
    100b67a0:	aa0003f3 	mov	x19, x0
    100b67a4:	7100129f 	cmp	w20, #0x4
    100b67a8:	540000a0 	b.eq	100b67bc <bl2_plat_handle_post_image_load+0x44>  // b.none
    100b67ac:	7100169f 	cmp	w20, #0x5
    100b67b0:	540003a0 	b.eq	100b6824 <bl2_plat_handle_post_image_load+0xac>  // b.none
    100b67b4:	52800014 	mov	w20, #0x0                   	// #0
    100b67b8:	14000017 	b	100b6814 <bl2_plat_handle_post_image_load+0x9c>
    100b67bc:	528002a0 	mov	w0, #0x15                  	// #21
    100b67c0:	97fff671 	bl	100b4184 <get_bl_mem_params_node>
    100b67c4:	aa0003f4 	mov	x20, x0
    100b67c8:	b5000060 	cbnz	x0, 100b67d4 <bl2_plat_handle_post_image_load+0x5c>
    100b67cc:	52800fc1 	mov	w1, #0x7e                  	// #126
    100b67d0:	17fffff1 	b	100b6794 <bl2_plat_handle_post_image_load+0x1c>
    100b67d4:	528002c0 	mov	w0, #0x16                  	// #22
    100b67d8:	97fff66b 	bl	100b4184 <get_bl_mem_params_node>
    100b67dc:	b5000060 	cbnz	x0, 100b67e8 <bl2_plat_handle_post_image_load+0x70>
    100b67e0:	52801021 	mov	w1, #0x81                  	// #129
    100b67e4:	17ffffec 	b	100b6794 <bl2_plat_handle_post_image_load+0x1c>
    100b67e8:	91002002 	add	x2, x0, #0x8
    100b67ec:	91002281 	add	x1, x20, #0x8
    100b67f0:	91008260 	add	x0, x19, #0x20
    100b67f4:	940000b3 	bl	100b6ac0 <parse_optee_header>
    100b67f8:	2a0003f4 	mov	w20, w0
    100b67fc:	34000080 	cbz	w0, 100b680c <bl2_plat_handle_post_image_load+0x94>
    100b6800:	90000020 	adrp	x0, 100ba000 <__TEXT_END__>
    100b6804:	91245c00 	add	x0, x0, #0x917
    100b6808:	94000217 	bl	100b7064 <tf_log>
    100b680c:	9400038e 	bl	100b7644 <rpi3_get_spsr_for_bl32_entry>
    100b6810:	b9003260 	str	w0, [x19, #48]
    100b6814:	2a1403e0 	mov	w0, w20
    100b6818:	a94153f3 	ldp	x19, x20, [sp, #16]
    100b681c:	a8c27bfd 	ldp	x29, x30, [sp], #32
    100b6820:	d65f03c0 	ret
    100b6824:	d53800a0 	mrs	x0, mpidr_el1
    100b6828:	92403c00 	and	x0, x0, #0xffff
    100b682c:	f9001e60 	str	x0, [x19, #56]
    100b6830:	94000387 	bl	100b764c <rpi3_get_spsr_for_bl33_entry>
    100b6834:	b9003260 	str	w0, [x19, #48]
    100b6838:	97ffff5a 	bl	100b65a0 <rpi3_sdhost_stop>
    100b683c:	17ffffde 	b	100b67b4 <bl2_plat_handle_post_image_load+0x3c>

00000000100b6840 <plat_flush_next_bl_params>:
    100b6840:	17fff62e 	b	100b40f8 <flush_bl_params_desc>

00000000100b6844 <plat_get_bl_image_load_info>:
    100b6844:	17fff662 	b	100b41cc <get_bl_load_info_from_mem_params_desc>

00000000100b6848 <plat_get_next_bl_params>:
    100b6848:	17fff680 	b	100b4248 <get_next_bl_params_from_mem_params_desc>

00000000100b684c <open_fip>:
    100b684c:	a9bc7bfd 	stp	x29, x30, [sp, #-64]!
    100b6850:	d2800001 	mov	x1, #0x0                   	// #0
    100b6854:	910003fd 	mov	x29, sp
    100b6858:	a90153f3 	stp	x19, x20, [sp, #16]
    100b685c:	aa0003f4 	mov	x20, x0
    100b6860:	f90013f5 	str	x21, [sp, #32]
    100b6864:	d0000055 	adrp	x21, 100c0000 <__STACKS_START__+0x3bc0>
    100b6868:	f9440ea0 	ldr	x0, [x21, #2072]
    100b686c:	97fff91b 	bl	100b4cd8 <io_dev_init>
    100b6870:	2a0003f3 	mov	w19, w0
    100b6874:	35000120 	cbnz	w0, 100b6898 <open_fip+0x4c>
    100b6878:	f9440ea0 	ldr	x0, [x21, #2072]
    100b687c:	9100e3e2 	add	x2, sp, #0x38
    100b6880:	aa1403e1 	mov	x1, x20
    100b6884:	97fff949 	bl	100b4da8 <io_open>
    100b6888:	2a0003f3 	mov	w19, w0
    100b688c:	35000060 	cbnz	w0, 100b6898 <open_fip+0x4c>
    100b6890:	f9401fe0 	ldr	x0, [sp, #56]
    100b6894:	97fff9e1 	bl	100b5018 <io_close>
    100b6898:	2a1303e0 	mov	w0, w19
    100b689c:	a94153f3 	ldp	x19, x20, [sp, #16]
    100b68a0:	f94013f5 	ldr	x21, [sp, #32]
    100b68a4:	a8c47bfd 	ldp	x29, x30, [sp], #64
    100b68a8:	d65f03c0 	ret

00000000100b68ac <open_memmap>:
    100b68ac:	a9bc7bfd 	stp	x29, x30, [sp, #-64]!
    100b68b0:	d2800001 	mov	x1, #0x0                   	// #0
    100b68b4:	910003fd 	mov	x29, sp
    100b68b8:	a90153f3 	stp	x19, x20, [sp, #16]
    100b68bc:	aa0003f4 	mov	x20, x0
    100b68c0:	f90013f5 	str	x21, [sp, #32]
    100b68c4:	d0000055 	adrp	x21, 100c0000 <__STACKS_START__+0x3bc0>
    100b68c8:	f94416a0 	ldr	x0, [x21, #2088]
    100b68cc:	97fff903 	bl	100b4cd8 <io_dev_init>
    100b68d0:	2a0003f3 	mov	w19, w0
    100b68d4:	35000120 	cbnz	w0, 100b68f8 <open_memmap+0x4c>
    100b68d8:	f94416a0 	ldr	x0, [x21, #2088]
    100b68dc:	9100e3e2 	add	x2, sp, #0x38
    100b68e0:	aa1403e1 	mov	x1, x20
    100b68e4:	97fff931 	bl	100b4da8 <io_open>
    100b68e8:	2a0003f3 	mov	w19, w0
    100b68ec:	35000060 	cbnz	w0, 100b68f8 <open_memmap+0x4c>
    100b68f0:	f9401fe0 	ldr	x0, [sp, #56]
    100b68f4:	97fff9c9 	bl	100b5018 <io_close>
    100b68f8:	2a1303e0 	mov	w0, w19
    100b68fc:	a94153f3 	ldp	x19, x20, [sp, #16]
    100b6900:	f94013f5 	ldr	x21, [sp, #32]
    100b6904:	a8c47bfd 	ldp	x29, x30, [sp], #64
    100b6908:	d65f03c0 	ret

00000000100b690c <plat_rpi3_io_setup>:
    100b690c:	a9be7bfd 	stp	x29, x30, [sp, #-32]!
    100b6910:	910003fd 	mov	x29, sp
    100b6914:	a90153f3 	stp	x19, x20, [sp, #16]
    100b6918:	d0000054 	adrp	x20, 100c0000 <__STACKS_START__+0x3bc0>
    100b691c:	91204280 	add	x0, x20, #0x810
    100b6920:	97fff7cd 	bl	100b4854 <register_io_dev_fip>
    100b6924:	340000a0 	cbz	w0, 100b6938 <plat_rpi3_io_setup+0x2c>
    100b6928:	52801d21 	mov	w1, #0xe9                  	// #233
    100b692c:	90000020 	adrp	x0, 100ba000 <__TEXT_END__>
    100b6930:	9124cc00 	add	x0, x0, #0x933
    100b6934:	940007af 	bl	100b87f0 <__assert>
    100b6938:	d0000053 	adrp	x19, 100c0000 <__STACKS_START__+0x3bc0>
    100b693c:	91208260 	add	x0, x19, #0x820
    100b6940:	97fff87d 	bl	100b4b34 <register_io_dev_memmap>
    100b6944:	34000060 	cbz	w0, 100b6950 <plat_rpi3_io_setup+0x44>
    100b6948:	52801d81 	mov	w1, #0xec                  	// #236
    100b694c:	17fffff8 	b	100b692c <plat_rpi3_io_setup+0x20>
    100b6950:	f9440a80 	ldr	x0, [x20, #2064]
    100b6954:	d0000042 	adrp	x2, 100c0000 <__STACKS_START__+0x3bc0>
    100b6958:	91206042 	add	x2, x2, #0x818
    100b695c:	d2800001 	mov	x1, #0x0                   	// #0
    100b6960:	97fff8cc 	bl	100b4c90 <io_dev_open>
    100b6964:	34000060 	cbz	w0, 100b6970 <plat_rpi3_io_setup+0x64>
    100b6968:	52801e21 	mov	w1, #0xf1                  	// #241
    100b696c:	17fffff0 	b	100b692c <plat_rpi3_io_setup+0x20>
    100b6970:	f9441260 	ldr	x0, [x19, #2080]
    100b6974:	d0000042 	adrp	x2, 100c0000 <__STACKS_START__+0x3bc0>
    100b6978:	9120a042 	add	x2, x2, #0x828
    100b697c:	d2800001 	mov	x1, #0x0                   	// #0
    100b6980:	97fff8c4 	bl	100b4c90 <io_dev_open>
    100b6984:	34000060 	cbz	w0, 100b6990 <plat_rpi3_io_setup+0x84>
    100b6988:	52801ea1 	mov	w1, #0xf5                  	// #245
    100b698c:	17ffffe8 	b	100b692c <plat_rpi3_io_setup+0x20>
    100b6990:	a94153f3 	ldp	x19, x20, [sp, #16]
    100b6994:	a8c27bfd 	ldp	x29, x30, [sp], #32
    100b6998:	d65f03c0 	ret

00000000100b699c <plat_get_image_source>:
    100b699c:	a9bc7bfd 	stp	x29, x30, [sp, #-64]!
    100b69a0:	7100581f 	cmp	w0, #0x16
    100b69a4:	910003fd 	mov	x29, sp
    100b69a8:	a90153f3 	stp	x19, x20, [sp, #16]
    100b69ac:	a9025bf5 	stp	x21, x22, [sp, #32]
    100b69b0:	f9001bf7 	str	x23, [sp, #48]
    100b69b4:	540000a9 	b.ls	100b69c8 <plat_get_image_source+0x2c>  // b.plast
    100b69b8:	90000020 	adrp	x0, 100ba000 <__TEXT_END__>
    100b69bc:	9124cc00 	add	x0, x0, #0x933
    100b69c0:	528020a1 	mov	w1, #0x105                 	// #261
    100b69c4:	9400078b 	bl	100b87f0 <__assert>
    100b69c8:	2a0003e0 	mov	w0, w0
    100b69cc:	d2800313 	mov	x19, #0x18                  	// #24
    100b69d0:	90000034 	adrp	x20, 100ba000 <__TEXT_END__>
    100b69d4:	91272294 	add	x20, x20, #0x9c8
    100b69d8:	aa0103f5 	mov	x21, x1
    100b69dc:	aa0203f6 	mov	x22, x2
    100b69e0:	9b137c13 	mul	x19, x0, x19
    100b69e4:	8b130280 	add	x0, x20, x19
    100b69e8:	a9408417 	ldp	x23, x1, [x0, #8]
    100b69ec:	aa1703e0 	mov	x0, x23
    100b69f0:	d63f0020 	blr	x1
    100b69f4:	350000a0 	cbnz	w0, 100b6a08 <plat_get_image_source+0x6c>
    100b69f8:	f8736a81 	ldr	x1, [x20, x19]
    100b69fc:	f90002d7 	str	x23, [x22]
    100b6a00:	f9400021 	ldr	x1, [x1]
    100b6a04:	f90002a1 	str	x1, [x21]
    100b6a08:	a94153f3 	ldp	x19, x20, [sp, #16]
    100b6a0c:	a9425bf5 	ldp	x21, x22, [sp, #32]
    100b6a10:	f9401bf7 	ldr	x23, [sp, #48]
    100b6a14:	a8c47bfd 	ldp	x29, x30, [sp], #64
    100b6a18:	d65f03c0 	ret

00000000100b6a1c <parse_optee_image>:
    100b6a1c:	aa0103e3 	mov	x3, x1
    100b6a20:	b9401404 	ldr	w4, [x0, #20]
    100b6a24:	29400422 	ldp	w2, w1, [x1]
    100b6a28:	51000485 	sub	w5, w4, #0x1
    100b6a2c:	b9400c66 	ldr	w6, [x3, #12]
    100b6a30:	aa2503e7 	mvn	x7, x5
    100b6a34:	f9400403 	ldr	x3, [x0, #8]
    100b6a38:	aa028021 	orr	x1, x1, x2, lsl #32
    100b6a3c:	b100043f 	cmn	x1, #0x1
    100b6a40:	9a831021 	csel	x1, x1, x3, ne  // ne = any
    100b6a44:	eb0300ff 	cmp	x7, x3
    100b6a48:	54000383 	b.cc	100b6ab8 <parse_optee_image+0x9c>  // b.lo, b.ul, b.last
    100b6a4c:	2a0603e2 	mov	w2, w6
    100b6a50:	8b0300a5 	add	x5, x5, x3
    100b6a54:	cb0203e7 	neg	x7, x2
    100b6a58:	eb0100ff 	cmp	x7, x1
    100b6a5c:	540002e3 	b.cc	100b6ab8 <parse_optee_image+0x9c>  // b.lo, b.ul, b.last
    100b6a60:	8b020022 	add	x2, x1, x2
    100b6a64:	eb03003f 	cmp	x1, x3
    100b6a68:	d1000447 	sub	x7, x2, #0x1
    100b6a6c:	54000063 	b.cc	100b6a78 <parse_optee_image+0x5c>  // b.lo, b.ul, b.last
    100b6a70:	eb0700bf 	cmp	x5, x7
    100b6a74:	54000142 	b.cs	100b6a9c <parse_optee_image+0x80>  // b.hs, b.nlast
    100b6a78:	a9bf7bfd 	stp	x29, x30, [sp, #-16]!
    100b6a7c:	8b244064 	add	x4, x3, w4, uxtw
    100b6a80:	90000020 	adrp	x0, 100ba000 <__TEXT_END__>
    100b6a84:	912fc000 	add	x0, x0, #0xbf0
    100b6a88:	910003fd 	mov	x29, sp
    100b6a8c:	94000176 	bl	100b7064 <tf_log>
    100b6a90:	12800000 	mov	w0, #0xffffffff            	// #-1
    100b6a94:	a8c17bfd 	ldp	x29, x30, [sp], #16
    100b6a98:	d65f03c0 	ret
    100b6a9c:	b9400402 	ldr	w2, [x0, #4]
    100b6aa0:	f9000401 	str	x1, [x0, #8]
    100b6aa4:	121e7842 	and	w2, w2, #0xfffffffd
    100b6aa8:	b9000402 	str	w2, [x0, #4]
    100b6aac:	b9001006 	str	w6, [x0, #16]
    100b6ab0:	52800000 	mov	w0, #0x0                   	// #0
    100b6ab4:	d65f03c0 	ret
    100b6ab8:	12800000 	mov	w0, #0xffffffff            	// #-1
    100b6abc:	d65f03c0 	ret

00000000100b6ac0 <parse_optee_header>:
    100b6ac0:	a9bb7bfd 	stp	x29, x30, [sp, #-80]!
    100b6ac4:	910003fd 	mov	x29, sp
    100b6ac8:	a90153f3 	stp	x19, x20, [sp, #16]
    100b6acc:	a9025bf5 	stp	x21, x22, [sp, #32]
    100b6ad0:	a90363f7 	stp	x23, x24, [sp, #48]
    100b6ad4:	f90023f9 	str	x25, [sp, #64]
    100b6ad8:	b50000a0 	cbnz	x0, 100b6aec <parse_optee_header+0x2c>
    100b6adc:	52801261 	mov	w1, #0x93                  	// #147
    100b6ae0:	90000020 	adrp	x0, 100ba000 <__TEXT_END__>
    100b6ae4:	9130f400 	add	x0, x0, #0xc3d
    100b6ae8:	94000742 	bl	100b87f0 <__assert>
    100b6aec:	f9400413 	ldr	x19, [x0, #8]
    100b6af0:	aa0003f4 	mov	x20, x0
    100b6af4:	b5000073 	cbnz	x19, 100b6b00 <parse_optee_header+0x40>
    100b6af8:	528012a1 	mov	w1, #0x95                  	// #149
    100b6afc:	17fffff9 	b	100b6ae0 <parse_optee_header+0x20>
    100b6b00:	aa0103f7 	mov	x23, x1
    100b6b04:	2a1303e1 	mov	w1, w19
    100b6b08:	aa0203f5 	mov	x21, x2
    100b6b0c:	90000020 	adrp	x0, 100ba000 <__TEXT_END__>
    100b6b10:	91315400 	add	x0, x0, #0xc55
    100b6b14:	94000154 	bl	100b7064 <tf_log>
    100b6b18:	90000020 	adrp	x0, 100ba000 <__TEXT_END__>
    100b6b1c:	91319400 	add	x0, x0, #0xc65
    100b6b20:	94000151 	bl	100b7064 <tf_log>
    100b6b24:	b9400261 	ldr	w1, [x19]
    100b6b28:	90000020 	adrp	x0, 100ba000 <__TEXT_END__>
    100b6b2c:	9131e800 	add	x0, x0, #0xc7a
    100b6b30:	9400014d 	bl	100b7064 <tf_log>
    100b6b34:	39401261 	ldrb	w1, [x19, #4]
    100b6b38:	90000020 	adrp	x0, 100ba000 <__TEXT_END__>
    100b6b3c:	91323400 	add	x0, x0, #0xc8d
    100b6b40:	94000149 	bl	100b7064 <tf_log>
    100b6b44:	39401661 	ldrb	w1, [x19, #5]
    100b6b48:	90000020 	adrp	x0, 100ba000 <__TEXT_END__>
    100b6b4c:	91328800 	add	x0, x0, #0xca2
    100b6b50:	94000145 	bl	100b7064 <tf_log>
    100b6b54:	79400e61 	ldrh	w1, [x19, #6]
    100b6b58:	90000020 	adrp	x0, 100ba000 <__TEXT_END__>
    100b6b5c:	9132d000 	add	x0, x0, #0xcb4
    100b6b60:	94000141 	bl	100b7064 <tf_log>
    100b6b64:	b9400a61 	ldr	w1, [x19, #8]
    100b6b68:	90000020 	adrp	x0, 100ba000 <__TEXT_END__>
    100b6b6c:	91331c00 	add	x0, x0, #0xcc7
    100b6b70:	9400013d 	bl	100b7064 <tf_log>
    100b6b74:	b9400261 	ldr	w1, [x19]
    100b6b78:	528a09e0 	mov	w0, #0x504f                	// #20559
    100b6b7c:	72a8aa80 	movk	w0, #0x4554, lsl #16
    100b6b80:	6b00003f 	cmp	w1, w0
    100b6b84:	54000101 	b.ne	100b6ba4 <parse_optee_header+0xe4>  // b.any
    100b6b88:	39401260 	ldrb	w0, [x19, #4]
    100b6b8c:	7100081f 	cmp	w0, #0x2
    100b6b90:	540000a1 	b.ne	100b6ba4 <parse_optee_header+0xe4>  // b.any
    100b6b94:	b9400a60 	ldr	w0, [x19, #8]
    100b6b98:	51000400 	sub	w0, w0, #0x1
    100b6b9c:	7100041f 	cmp	w0, #0x1
    100b6ba0:	540001e9 	b.ls	100b6bdc <parse_optee_header+0x11c>  // b.plast
    100b6ba4:	90000020 	adrp	x0, 100ba000 <__TEXT_END__>
    100b6ba8:	91337800 	add	x0, x0, #0xcde
    100b6bac:	9400012e 	bl	100b7064 <tf_log>
    100b6bb0:	90000020 	adrp	x0, 100ba000 <__TEXT_END__>
    100b6bb4:	91343800 	add	x0, x0, #0xd0e
    100b6bb8:	9400012b 	bl	100b7064 <tf_log>
    100b6bbc:	f9000e9f 	str	xzr, [x20, #24]
    100b6bc0:	52800000 	mov	w0, #0x0                   	// #0
    100b6bc4:	a94153f3 	ldp	x19, x20, [sp, #16]
    100b6bc8:	a9425bf5 	ldp	x21, x22, [sp, #32]
    100b6bcc:	a94363f7 	ldp	x23, x24, [sp, #48]
    100b6bd0:	f94023f9 	ldr	x25, [sp, #64]
    100b6bd4:	a8c57bfd 	ldp	x29, x30, [sp], #80
    100b6bd8:	d65f03c0 	ret
    100b6bdc:	91003276 	add	x22, x19, #0xc
    100b6be0:	52800018 	mov	w24, #0x0                   	// #0
    100b6be4:	d2800119 	mov	x25, #0x8                   	// #8
    100b6be8:	b8766b20 	ldr	w0, [x25, x22]
    100b6bec:	350002a0 	cbnz	w0, 100b6c40 <parse_optee_header+0x180>
    100b6bf0:	aa1603e1 	mov	x1, x22
    100b6bf4:	aa1703e0 	mov	x0, x23
    100b6bf8:	97ffff89 	bl	100b6a1c <parse_optee_image>
    100b6bfc:	35000320 	cbnz	w0, 100b6c60 <parse_optee_header+0x1a0>
    100b6c00:	b9400a61 	ldr	w1, [x19, #8]
    100b6c04:	11000718 	add	w24, w24, #0x1
    100b6c08:	910042d6 	add	x22, x22, #0x10
    100b6c0c:	6b18003f 	cmp	w1, w24
    100b6c10:	54fffec8 	b.hi	100b6be8 <parse_optee_header+0x128>  // b.pmore
    100b6c14:	f94006e1 	ldr	x1, [x23, #8]
    100b6c18:	f9000681 	str	x1, [x20, #8]
    100b6c1c:	f94006a1 	ldr	x1, [x21, #8]
    100b6c20:	f9001281 	str	x1, [x20, #32]
    100b6c24:	b94012a1 	ldr	w1, [x21, #16]
    100b6c28:	f9001681 	str	x1, [x20, #40]
    100b6c2c:	39401661 	ldrb	w1, [x19, #5]
    100b6c30:	7100003f 	cmp	w1, #0x0
    100b6c34:	9a9f17e1 	cset	x1, eq  // eq = none
    100b6c38:	f9000e81 	str	x1, [x20, #24]
    100b6c3c:	17ffffe2 	b	100b6bc4 <parse_optee_header+0x104>
    100b6c40:	7100041f 	cmp	w0, #0x1
    100b6c44:	54000081 	b.ne	100b6c54 <parse_optee_header+0x194>  // b.any
    100b6c48:	aa1603e1 	mov	x1, x22
    100b6c4c:	aa1503e0 	mov	x0, x21
    100b6c50:	17ffffea 	b	100b6bf8 <parse_optee_header+0x138>
    100b6c54:	90000020 	adrp	x0, 100ba000 <__TEXT_END__>
    100b6c58:	9134dc00 	add	x0, x0, #0xd37
    100b6c5c:	94000102 	bl	100b7064 <tf_log>
    100b6c60:	12800000 	mov	w0, #0xffffffff            	// #-1
    100b6c64:	17ffffd8 	b	100b6bc4 <parse_optee_header+0x104>

00000000100b6c68 <bl2_load_images>:
    100b6c68:	a9bc7bfd 	stp	x29, x30, [sp, #-64]!
    100b6c6c:	910003fd 	mov	x29, sp
    100b6c70:	a90153f3 	stp	x19, x20, [sp, #16]
    100b6c74:	a9025bf5 	stp	x21, x22, [sp, #32]
    100b6c78:	f9001bf7 	str	x23, [sp, #48]
    100b6c7c:	97fffef2 	bl	100b6844 <plat_get_bl_image_load_info>
    100b6c80:	b50000a0 	cbnz	x0, 100b6c94 <bl2_load_images+0x2c>
    100b6c84:	528004c1 	mov	w1, #0x26                  	// #38
    100b6c88:	90000020 	adrp	x0, 100ba000 <__TEXT_END__>
    100b6c8c:	91354c00 	add	x0, x0, #0xd53
    100b6c90:	940006d8 	bl	100b87f0 <__assert>
    100b6c94:	f9400413 	ldr	x19, [x0, #8]
    100b6c98:	b5000073 	cbnz	x19, 100b6ca4 <bl2_load_images+0x3c>
    100b6c9c:	528004e1 	mov	w1, #0x27                  	// #39
    100b6ca0:	17fffffa 	b	100b6c88 <bl2_load_images+0x20>
    100b6ca4:	39400001 	ldrb	w1, [x0]
    100b6ca8:	7100103f 	cmp	w1, #0x4
    100b6cac:	54000060 	b.eq	100b6cb8 <bl2_load_images+0x50>  // b.none
    100b6cb0:	52800501 	mov	w1, #0x28                  	// #40
    100b6cb4:	17fffff5 	b	100b6c88 <bl2_load_images+0x20>
    100b6cb8:	39400400 	ldrb	w0, [x0, #1]
    100b6cbc:	52800017 	mov	w23, #0x0                   	// #0
    100b6cc0:	7100041f 	cmp	w0, #0x1
    100b6cc4:	540002a9 	b.ls	100b6d18 <bl2_load_images+0xb0>  // b.plast
    100b6cc8:	90000035 	adrp	x21, 100ba000 <__TEXT_END__>
    100b6ccc:	913642b5 	add	x21, x21, #0xd90
    100b6cd0:	90000036 	adrp	x22, 100ba000 <__TEXT_END__>
    100b6cd4:	9135aed6 	add	x22, x22, #0xd6b
    100b6cd8:	f9400660 	ldr	x0, [x19, #8]
    100b6cdc:	b9400400 	ldr	w0, [x0, #4]
    100b6ce0:	36100080 	tbz	w0, #2, 100b6cf0 <bl2_load_images+0x88>
    100b6ce4:	340001f7 	cbz	w23, 100b6d20 <bl2_load_images+0xb8>
    100b6ce8:	aa1603e0 	mov	x0, x22
    100b6cec:	940000de 	bl	100b7064 <tf_log>
    100b6cf0:	b9400260 	ldr	w0, [x19]
    100b6cf4:	9400018f 	bl	100b7330 <bl2_plat_handle_pre_image_load>
    100b6cf8:	2a0003f4 	mov	w20, w0
    100b6cfc:	340001c0 	cbz	w0, 100b6d34 <bl2_load_images+0xcc>
    100b6d00:	2a0003e1 	mov	w1, w0
    100b6d04:	90000020 	adrp	x0, 100ba000 <__TEXT_END__>
    100b6d08:	9136b000 	add	x0, x0, #0xdac
    100b6d0c:	940000d6 	bl	100b7064 <tf_log>
    100b6d10:	2a1403e0 	mov	w0, w20
    100b6d14:	94000184 	bl	100b7324 <plat_error_handler>
    100b6d18:	52800521 	mov	w1, #0x29                  	// #41
    100b6d1c:	17ffffdb 	b	100b6c88 <bl2_load_images+0x20>
    100b6d20:	aa1503e0 	mov	x0, x21
    100b6d24:	52800037 	mov	w23, #0x1                   	// #1
    100b6d28:	940000cf 	bl	100b7064 <tf_log>
    100b6d2c:	97fffe7c 	bl	100b671c <bl2_platform_setup>
    100b6d30:	17fffff0 	b	100b6cf0 <bl2_load_images+0x88>
    100b6d34:	f9400660 	ldr	x0, [x19, #8]
    100b6d38:	b9400261 	ldr	w1, [x19]
    100b6d3c:	b9400400 	ldr	w0, [x0, #4]
    100b6d40:	370801a0 	tbnz	w0, #1, 100b6d74 <bl2_load_images+0x10c>
    100b6d44:	90000020 	adrp	x0, 100ba000 <__TEXT_END__>
    100b6d48:	91376c00 	add	x0, x0, #0xddb
    100b6d4c:	940000c6 	bl	100b7064 <tf_log>
    100b6d50:	b9400260 	ldr	w0, [x19]
    100b6d54:	f9400661 	ldr	x1, [x19, #8]
    100b6d58:	94000059 	bl	100b6ebc <load_auth_image>
    100b6d5c:	2a0003f4 	mov	w20, w0
    100b6d60:	34000100 	cbz	w0, 100b6d80 <bl2_load_images+0x118>
    100b6d64:	2a0003e1 	mov	w1, w0
    100b6d68:	90000020 	adrp	x0, 100ba000 <__TEXT_END__>
    100b6d6c:	9137d800 	add	x0, x0, #0xdf6
    100b6d70:	17ffffe7 	b	100b6d0c <bl2_load_images+0xa4>
    100b6d74:	90000020 	adrp	x0, 100ba000 <__TEXT_END__>
    100b6d78:	91385c00 	add	x0, x0, #0xe17
    100b6d7c:	940000ba 	bl	100b7064 <tf_log>
    100b6d80:	b9400260 	ldr	w0, [x19]
    100b6d84:	97fffe7d 	bl	100b6778 <bl2_plat_handle_post_image_load>
    100b6d88:	2a0003f4 	mov	w20, w0
    100b6d8c:	340000a0 	cbz	w0, 100b6da0 <bl2_load_images+0x138>
    100b6d90:	2a0003e1 	mov	w1, w0
    100b6d94:	90000020 	adrp	x0, 100ba000 <__TEXT_END__>
    100b6d98:	9138dc00 	add	x0, x0, #0xe37
    100b6d9c:	17ffffdc 	b	100b6d0c <bl2_load_images+0xa4>
    100b6da0:	f9400a73 	ldr	x19, [x19, #16]
    100b6da4:	b5fff9b3 	cbnz	x19, 100b6cd8 <bl2_load_images+0x70>
    100b6da8:	97fffea8 	bl	100b6848 <plat_get_next_bl_params>
    100b6dac:	aa0003f3 	mov	x19, x0
    100b6db0:	b5000060 	cbnz	x0, 100b6dbc <bl2_load_images+0x154>
    100b6db4:	52800ba1 	mov	w1, #0x5d                  	// #93
    100b6db8:	17ffffb4 	b	100b6c88 <bl2_load_images+0x20>
    100b6dbc:	f9400400 	ldr	x0, [x0, #8]
    100b6dc0:	b5000060 	cbnz	x0, 100b6dcc <bl2_load_images+0x164>
    100b6dc4:	52800bc1 	mov	w1, #0x5e                  	// #94
    100b6dc8:	17ffffb0 	b	100b6c88 <bl2_load_images+0x20>
    100b6dcc:	39400261 	ldrb	w1, [x19]
    100b6dd0:	7100143f 	cmp	w1, #0x5
    100b6dd4:	54000060 	b.eq	100b6de0 <bl2_load_images+0x178>  // b.none
    100b6dd8:	52800be1 	mov	w1, #0x5f                  	// #95
    100b6ddc:	17ffffab 	b	100b6c88 <bl2_load_images+0x20>
    100b6de0:	39400661 	ldrb	w1, [x19, #1]
    100b6de4:	7100043f 	cmp	w1, #0x1
    100b6de8:	54000068 	b.hi	100b6df4 <bl2_load_images+0x18c>  // b.pmore
    100b6dec:	52800c01 	mov	w1, #0x60                  	// #96
    100b6df0:	17ffffa6 	b	100b6c88 <bl2_load_images+0x20>
    100b6df4:	f9400800 	ldr	x0, [x0, #16]
    100b6df8:	b5000060 	cbnz	x0, 100b6e04 <bl2_load_images+0x19c>
    100b6dfc:	52800c21 	mov	w1, #0x61                  	// #97
    100b6e00:	17ffffa2 	b	100b6c88 <bl2_load_images+0x20>
    100b6e04:	f9400c01 	ldr	x1, [x0, #24]
    100b6e08:	b5000041 	cbnz	x1, 100b6e10 <bl2_load_images+0x1a8>
    100b6e0c:	f9000c13 	str	x19, [x0, #24]
    100b6e10:	97fffe8c 	bl	100b6840 <plat_flush_next_bl_params>
    100b6e14:	f9400660 	ldr	x0, [x19, #8]
    100b6e18:	a94153f3 	ldp	x19, x20, [sp, #16]
    100b6e1c:	f9400800 	ldr	x0, [x0, #16]
    100b6e20:	a9425bf5 	ldp	x21, x22, [sp, #32]
    100b6e24:	f9401bf7 	ldr	x23, [sp, #48]
    100b6e28:	a8c47bfd 	ldp	x29, x30, [sp], #64
    100b6e2c:	d65f03c0 	ret

00000000100b6e30 <bl2_setup>:
    100b6e30:	a9bf7bfd 	stp	x29, x30, [sp, #-16]!
    100b6e34:	910003fd 	mov	x29, sp
    100b6e38:	97fffe0f 	bl	100b6674 <bl2_early_platform_setup2>
    100b6e3c:	a8c17bfd 	ldp	x29, x30, [sp], #16
    100b6e40:	17fffe38 	b	100b6720 <bl2_plat_arch_setup>

00000000100b6e44 <bl2_main>:
    100b6e44:	a9be7bfd 	stp	x29, x30, [sp, #-32]!
    100b6e48:	90000021 	adrp	x1, 100ba000 <__TEXT_END__>
    100b6e4c:	91007821 	add	x1, x1, #0x1e
    100b6e50:	910003fd 	mov	x29, sp
    100b6e54:	f9000bf3 	str	x19, [sp, #16]
    100b6e58:	90000033 	adrp	x19, 100ba000 <__TEXT_END__>
    100b6e5c:	91399e73 	add	x19, x19, #0xe67
    100b6e60:	aa1303e0 	mov	x0, x19
    100b6e64:	94000080 	bl	100b7064 <tf_log>
    100b6e68:	aa1303e0 	mov	x0, x19
    100b6e6c:	90000021 	adrp	x1, 100ba000 <__TEXT_END__>
    100b6e70:	91000021 	add	x1, x1, #0x0
    100b6e74:	9400007c 	bl	100b7064 <tf_log>
    100b6e78:	9400000e 	bl	100b6eb0 <bl2_arch_setup>
    100b6e7c:	9400012c 	bl	100b732c <bl2_plat_preload_setup>
    100b6e80:	97ffff7a 	bl	100b6c68 <bl2_load_images>
    100b6e84:	aa0003f3 	mov	x19, x0
    100b6e88:	9400010b 	bl	100b72b4 <console_flush>
    100b6e8c:	aa1303e1 	mov	x1, x19
    100b6e90:	d2800007 	mov	x7, #0x0                   	// #0
    100b6e94:	d2800006 	mov	x6, #0x0                   	// #0
    100b6e98:	d2800005 	mov	x5, #0x0                   	// #0
    100b6e9c:	d2800004 	mov	x4, #0x0                   	// #0
    100b6ea0:	d2800003 	mov	x3, #0x0                   	// #0
    100b6ea4:	d2800002 	mov	x2, #0x0                   	// #0
    100b6ea8:	d2800080 	mov	x0, #0x4                   	// #4
    100b6eac:	9400057b 	bl	100b8498 <smc>

00000000100b6eb0 <bl2_arch_setup>:
    100b6eb0:	d2a00600 	mov	x0, #0x300000              	// #3145728
    100b6eb4:	d5181040 	msr	cpacr_el1, x0
    100b6eb8:	d65f03c0 	ret

00000000100b6ebc <load_auth_image>:
    100b6ebc:	a9b97bfd 	stp	x29, x30, [sp, #-112]!
    100b6ec0:	910003fd 	mov	x29, sp
    100b6ec4:	a90153f3 	stp	x19, x20, [sp, #16]
    100b6ec8:	2a0003f4 	mov	w20, w0
    100b6ecc:	a9025bf5 	stp	x21, x22, [sp, #32]
    100b6ed0:	aa0103f5 	mov	x21, x1
    100b6ed4:	f9001bf7 	str	x23, [sp, #48]
    100b6ed8:	90000037 	adrp	x23, 100ba000 <__TEXT_END__>
    100b6edc:	913a12f7 	add	x23, x23, #0xe84
    100b6ee0:	b50000b5 	cbnz	x21, 100b6ef4 <load_auth_image+0x38>
    100b6ee4:	52800a01 	mov	w1, #0x50                  	// #80
    100b6ee8:	90000020 	adrp	x0, 100ba000 <__TEXT_END__>
    100b6eec:	9139c400 	add	x0, x0, #0xe71
    100b6ef0:	94000640 	bl	100b87f0 <__assert>
    100b6ef4:	394006a0 	ldrb	w0, [x21, #1]
    100b6ef8:	7100041f 	cmp	w0, #0x1
    100b6efc:	54000068 	b.hi	100b6f08 <load_auth_image+0x4c>  // b.pmore
    100b6f00:	52800a21 	mov	w1, #0x51                  	// #81
    100b6f04:	17fffff9 	b	100b6ee8 <load_auth_image+0x2c>
    100b6f08:	910163e2 	add	x2, sp, #0x58
    100b6f0c:	910123e1 	add	x1, sp, #0x48
    100b6f10:	2a1403e0 	mov	w0, w20
    100b6f14:	f94006b6 	ldr	x22, [x21, #8]
    100b6f18:	97fffea1 	bl	100b699c <plat_get_image_source>
    100b6f1c:	2a0003f3 	mov	w19, w0
    100b6f20:	34000120 	cbz	w0, 100b6f44 <load_auth_image+0x88>
    100b6f24:	2a0003e2 	mov	w2, w0
    100b6f28:	2a1403e1 	mov	w1, w20
    100b6f2c:	90000020 	adrp	x0, 100ba000 <__TEXT_END__>
    100b6f30:	91014c00 	add	x0, x0, #0x53
    100b6f34:	9400004c 	bl	100b7064 <tf_log>
    100b6f38:	94000100 	bl	100b7338 <plat_try_next_boot_source>
    100b6f3c:	35fffd20 	cbnz	w0, 100b6ee0 <load_auth_image+0x24>
    100b6f40:	1400002d 	b	100b6ff4 <load_auth_image+0x138>
    100b6f44:	f94027e0 	ldr	x0, [sp, #72]
    100b6f48:	910143e2 	add	x2, sp, #0x50
    100b6f4c:	f9402fe1 	ldr	x1, [sp, #88]
    100b6f50:	97fff796 	bl	100b4da8 <io_open>
    100b6f54:	2a0003f3 	mov	w19, w0
    100b6f58:	340000c0 	cbz	w0, 100b6f70 <load_auth_image+0xb4>
    100b6f5c:	2a0003e2 	mov	w2, w0
    100b6f60:	2a1403e1 	mov	w1, w20
    100b6f64:	90000020 	adrp	x0, 100ba000 <__TEXT_END__>
    100b6f68:	91021000 	add	x0, x0, #0x84
    100b6f6c:	17fffff2 	b	100b6f34 <load_auth_image+0x78>
    100b6f70:	aa1603e2 	mov	x2, x22
    100b6f74:	2a1403e1 	mov	w1, w20
    100b6f78:	aa1703e0 	mov	x0, x23
    100b6f7c:	9400003a 	bl	100b7064 <tf_log>
    100b6f80:	f9402be0 	ldr	x0, [sp, #80]
    100b6f84:	910183e1 	add	x1, sp, #0x60
    100b6f88:	97fff7ea 	bl	100b4f30 <io_size>
    100b6f8c:	2a0003f3 	mov	w19, w0
    100b6f90:	35000060 	cbnz	w0, 100b6f9c <load_auth_image+0xe0>
    100b6f94:	f94033e2 	ldr	x2, [sp, #96]
    100b6f98:	b50000e2 	cbnz	x2, 100b6fb4 <load_auth_image+0xf8>
    100b6f9c:	90000020 	adrp	x0, 100ba000 <__TEXT_END__>
    100b6fa0:	913aac00 	add	x0, x0, #0xeab
    100b6fa4:	2a1303e2 	mov	w2, w19
    100b6fa8:	2a1403e1 	mov	w1, w20
    100b6fac:	9400002e 	bl	100b7064 <tf_log>
    100b6fb0:	14000009 	b	100b6fd4 <load_auth_image+0x118>
    100b6fb4:	b94016a0 	ldr	w0, [x21, #20]
    100b6fb8:	eb00005f 	cmp	x2, x0
    100b6fbc:	54000289 	b.ls	100b700c <load_auth_image+0x150>  // b.plast
    100b6fc0:	12800353 	mov	w19, #0xffffffe5            	// #-27
    100b6fc4:	2a1403e1 	mov	w1, w20
    100b6fc8:	90000020 	adrp	x0, 100ba000 <__TEXT_END__>
    100b6fcc:	913b8800 	add	x0, x0, #0xee2
    100b6fd0:	94000025 	bl	100b7064 <tf_log>
    100b6fd4:	f9402be0 	ldr	x0, [sp, #80]
    100b6fd8:	97fff810 	bl	100b5018 <io_close>
    100b6fdc:	f94027e0 	ldr	x0, [sp, #72]
    100b6fe0:	97fff759 	bl	100b4d44 <io_dev_close>
    100b6fe4:	35fffab3 	cbnz	w19, 100b6f38 <load_auth_image+0x7c>
    100b6fe8:	b94012a1 	ldr	w1, [x21, #16]
    100b6fec:	f94006a0 	ldr	x0, [x21, #8]
    100b6ff0:	94000500 	bl	100b83f0 <flush_dcache_range>
    100b6ff4:	2a1303e0 	mov	w0, w19
    100b6ff8:	a94153f3 	ldp	x19, x20, [sp, #16]
    100b6ffc:	a9425bf5 	ldp	x21, x22, [sp, #32]
    100b7000:	f9401bf7 	ldr	x23, [sp, #48]
    100b7004:	a8c77bfd 	ldp	x29, x30, [sp], #112
    100b7008:	d65f03c0 	ret
    100b700c:	f9402be0 	ldr	x0, [sp, #80]
    100b7010:	b90012a2 	str	w2, [x21, #16]
    100b7014:	9101a3e3 	add	x3, sp, #0x68
    100b7018:	aa1603e1 	mov	x1, x22
    100b701c:	97fff7df 	bl	100b4f98 <io_read>
    100b7020:	2a0003f3 	mov	w19, w0
    100b7024:	35000080 	cbnz	w0, 100b7034 <load_auth_image+0x178>
    100b7028:	a94603e3 	ldp	x3, x0, [sp, #96]
    100b702c:	eb03001f 	cmp	x0, x3
    100b7030:	540000c2 	b.cs	100b7048 <load_auth_image+0x18c>  // b.hs, b.nlast
    100b7034:	f0000000 	adrp	x0, 100ba000 <__TEXT_END__>
    100b7038:	913c0c00 	add	x0, x0, #0xf03
    100b703c:	2a1303e2 	mov	w2, w19
    100b7040:	2a1403e1 	mov	w1, w20
    100b7044:	17ffffda 	b	100b6fac <load_auth_image+0xf0>
    100b7048:	8b0302c3 	add	x3, x22, x3
    100b704c:	aa1603e2 	mov	x2, x22
    100b7050:	2a1403e1 	mov	w1, w20
    100b7054:	f0000000 	adrp	x0, 100ba000 <__TEXT_END__>
    100b7058:	913c9400 	add	x0, x0, #0xf25
    100b705c:	94000002 	bl	100b7064 <tf_log>
    100b7060:	17ffffdd 	b	100b6fd4 <load_auth_image+0x118>

00000000100b7064 <tf_log>:
    100b7064:	a9b67bfd 	stp	x29, x30, [sp, #-160]!
    100b7068:	910003fd 	mov	x29, sp
    100b706c:	a90153f3 	stp	x19, x20, [sp, #16]
    100b7070:	aa0003f4 	mov	x20, x0
    100b7074:	a9068be1 	stp	x1, x2, [sp, #104]
    100b7078:	a90793e3 	stp	x3, x4, [sp, #120]
    100b707c:	a9089be5 	stp	x5, x6, [sp, #136]
    100b7080:	f9004fe7 	str	x7, [sp, #152]
    100b7084:	39400000 	ldrb	w0, [x0]
    100b7088:	51000401 	sub	w1, w0, #0x1
    100b708c:	7100c43f 	cmp	w1, #0x31
    100b7090:	540000a9 	b.ls	100b70a4 <tf_log+0x40>  // b.plast
    100b7094:	52800441 	mov	w1, #0x22                  	// #34
    100b7098:	f0000000 	adrp	x0, 100ba000 <__TEXT_END__>
    100b709c:	913d2400 	add	x0, x0, #0xf49
    100b70a0:	940005d4 	bl	100b87f0 <__assert>
    100b70a4:	52800142 	mov	w2, #0xa                   	// #10
    100b70a8:	1ac20801 	udiv	w1, w0, w2
    100b70ac:	1b028021 	msub	w1, w1, w2, w0
    100b70b0:	34000061 	cbz	w1, 100b70bc <tf_log+0x58>
    100b70b4:	52800461 	mov	w1, #0x23                  	// #35
    100b70b8:	17fffff8 	b	100b7098 <tf_log+0x34>
    100b70bc:	b0000021 	adrp	x1, 100bc000 <__RODATA_END__>
    100b70c0:	b943a821 	ldr	w1, [x1, #936]
    100b70c4:	6b00003f 	cmp	w1, w0
    100b70c8:	54000263 	b.cc	100b7114 <tf_log+0xb0>  // b.lo, b.ul, b.last
    100b70cc:	9400009d 	bl	100b7340 <plat_log_get_prefix>
    100b70d0:	aa0003f3 	mov	x19, x0
    100b70d4:	39400260 	ldrb	w0, [x19]
    100b70d8:	35000240 	cbnz	w0, 100b7120 <tf_log+0xbc>
    100b70dc:	910283e0 	add	x0, sp, #0xa0
    100b70e0:	a90403e0 	stp	x0, x0, [sp, #64]
    100b70e4:	910183e0 	add	x0, sp, #0x60
    100b70e8:	f9002be0 	str	x0, [sp, #80]
    100b70ec:	128006e0 	mov	w0, #0xffffffc8            	// #-56
    100b70f0:	b9005be0 	str	w0, [sp, #88]
    100b70f4:	b9005fff 	str	wzr, [sp, #92]
    100b70f8:	a94407e0 	ldp	x0, x1, [sp, #64]
    100b70fc:	a90207e0 	stp	x0, x1, [sp, #32]
    100b7100:	a94507e0 	ldp	x0, x1, [sp, #80]
    100b7104:	a90307e0 	stp	x0, x1, [sp, #48]
    100b7108:	910083e1 	add	x1, sp, #0x20
    100b710c:	91000680 	add	x0, x20, #0x1
    100b7110:	94000621 	bl	100b8994 <vprintf>
    100b7114:	a94153f3 	ldp	x19, x20, [sp, #16]
    100b7118:	a8ca7bfd 	ldp	x29, x30, [sp], #160
    100b711c:	d65f03c0 	ret
    100b7120:	91000673 	add	x19, x19, #0x1
    100b7124:	94000731 	bl	100b8de8 <putchar>
    100b7128:	17ffffeb 	b	100b70d4 <tf_log+0x70>

00000000100b712c <console_is_registered>:
    100b712c:	b50000e0 	cbnz	x0, 100b7148 <console_is_registered+0x1c>
    100b7130:	a9bf7bfd 	stp	x29, x30, [sp, #-16]!
    100b7134:	f0000000 	adrp	x0, 100ba000 <__TEXT_END__>
    100b7138:	913d6400 	add	x0, x0, #0xf59
    100b713c:	910003fd 	mov	x29, sp
    100b7140:	52800681 	mov	w1, #0x34                  	// #52
    100b7144:	940005ab 	bl	100b87f0 <__assert>
    100b7148:	b0000041 	adrp	x1, 100c0000 <__STACKS_START__+0x3bc0>
    100b714c:	f944f821 	ldr	x1, [x1, #2544]
    100b7150:	b5000061 	cbnz	x1, 100b715c <console_is_registered+0x30>
    100b7154:	52800000 	mov	w0, #0x0                   	// #0
    100b7158:	d65f03c0 	ret
    100b715c:	eb00003f 	cmp	x1, x0
    100b7160:	54000060 	b.eq	100b716c <console_is_registered+0x40>  // b.none
    100b7164:	f9400021 	ldr	x1, [x1]
    100b7168:	17fffffa 	b	100b7150 <console_is_registered+0x24>
    100b716c:	52800020 	mov	w0, #0x1                   	// #1
    100b7170:	d65f03c0 	ret

00000000100b7174 <console_register>:
    100b7174:	a9be7bfd 	stp	x29, x30, [sp, #-32]!
    100b7178:	910003fd 	mov	x29, sp
    100b717c:	f9000bf3 	str	x19, [sp, #16]
    100b7180:	aa0003f3 	mov	x19, x0
    100b7184:	b0000020 	adrp	x0, 100bc000 <__RODATA_END__>
    100b7188:	91110000 	add	x0, x0, #0x440
    100b718c:	eb00027f 	cmp	x19, x0
    100b7190:	54000123 	b.cc	100b71b4 <console_register+0x40>  // b.lo, b.ul, b.last
    100b7194:	b0000040 	adrp	x0, 100c0000 <__STACKS_START__+0x3bc0>
    100b7198:	91110000 	add	x0, x0, #0x440
    100b719c:	eb00027f 	cmp	x19, x0
    100b71a0:	540000a2 	b.cs	100b71b4 <console_register+0x40>  // b.hs, b.nlast
    100b71a4:	f0000000 	adrp	x0, 100ba000 <__TEXT_END__>
    100b71a8:	913d6400 	add	x0, x0, #0xf59
    100b71ac:	52800281 	mov	w1, #0x14                  	// #20
    100b71b0:	94000590 	bl	100b87f0 <__assert>
    100b71b4:	aa1303e0 	mov	x0, x19
    100b71b8:	97ffffdd 	bl	100b712c <console_is_registered>
    100b71bc:	7100041f 	cmp	w0, #0x1
    100b71c0:	540000a0 	b.eq	100b71d4 <console_register+0x60>  // b.none
    100b71c4:	b0000040 	adrp	x0, 100c0000 <__STACKS_START__+0x3bc0>
    100b71c8:	f944f801 	ldr	x1, [x0, #2544]
    100b71cc:	f9000261 	str	x1, [x19]
    100b71d0:	f904f813 	str	x19, [x0, #2544]
    100b71d4:	52800020 	mov	w0, #0x1                   	// #1
    100b71d8:	f9400bf3 	ldr	x19, [sp, #16]
    100b71dc:	a8c27bfd 	ldp	x29, x30, [sp], #32
    100b71e0:	d65f03c0 	ret

00000000100b71e4 <console_set_scope>:
    100b71e4:	b50000e0 	cbnz	x0, 100b7200 <console_set_scope+0x1c>
    100b71e8:	a9bf7bfd 	stp	x29, x30, [sp, #-16]!
    100b71ec:	f0000000 	adrp	x0, 100ba000 <__TEXT_END__>
    100b71f0:	913d6400 	add	x0, x0, #0xf59
    100b71f4:	910003fd 	mov	x29, sp
    100b71f8:	52800881 	mov	w1, #0x44                  	// #68
    100b71fc:	9400057d 	bl	100b87f0 <__assert>
    100b7200:	f9400402 	ldr	x2, [x0, #8]
    100b7204:	2a0103e1 	mov	w1, w1
    100b7208:	92785c42 	and	x2, x2, #0xffffff00
    100b720c:	aa010041 	orr	x1, x2, x1
    100b7210:	f9000401 	str	x1, [x0, #8]
    100b7214:	d65f03c0 	ret

00000000100b7218 <console_putc>:
    100b7218:	a9bd7bfd 	stp	x29, x30, [sp, #-48]!
    100b721c:	910003fd 	mov	x29, sp
    100b7220:	a90153f3 	stp	x19, x20, [sp, #16]
    100b7224:	12800ff4 	mov	w20, #0xffffff80            	// #-128
    100b7228:	a9025bf5 	stp	x21, x22, [sp, #32]
    100b722c:	2a0003f5 	mov	w21, w0
    100b7230:	b0000040 	adrp	x0, 100c0000 <__STACKS_START__+0x3bc0>
    100b7234:	f944f813 	ldr	x19, [x0, #2544]
    100b7238:	b0000036 	adrp	x22, 100bc000 <__RODATA_END__>
    100b723c:	910eb2d6 	add	x22, x22, #0x3ac
    100b7240:	b50000d3 	cbnz	x19, 100b7258 <console_putc+0x40>
    100b7244:	2a1403e0 	mov	w0, w20
    100b7248:	a94153f3 	ldp	x19, x20, [sp, #16]
    100b724c:	a9425bf5 	ldp	x21, x22, [sp, #32]
    100b7250:	a8c37bfd 	ldp	x29, x30, [sp], #48
    100b7254:	d65f03c0 	ret
    100b7258:	f9400660 	ldr	x0, [x19, #8]
    100b725c:	394002c1 	ldrb	w1, [x22]
    100b7260:	ea00003f 	tst	x1, x0
    100b7264:	54000180 	b.eq	100b7294 <console_putc+0x7c>  // b.none
    100b7268:	f9400a62 	ldr	x2, [x19, #16]
    100b726c:	b4000142 	cbz	x2, 100b7294 <console_putc+0x7c>
    100b7270:	71002abf 	cmp	w21, #0xa
    100b7274:	54000140 	b.eq	100b729c <console_putc+0x84>  // b.none
    100b7278:	f9400a62 	ldr	x2, [x19, #16]
    100b727c:	aa1303e1 	mov	x1, x19
    100b7280:	2a1503e0 	mov	w0, w21
    100b7284:	d63f0040 	blr	x2
    100b7288:	3102029f 	cmn	w20, #0x80
    100b728c:	7a401280 	ccmp	w20, w0, #0x0, ne  // ne = any
    100b7290:	1a80d294 	csel	w20, w20, w0, le
    100b7294:	f9400273 	ldr	x19, [x19]
    100b7298:	17ffffea 	b	100b7240 <console_putc+0x28>
    100b729c:	3647fee0 	tbz	w0, #8, 100b7278 <console_putc+0x60>
    100b72a0:	aa1303e1 	mov	x1, x19
    100b72a4:	528001a0 	mov	w0, #0xd                   	// #13
    100b72a8:	d63f0040 	blr	x2
    100b72ac:	36fffe60 	tbz	w0, #31, 100b7278 <console_putc+0x60>
    100b72b0:	17fffff6 	b	100b7288 <console_putc+0x70>

00000000100b72b4 <console_flush>:
    100b72b4:	a9bd7bfd 	stp	x29, x30, [sp, #-48]!
    100b72b8:	910003fd 	mov	x29, sp
    100b72bc:	a90153f3 	stp	x19, x20, [sp, #16]
    100b72c0:	b0000040 	adrp	x0, 100c0000 <__STACKS_START__+0x3bc0>
    100b72c4:	f944f813 	ldr	x19, [x0, #2544]
    100b72c8:	f90013f5 	str	x21, [sp, #32]
    100b72cc:	b0000035 	adrp	x21, 100bc000 <__RODATA_END__>
    100b72d0:	910eb2b5 	add	x21, x21, #0x3ac
    100b72d4:	12800ff4 	mov	w20, #0xffffff80            	// #-128
    100b72d8:	b50000d3 	cbnz	x19, 100b72f0 <console_flush+0x3c>
    100b72dc:	2a1403e0 	mov	w0, w20
    100b72e0:	a94153f3 	ldp	x19, x20, [sp, #16]
    100b72e4:	f94013f5 	ldr	x21, [sp, #32]
    100b72e8:	a8c37bfd 	ldp	x29, x30, [sp], #48
    100b72ec:	d65f03c0 	ret
    100b72f0:	f9400660 	ldr	x0, [x19, #8]
    100b72f4:	394002a1 	ldrb	w1, [x21]
    100b72f8:	ea00003f 	tst	x1, x0
    100b72fc:	54000100 	b.eq	100b731c <console_flush+0x68>  // b.none
    100b7300:	f9401261 	ldr	x1, [x19, #32]
    100b7304:	b40000c1 	cbz	x1, 100b731c <console_flush+0x68>
    100b7308:	aa1303e0 	mov	x0, x19
    100b730c:	d63f0020 	blr	x1
    100b7310:	3102029f 	cmn	w20, #0x80
    100b7314:	7a401280 	ccmp	w20, w0, #0x0, ne  // ne = any
    100b7318:	1a80d294 	csel	w20, w20, w0, le
    100b731c:	f9400273 	ldr	x19, [x19]
    100b7320:	17ffffee 	b	100b72d8 <console_flush+0x24>

00000000100b7324 <plat_error_handler>:
    100b7324:	d503207f 	wfi
    100b7328:	17ffffff 	b	100b7324 <plat_error_handler>

00000000100b732c <bl2_plat_preload_setup>:
    100b732c:	d65f03c0 	ret

00000000100b7330 <bl2_plat_handle_pre_image_load>:
    100b7330:	52800000 	mov	w0, #0x0                   	// #0
    100b7334:	d65f03c0 	ret

00000000100b7338 <plat_try_next_boot_source>:
    100b7338:	52800000 	mov	w0, #0x0                   	// #0
    100b733c:	d65f03c0 	ret

00000000100b7340 <plat_log_get_prefix>:
    100b7340:	7100c81f 	cmp	w0, #0x32
    100b7344:	52800641 	mov	w1, #0x32                  	// #50
    100b7348:	1a819000 	csel	w0, w0, w1, ls  // ls = plast
    100b734c:	52800141 	mov	w1, #0xa                   	// #10
    100b7350:	6b01001f 	cmp	w0, w1
    100b7354:	1a812000 	csel	w0, w0, w1, cs  // cs = hs, nlast
    100b7358:	1ac10800 	udiv	w0, w0, w1
    100b735c:	f0000001 	adrp	x1, 100ba000 <__TEXT_END__>
    100b7360:	913ec021 	add	x1, x1, #0xfb0
    100b7364:	51000400 	sub	w0, w0, #0x1
    100b7368:	f8607820 	ldr	x0, [x1, x0, lsl #3]
    100b736c:	d65f03c0 	ret

00000000100b7370 <is_address_readable>:
    100b7370:	d5384241 	mrs	x1, currentel
    100b7374:	53020c21 	ubfx	w1, w1, #2, #2
    100b7378:	71000c3f 	cmp	w1, #0x3
    100b737c:	540000e1 	b.ne	100b7398 <is_address_readable+0x28>  // b.any
    100b7380:	d50e7800 	at	s1e3r, x0
    100b7384:	d5033fdf 	isb
    100b7388:	d5387400 	mrs	x0, par_el1
    100b738c:	aa2003e0 	mvn	x0, x0
    100b7390:	12000000 	and	w0, w0, #0x1
    100b7394:	d65f03c0 	ret
    100b7398:	7100083f 	cmp	w1, #0x2
    100b739c:	54000061 	b.ne	100b73a8 <is_address_readable+0x38>  // b.any
    100b73a0:	d50c7800 	at	s1e2r, x0
    100b73a4:	17fffff8 	b	100b7384 <is_address_readable+0x14>
    100b73a8:	d5087800 	at	s1e1r, x0
    100b73ac:	17fffff6 	b	100b7384 <is_address_readable+0x14>

00000000100b73b0 <is_valid_object.constprop.0>:
    100b73b0:	aa0003e2 	mov	x2, x0
    100b73b4:	d1000400 	sub	x0, x0, #0x1
    100b73b8:	b100481f 	cmn	x0, #0x12
    100b73bc:	54000208 	b.hi	100b73fc <is_valid_object.constprop.0+0x4c>  // b.pmore
    100b73c0:	f2400843 	ands	x3, x2, #0x7
    100b73c4:	540001c1 	b.ne	100b73fc <is_valid_object.constprop.0+0x4c>  // b.any
    100b73c8:	a9bf7bfd 	stp	x29, x30, [sp, #-16]!
    100b73cc:	910003fd 	mov	x29, sp
    100b73d0:	8b030040 	add	x0, x2, x3
    100b73d4:	97ffffe7 	bl	100b7370 <is_address_readable>
    100b73d8:	72001c00 	ands	w0, w0, #0xff
    100b73dc:	540000c0 	b.eq	100b73f4 <is_valid_object.constprop.0+0x44>  // b.none
    100b73e0:	91000463 	add	x3, x3, #0x1
    100b73e4:	f100407f 	cmp	x3, #0x10
    100b73e8:	54ffff41 	b.ne	100b73d0 <is_valid_object.constprop.0+0x20>  // b.any
    100b73ec:	a8c17bfd 	ldp	x29, x30, [sp], #16
    100b73f0:	d65f03c0 	ret
    100b73f4:	52800000 	mov	w0, #0x0                   	// #0
    100b73f8:	17fffffd 	b	100b73ec <is_valid_object.constprop.0+0x3c>
    100b73fc:	52800000 	mov	w0, #0x0                   	// #0
    100b7400:	d65f03c0 	ret

00000000100b7404 <backtrace>:
    100b7404:	a9bc7bfd 	stp	x29, x30, [sp, #-64]!
    100b7408:	910003fd 	mov	x29, sp
    100b740c:	a90153f3 	stp	x19, x20, [sp, #16]
    100b7410:	aa1d03f4 	mov	x20, x29
    100b7414:	a9025bf5 	stp	x21, x22, [sp, #32]
    100b7418:	aa1e03f6 	mov	x22, x30
    100b741c:	aa0003f5 	mov	x21, x0
    100b7420:	f9001bf7 	str	x23, [sp, #48]
    100b7424:	97ffffa4 	bl	100b72b4 <console_flush>
    100b7428:	aa1503e1 	mov	x1, x21
    100b742c:	f0000000 	adrp	x0, 100ba000 <__TEXT_END__>
    100b7430:	913f9800 	add	x0, x0, #0xfe6
    100b7434:	94000658 	bl	100b8d94 <printf>
    100b7438:	d5384240 	mrs	x0, currentel
    100b743c:	53020c00 	ubfx	w0, w0, #2, #2
    100b7440:	71000c1f 	cmp	w0, #0x3
    100b7444:	540002e0 	b.eq	100b74a0 <backtrace+0x9c>  // b.none
    100b7448:	f0000013 	adrp	x19, 100ba000 <__TEXT_END__>
    100b744c:	7100081f 	cmp	w0, #0x2
    100b7450:	f0000001 	adrp	x1, 100ba000 <__TEXT_END__>
    100b7454:	913f8260 	add	x0, x19, #0xfe0
    100b7458:	913f7033 	add	x19, x1, #0xfdc
    100b745c:	9a800273 	csel	x19, x19, x0, eq  // eq = none
    100b7460:	aa1403e0 	mov	x0, x20
    100b7464:	97ffffd3 	bl	100b73b0 <is_valid_object.constprop.0>
    100b7468:	72001c1f 	tst	w0, #0xff
    100b746c:	54000201 	b.ne	100b74ac <backtrace+0xa8>  // b.any
    100b7470:	f0000000 	adrp	x0, 100ba000 <__TEXT_END__>
    100b7474:	913ff000 	add	x0, x0, #0xffc
    100b7478:	aa1403e1 	mov	x1, x20
    100b747c:	94000646 	bl	100b8d94 <printf>
    100b7480:	aa1503e1 	mov	x1, x21
    100b7484:	90000020 	adrp	x0, 100bb000 <plat_prefix_str+0x50>
    100b7488:	91027c00 	add	x0, x0, #0x9f
    100b748c:	a94153f3 	ldp	x19, x20, [sp, #16]
    100b7490:	a9425bf5 	ldp	x21, x22, [sp, #32]
    100b7494:	f9401bf7 	ldr	x23, [sp, #48]
    100b7498:	a8c47bfd 	ldp	x29, x30, [sp], #64
    100b749c:	1400063e 	b	100b8d94 <printf>
    100b74a0:	f0000013 	adrp	x19, 100ba000 <__TEXT_END__>
    100b74a4:	913f6273 	add	x19, x19, #0xfd8
    100b74a8:	17ffffee 	b	100b7460 <backtrace+0x5c>
    100b74ac:	f9400680 	ldr	x0, [x20, #8]
    100b74b0:	eb0002df 	cmp	x22, x0
    100b74b4:	540000a0 	b.eq	100b74c8 <backtrace+0xc4>  // b.none
    100b74b8:	90000020 	adrp	x0, 100bb000 <plat_prefix_str+0x50>
    100b74bc:	9100e000 	add	x0, x0, #0x38
    100b74c0:	aa1403e1 	mov	x1, x20
    100b74c4:	17ffffee 	b	100b747c <backtrace+0x78>
    100b74c8:	52800036 	mov	w22, #0x1                   	// #1
    100b74cc:	90000037 	adrp	x23, 100bb000 <plat_prefix_str+0x50>
    100b74d0:	9101b2f7 	add	x23, x23, #0x6c
    100b74d4:	aa1303e2 	mov	x2, x19
    100b74d8:	aa1703e0 	mov	x0, x23
    100b74dc:	90000003 	adrp	x3, 100b7000 <load_auth_image+0x144>
    100b74e0:	91101063 	add	x3, x3, #0x404
    100b74e4:	52800001 	mov	w1, #0x0                   	// #0
    100b74e8:	9400062b 	bl	100b8d94 <printf>
    100b74ec:	aa1403e0 	mov	x0, x20
    100b74f0:	97ffffb0 	bl	100b73b0 <is_valid_object.constprop.0>
    100b74f4:	72001c1f 	tst	w0, #0xff
    100b74f8:	54fffc40 	b.eq	100b7480 <backtrace+0x7c>  // b.none
    100b74fc:	f9400683 	ldr	x3, [x20, #8]
    100b7500:	f1001063 	subs	x3, x3, #0x4
    100b7504:	54fffbe0 	b.eq	100b7480 <backtrace+0x7c>  // b.none
    100b7508:	f240047f 	tst	x3, #0x3
    100b750c:	54fffba1 	b.ne	100b7480 <backtrace+0x7c>  // b.any
    100b7510:	aa0303e0 	mov	x0, x3
    100b7514:	97ffff97 	bl	100b7370 <is_address_readable>
    100b7518:	72001c1f 	tst	w0, #0xff
    100b751c:	54fffb20 	b.eq	100b7480 <backtrace+0x7c>  // b.none
    100b7520:	2a1603e1 	mov	w1, w22
    100b7524:	aa1303e2 	mov	x2, x19
    100b7528:	aa1703e0 	mov	x0, x23
    100b752c:	110006d6 	add	w22, w22, #0x1
    100b7530:	94000619 	bl	100b8d94 <printf>
    100b7534:	710052df 	cmp	w22, #0x14
    100b7538:	f9400294 	ldr	x20, [x20]
    100b753c:	54fffd81 	b.ne	100b74ec <backtrace+0xe8>  // b.any
    100b7540:	90000020 	adrp	x0, 100bb000 <plat_prefix_str+0x50>
    100b7544:	9101ec00 	add	x0, x0, #0x7b
    100b7548:	94000613 	bl	100b8d94 <printf>
    100b754c:	17ffffcd 	b	100b7480 <backtrace+0x7c>

00000000100b7550 <rpi3_console_init>:
    100b7550:	a9be7bfd 	stp	x29, x30, [sp, #-32]!
    100b7554:	2a0003e1 	mov	w1, w0
    100b7558:	52984002 	mov	w2, #0xc200                	// #49664
    100b755c:	72a00022 	movk	w2, #0x1, lsl #16
    100b7560:	910003fd 	mov	x29, sp
    100b7564:	d28a0800 	mov	x0, #0x5040                	// #20544
    100b7568:	f2a7e420 	movk	x0, #0x3f21, lsl #16
    100b756c:	f9000bf3 	str	x19, [sp, #16]
    100b7570:	b0000053 	adrp	x19, 100c0000 <__STACKS_START__+0x3bc0>
    100b7574:	9120c273 	add	x19, x19, #0x830
    100b7578:	aa1303e3 	mov	x3, x19
    100b757c:	9400042e 	bl	100b8634 <console_16550_register>
    100b7580:	350000c0 	cbnz	w0, 100b7598 <rpi3_console_init+0x48>
    100b7584:	90000020 	adrp	x0, 100bb000 <plat_prefix_str+0x50>
    100b7588:	9102cc00 	add	x0, x0, #0xb3
    100b758c:	97ffff9e 	bl	100b7404 <backtrace>
    100b7590:	97ffff49 	bl	100b72b4 <console_flush>
    100b7594:	94000386 	bl	100b83ac <do_panic>
    100b7598:	aa1303e0 	mov	x0, x19
    100b759c:	52800021 	mov	w1, #0x1                   	// #1
    100b75a0:	f9400bf3 	ldr	x19, [sp, #16]
    100b75a4:	a8c27bfd 	ldp	x29, x30, [sp], #32
    100b75a8:	17ffff0f 	b	100b71e4 <console_set_scope>

00000000100b75ac <rpi3_setup_page_tables>:
    100b75ac:	a9bc7bfd 	stp	x29, x30, [sp, #-64]!
    100b75b0:	910003fd 	mov	x29, sp
    100b75b4:	a90153f3 	stp	x19, x20, [sp, #16]
    100b75b8:	aa0403f4 	mov	x20, x4
    100b75bc:	aa0603f3 	mov	x19, x6
    100b75c0:	a9025bf5 	stp	x21, x22, [sp, #32]
    100b75c4:	aa0703f6 	mov	x22, x7
    100b75c8:	aa0203f5 	mov	x21, x2
    100b75cc:	aa0103e2 	mov	x2, x1
    100b75d0:	aa0003e1 	mov	x1, x0
    100b75d4:	a90363f7 	stp	x23, x24, [sp, #48]
    100b75d8:	aa0503f7 	mov	x23, x5
    100b75dc:	aa0303f8 	mov	x24, x3
    100b75e0:	52800143 	mov	w3, #0xa                   	// #10
    100b75e4:	940000dd 	bl	100b7958 <mmap_add_region>
    100b75e8:	cb150302 	sub	x2, x24, x21
    100b75ec:	aa1503e1 	mov	x1, x21
    100b75f0:	aa1503e0 	mov	x0, x21
    100b75f4:	52800043 	mov	w3, #0x2                   	// #2
    100b75f8:	940000d8 	bl	100b7958 <mmap_add_region>
    100b75fc:	cb1402e2 	sub	x2, x23, x20
    100b7600:	aa1403e1 	mov	x1, x20
    100b7604:	aa1403e0 	mov	x0, x20
    100b7608:	52800443 	mov	w3, #0x22                  	// #34
    100b760c:	940000d3 	bl	100b7958 <mmap_add_region>
    100b7610:	cb1302c2 	sub	x2, x22, x19
    100b7614:	aa1303e1 	mov	x1, x19
    100b7618:	52800103 	mov	w3, #0x8                   	// #8
    100b761c:	aa1303e0 	mov	x0, x19
    100b7620:	940000ce 	bl	100b7958 <mmap_add_region>
    100b7624:	90000020 	adrp	x0, 100bb000 <plat_prefix_str+0x50>
    100b7628:	91032000 	add	x0, x0, #0xc8
    100b762c:	940000d8 	bl	100b798c <mmap_add>
    100b7630:	a94153f3 	ldp	x19, x20, [sp, #16]
    100b7634:	a9425bf5 	ldp	x21, x22, [sp, #32]
    100b7638:	a94363f7 	ldp	x23, x24, [sp, #48]
    100b763c:	a8c47bfd 	ldp	x29, x30, [sp], #64
    100b7640:	140000d7 	b	100b799c <init_xlat_tables>

00000000100b7644 <rpi3_get_spsr_for_bl32_entry>:
    100b7644:	52800000 	mov	w0, #0x0                   	// #0
    100b7648:	d65f03c0 	ret

00000000100b764c <rpi3_get_spsr_for_bl33_entry>:
    100b764c:	52807920 	mov	w0, #0x3c9                 	// #969
    100b7650:	d65f03c0 	ret

00000000100b7654 <plat_get_syscnt_freq2>:
    100b7654:	529f0000 	mov	w0, #0xf800                	// #63488
    100b7658:	72a02480 	movk	w0, #0x124, lsl #16
    100b765c:	d65f03c0 	ret

00000000100b7660 <tcr_physical_addr_size_bits>:
    100b7660:	f2503c1f 	tst	x0, #0xffff000000000000
    100b7664:	540000e0 	b.eq	100b7680 <tcr_physical_addr_size_bits+0x20>  // b.none
    100b7668:	a9bf7bfd 	stp	x29, x30, [sp, #-16]!
    100b766c:	90000020 	adrp	x0, 100bb000 <plat_prefix_str+0x50>
    100b7670:	9106e000 	add	x0, x0, #0x1b8
    100b7674:	910003fd 	mov	x29, sp
    100b7678:	52800761 	mov	w1, #0x3b                  	// #59
    100b767c:	9400045d 	bl	100b87f0 <__assert>
    100b7680:	f2540c1f 	tst	x0, #0xf00000000000
    100b7684:	54000141 	b.ne	100b76ac <tcr_physical_addr_size_bits+0x4c>  // b.any
    100b7688:	f256041f 	tst	x0, #0xc0000000000
    100b768c:	54000141 	b.ne	100b76b4 <tcr_physical_addr_size_bits+0x54>  // b.any
    100b7690:	f258041f 	tst	x0, #0x30000000000
    100b7694:	54000141 	b.ne	100b76bc <tcr_physical_addr_size_bits+0x5c>  // b.any
    100b7698:	f25c0c1f 	tst	x0, #0xf000000000
    100b769c:	54000141 	b.ne	100b76c4 <tcr_physical_addr_size_bits+0x64>  // b.any
    100b76a0:	f2600c1f 	tst	x0, #0xf00000000
    100b76a4:	9a9f07e0 	cset	x0, ne  // ne = any
    100b76a8:	d65f03c0 	ret
    100b76ac:	d28000a0 	mov	x0, #0x5                   	// #5
    100b76b0:	d65f03c0 	ret
    100b76b4:	d2800080 	mov	x0, #0x4                   	// #4
    100b76b8:	d65f03c0 	ret
    100b76bc:	d2800060 	mov	x0, #0x3                   	// #3
    100b76c0:	d65f03c0 	ret
    100b76c4:	d2800040 	mov	x0, #0x2                   	// #2
    100b76c8:	d65f03c0 	ret

00000000100b76cc <xlat_arch_get_max_supported_pa>:
    100b76cc:	d5380700 	mrs	x0, id_aa64mmfr0_el1
    100b76d0:	92400c00 	and	x0, x0, #0xf
    100b76d4:	f100181f 	cmp	x0, #0x6
    100b76d8:	540000e9 	b.ls	100b76f4 <xlat_arch_get_max_supported_pa+0x28>  // b.plast
    100b76dc:	a9bf7bfd 	stp	x29, x30, [sp, #-16]!
    100b76e0:	90000020 	adrp	x0, 100bb000 <plat_prefix_str+0x50>
    100b76e4:	9106e000 	add	x0, x0, #0x1b8
    100b76e8:	910003fd 	mov	x29, sp
    100b76ec:	52800c81 	mov	w1, #0x64                  	// #100
    100b76f0:	94000440 	bl	100b87f0 <__assert>
    100b76f4:	90000021 	adrp	x1, 100bb000 <plat_prefix_str+0x50>
    100b76f8:	9107a021 	add	x1, x1, #0x1e8
    100b76fc:	b8607821 	ldr	w1, [x1, x0, lsl #2]
    100b7700:	d2800020 	mov	x0, #0x1                   	// #1
    100b7704:	9ac12000 	lsl	x0, x0, x1
    100b7708:	d1000400 	sub	x0, x0, #0x1
    100b770c:	d65f03c0 	ret

00000000100b7710 <xlat_get_min_virt_addr_space_size>:
    100b7710:	d5380740 	mrs	x0, id_aa64mmfr2_el1
    100b7714:	531c7c00 	lsr	w0, w0, #28
    100b7718:	d2a00021 	mov	x1, #0x10000               	// #65536
    100b771c:	f100041f 	cmp	x0, #0x1
    100b7720:	d2a04000 	mov	x0, #0x2000000             	// #33554432
    100b7724:	9a800020 	csel	x0, x1, x0, eq  // eq = none
    100b7728:	d65f03c0 	ret

00000000100b772c <is_dcache_enabled>:
    100b772c:	d5384240 	mrs	x0, currentel
    100b7730:	53020c00 	ubfx	w0, w0, #2, #2
    100b7734:	7100041f 	cmp	w0, #0x1
    100b7738:	54000081 	b.ne	100b7748 <is_dcache_enabled+0x1c>  // b.any
    100b773c:	d5381000 	mrs	x0, sctlr_el1
    100b7740:	53020800 	ubfx	w0, w0, #2, #1
    100b7744:	d65f03c0 	ret
    100b7748:	7100081f 	cmp	w0, #0x2
    100b774c:	54000061 	b.ne	100b7758 <is_dcache_enabled+0x2c>  // b.any
    100b7750:	d53c1000 	mrs	x0, sctlr_el2
    100b7754:	17fffffb 	b	100b7740 <is_dcache_enabled+0x14>
    100b7758:	d53e1000 	mrs	x0, sctlr_el3
    100b775c:	17fffff9 	b	100b7740 <is_dcache_enabled+0x14>

00000000100b7760 <xlat_arch_regime_get_xn_desc>:
    100b7760:	7100041f 	cmp	w0, #0x1
    100b7764:	54000160 	b.eq	100b7790 <xlat_arch_regime_get_xn_desc+0x30>  // b.none
    100b7768:	51000801 	sub	w1, w0, #0x2
    100b776c:	d2e00800 	mov	x0, #0x40000000000000      	// #18014398509481984
    100b7770:	7100043f 	cmp	w1, #0x1
    100b7774:	54000109 	b.ls	100b7794 <xlat_arch_regime_get_xn_desc+0x34>  // b.plast
    100b7778:	a9bf7bfd 	stp	x29, x30, [sp, #-16]!
    100b777c:	90000020 	adrp	x0, 100bb000 <plat_prefix_str+0x50>
    100b7780:	9106e000 	add	x0, x0, #0x1b8
    100b7784:	910003fd 	mov	x29, sp
    100b7788:	52801341 	mov	w1, #0x9a                  	// #154
    100b778c:	94000419 	bl	100b87f0 <__assert>
    100b7790:	d2e00c00 	mov	x0, #0x60000000000000      	// #27021597764222976
    100b7794:	d65f03c0 	ret

00000000100b7798 <xlat_arch_current_el>:
    100b7798:	d5384241 	mrs	x1, currentel
    100b779c:	53020c20 	ubfx	w0, w1, #2, #2
    100b77a0:	721e043f 	tst	w1, #0xc
    100b77a4:	540000e1 	b.ne	100b77c0 <xlat_arch_current_el+0x28>  // b.any
    100b77a8:	a9bf7bfd 	stp	x29, x30, [sp, #-16]!
    100b77ac:	90000020 	adrp	x0, 100bb000 <plat_prefix_str+0x50>
    100b77b0:	9106e000 	add	x0, x0, #0x1b8
    100b77b4:	910003fd 	mov	x29, sp
    100b77b8:	52801ae1 	mov	w1, #0xd7                  	// #215
    100b77bc:	9400040d 	bl	100b87f0 <__assert>
    100b77c0:	d65f03c0 	ret

00000000100b77c4 <is_mmu_enabled_ctx>:
    100b77c4:	a9bf7bfd 	stp	x29, x30, [sp, #-16]!
    100b77c8:	910003fd 	mov	x29, sp
    100b77cc:	b9405800 	ldr	w0, [x0, #88]
    100b77d0:	7100041f 	cmp	w0, #0x1
    100b77d4:	54000161 	b.ne	100b7800 <is_mmu_enabled_ctx+0x3c>  // b.any
    100b77d8:	97fffff0 	bl	100b7798 <xlat_arch_current_el>
    100b77dc:	350000a0 	cbnz	w0, 100b77f0 <is_mmu_enabled_ctx+0x2c>
    100b77e0:	52800f81 	mov	w1, #0x7c                  	// #124
    100b77e4:	90000020 	adrp	x0, 100bb000 <plat_prefix_str+0x50>
    100b77e8:	9106e000 	add	x0, x0, #0x1b8
    100b77ec:	94000401 	bl	100b87f0 <__assert>
    100b77f0:	d5381000 	mrs	x0, sctlr_el1
    100b77f4:	12000000 	and	w0, w0, #0x1
    100b77f8:	a8c17bfd 	ldp	x29, x30, [sp], #16
    100b77fc:	d65f03c0 	ret
    100b7800:	7100081f 	cmp	w0, #0x2
    100b7804:	54000101 	b.ne	100b7824 <is_mmu_enabled_ctx+0x60>  // b.any
    100b7808:	97ffffe4 	bl	100b7798 <xlat_arch_current_el>
    100b780c:	7100041f 	cmp	w0, #0x1
    100b7810:	54000068 	b.hi	100b781c <is_mmu_enabled_ctx+0x58>  // b.pmore
    100b7814:	52800fe1 	mov	w1, #0x7f                  	// #127
    100b7818:	17fffff3 	b	100b77e4 <is_mmu_enabled_ctx+0x20>
    100b781c:	d53c1000 	mrs	x0, sctlr_el2
    100b7820:	17fffff5 	b	100b77f4 <is_mmu_enabled_ctx+0x30>
    100b7824:	71000c1f 	cmp	w0, #0x3
    100b7828:	54000060 	b.eq	100b7834 <is_mmu_enabled_ctx+0x70>  // b.none
    100b782c:	52801041 	mov	w1, #0x82                  	// #130
    100b7830:	17ffffed 	b	100b77e4 <is_mmu_enabled_ctx+0x20>
    100b7834:	97ffffd9 	bl	100b7798 <xlat_arch_current_el>
    100b7838:	7100081f 	cmp	w0, #0x2
    100b783c:	54000068 	b.hi	100b7848 <is_mmu_enabled_ctx+0x84>  // b.pmore
    100b7840:	52801061 	mov	w1, #0x83                  	// #131
    100b7844:	17ffffe8 	b	100b77e4 <is_mmu_enabled_ctx+0x20>
    100b7848:	d53e1000 	mrs	x0, sctlr_el3
    100b784c:	17ffffea 	b	100b77f4 <is_mmu_enabled_ctx+0x30>

00000000100b7850 <setup_mmu_cfg>:
    100b7850:	a9bd7bfd 	stp	x29, x30, [sp, #-48]!
    100b7854:	b100049f 	cmn	x4, #0x1
    100b7858:	910003fd 	mov	x29, sp
    100b785c:	a90153f3 	stp	x19, x20, [sp, #16]
    100b7860:	a9025bf5 	stp	x21, x22, [sp, #32]
    100b7864:	540000a1 	b.ne	100b7878 <setup_mmu_cfg+0x28>  // b.any
    100b7868:	52801d81 	mov	w1, #0xec                  	// #236
    100b786c:	90000020 	adrp	x0, 100bb000 <plat_prefix_str+0x50>
    100b7870:	9106e000 	add	x0, x0, #0x1b8
    100b7874:	940003df 	bl	100b87f0 <__assert>
    100b7878:	2a0103e6 	mov	w6, w1
    100b787c:	91000493 	add	x19, x4, #0x1
    100b7880:	aa0003f5 	mov	x21, x0
    100b7884:	97ffffa3 	bl	100b7710 <xlat_get_min_virt_addr_space_size>
    100b7888:	eb13001f 	cmp	x0, x19
    100b788c:	54000069 	b.ls	100b7898 <setup_mmu_cfg+0x48>  // b.plast
    100b7890:	52801e01 	mov	w1, #0xf0                  	// #240
    100b7894:	17fffff6 	b	100b786c <setup_mmu_cfg+0x1c>
    100b7898:	d2e00020 	mov	x0, #0x1000000000000       	// #281474976710656
    100b789c:	eb00027f 	cmp	x19, x0
    100b78a0:	54000069 	b.ls	100b78ac <setup_mmu_cfg+0x5c>  // b.plast
    100b78a4:	52801e41 	mov	w1, #0xf2                  	// #242
    100b78a8:	17fffff1 	b	100b786c <setup_mmu_cfg+0x1c>
    100b78ac:	ea13009f 	tst	x4, x19
    100b78b0:	54000060 	b.eq	100b78bc <setup_mmu_cfg+0x6c>  // b.none
    100b78b4:	52801e61 	mov	w1, #0xf3                  	// #243
    100b78b8:	17ffffed 	b	100b786c <setup_mmu_cfg+0x1c>
    100b78bc:	dac00261 	rbit	x1, x19
    100b78c0:	aa0203f4 	mov	x20, x2
    100b78c4:	dac01021 	clz	x1, x1
    100b78c8:	52800813 	mov	w19, #0x40                  	// #64
    100b78cc:	2a0503f6 	mov	w22, w5
    100b78d0:	4b010261 	sub	w1, w19, w1
    100b78d4:	37080066 	tbnz	w6, #1, 100b78e0 <setup_mmu_cfg+0x90>
    100b78d8:	5286a000 	mov	w0, #0x3500                	// #13568
    100b78dc:	2a000021 	orr	w1, w1, w0
    100b78e0:	93407c33 	sxtw	x19, w1
    100b78e4:	aa0303e0 	mov	x0, x3
    100b78e8:	97ffff5e 	bl	100b7660 <tcr_physical_addr_size_bits>
    100b78ec:	710006df 	cmp	w22, #0x1
    100b78f0:	540001e1 	b.ne	100b792c <setup_mmu_cfg+0xdc>  // b.any
    100b78f4:	aa008261 	orr	x1, x19, x0, lsl #32
    100b78f8:	b2690021 	orr	x1, x1, #0x800000
    100b78fc:	d5380740 	mrs	x0, id_aa64mmfr2_el1
    100b7900:	f2400c1f 	tst	x0, #0xf
    100b7904:	54000040 	b.eq	100b790c <setup_mmu_cfg+0xbc>  // b.none
    100b7908:	b2400294 	orr	x20, x20, #0x1
    100b790c:	d2809fe0 	mov	x0, #0x4ff                 	// #1279
    100b7910:	f2a00880 	movk	x0, #0x44, lsl #16
    100b7914:	a90006a0 	stp	x0, x1, [x21]
    100b7918:	f9000ab4 	str	x20, [x21, #16]
    100b791c:	a94153f3 	ldp	x19, x20, [sp, #16]
    100b7920:	a9425bf5 	ldp	x21, x22, [sp, #32]
    100b7924:	a8c37bfd 	ldp	x29, x30, [sp], #48
    100b7928:	d65f03c0 	ret
    100b792c:	71000adf 	cmp	w22, #0x2
    100b7930:	d370bc01 	lsl	x1, x0, #16
    100b7934:	540000a1 	b.ne	100b7948 <setup_mmu_cfg+0xf8>  // b.any
    100b7938:	aa130021 	orr	x1, x1, x19
    100b793c:	d2b01000 	mov	x0, #0x80800000            	// #2155872256
    100b7940:	aa000021 	orr	x1, x1, x0
    100b7944:	17ffffee 	b	100b78fc <setup_mmu_cfg+0xac>
    100b7948:	71000edf 	cmp	w22, #0x3
    100b794c:	54ffff60 	b.eq	100b7938 <setup_mmu_cfg+0xe8>  // b.none
    100b7950:	52802341 	mov	w1, #0x11a                 	// #282
    100b7954:	17ffffc6 	b	100b786c <setup_mmu_cfg+0x1c>

00000000100b7958 <mmap_add_region>:
    100b7958:	a9bc7bfd 	stp	x29, x30, [sp, #-64]!
    100b795c:	910003fd 	mov	x29, sp
    100b7960:	a90187e0 	stp	x0, x1, [sp, #24]
    100b7964:	d2a80000 	mov	x0, #0x40000000            	// #1073741824
    100b7968:	910063e1 	add	x1, sp, #0x18
    100b796c:	f90017e2 	str	x2, [sp, #40]
    100b7970:	b90033e3 	str	w3, [sp, #48]
    100b7974:	f9001fe0 	str	x0, [sp, #56]
    100b7978:	b0000020 	adrp	x0, 100bc000 <__RODATA_END__>
    100b797c:	910ec000 	add	x0, x0, #0x3b0
    100b7980:	94000121 	bl	100b7e04 <mmap_add_region_ctx>
    100b7984:	a8c47bfd 	ldp	x29, x30, [sp], #64
    100b7988:	d65f03c0 	ret

00000000100b798c <mmap_add>:
    100b798c:	aa0003e1 	mov	x1, x0
    100b7990:	b0000020 	adrp	x0, 100bc000 <__RODATA_END__>
    100b7994:	910ec000 	add	x0, x0, #0x3b0
    100b7998:	140001b2 	b	100b8060 <mmap_add_ctx>

00000000100b799c <init_xlat_tables>:
    100b799c:	a9be7bfd 	stp	x29, x30, [sp, #-32]!
    100b79a0:	910003fd 	mov	x29, sp
    100b79a4:	f9000bf3 	str	x19, [sp, #16]
    100b79a8:	b0000033 	adrp	x19, 100bc000 <__RODATA_END__>
    100b79ac:	910ec273 	add	x19, x19, #0x3b0
    100b79b0:	b9405a60 	ldr	w0, [x19, #88]
    100b79b4:	3100041f 	cmn	w0, #0x1
    100b79b8:	540000a0 	b.eq	100b79cc <init_xlat_tables+0x30>  // b.none
    100b79bc:	52800c01 	mov	w1, #0x60                  	// #96
    100b79c0:	90000020 	adrp	x0, 100bb000 <plat_prefix_str+0x50>
    100b79c4:	91081000 	add	x0, x0, #0x204
    100b79c8:	9400038a 	bl	100b87f0 <__assert>
    100b79cc:	97ffff73 	bl	100b7798 <xlat_arch_current_el>
    100b79d0:	7100041f 	cmp	w0, #0x1
    100b79d4:	540000c1 	b.ne	100b79ec <init_xlat_tables+0x50>  // b.any
    100b79d8:	b9005a60 	str	w0, [x19, #88]
    100b79dc:	aa1303e0 	mov	x0, x19
    100b79e0:	f9400bf3 	ldr	x19, [sp, #16]
    100b79e4:	a8c27bfd 	ldp	x29, x30, [sp], #32
    100b79e8:	140001ad 	b	100b809c <init_xlat_tables_ctx>
    100b79ec:	7100081f 	cmp	w0, #0x2
    100b79f0:	54ffff40 	b.eq	100b79d8 <init_xlat_tables+0x3c>  // b.none
    100b79f4:	71000c1f 	cmp	w0, #0x3
    100b79f8:	54ffff00 	b.eq	100b79d8 <init_xlat_tables+0x3c>  // b.none
    100b79fc:	52800d21 	mov	w1, #0x69                  	// #105
    100b7a00:	17fffff0 	b	100b79c0 <init_xlat_tables+0x24>

00000000100b7a04 <enable_mmu_el1>:
    100b7a04:	b0000022 	adrp	x2, 100bc000 <__RODATA_END__>
    100b7a08:	910ec042 	add	x2, x2, #0x3b0
    100b7a0c:	a9be7bfd 	stp	x29, x30, [sp, #-32]!
    100b7a10:	2a0003e1 	mov	w1, w0
    100b7a14:	52800025 	mov	w5, #0x1                   	// #1
    100b7a18:	910003fd 	mov	x29, sp
    100b7a1c:	f9400444 	ldr	x4, [x2, #8]
    100b7a20:	f9402043 	ldr	x3, [x2, #64]
    100b7a24:	f9401842 	ldr	x2, [x2, #48]
    100b7a28:	f9000bf3 	str	x19, [sp, #16]
    100b7a2c:	2a0003f3 	mov	w19, w0
    100b7a30:	b0000040 	adrp	x0, 100c0000 <__STACKS_START__+0x3bc0>
    100b7a34:	9127e000 	add	x0, x0, #0x9f8
    100b7a38:	97ffff86 	bl	100b7850 <setup_mmu_cfg>
    100b7a3c:	2a1303e0 	mov	w0, w19
    100b7a40:	f9400bf3 	ldr	x19, [sp, #16]
    100b7a44:	a8c27bfd 	ldp	x29, x30, [sp], #32
    100b7a48:	1400034e 	b	100b8780 <enable_mmu_direct_el1>

00000000100b7a4c <xlat_clean_dcache_range>:
    100b7a4c:	a9be7bfd 	stp	x29, x30, [sp, #-32]!
    100b7a50:	910003fd 	mov	x29, sp
    100b7a54:	a90153f3 	stp	x19, x20, [sp, #16]
    100b7a58:	aa0003f3 	mov	x19, x0
    100b7a5c:	aa0103f4 	mov	x20, x1
    100b7a60:	97ffff33 	bl	100b772c <is_dcache_enabled>
    100b7a64:	72001c1f 	tst	w0, #0xff
    100b7a68:	540000c0 	b.eq	100b7a80 <xlat_clean_dcache_range+0x34>  // b.none
    100b7a6c:	aa1403e1 	mov	x1, x20
    100b7a70:	aa1303e0 	mov	x0, x19
    100b7a74:	a94153f3 	ldp	x19, x20, [sp, #16]
    100b7a78:	a8c27bfd 	ldp	x29, x30, [sp], #32
    100b7a7c:	1400026b 	b	100b8428 <clean_dcache_range>
    100b7a80:	a94153f3 	ldp	x19, x20, [sp, #16]
    100b7a84:	a8c27bfd 	ldp	x29, x30, [sp], #32
    100b7a88:	d65f03c0 	ret

00000000100b7a8c <xlat_desc>:
    100b7a8c:	12800104 	mov	w4, #0xfffffff7            	// #-9
    100b7a90:	a9be7bfd 	stp	x29, x30, [sp, #-32]!
    100b7a94:	92800005 	mov	x5, #0xffffffffffffffff    	// #-1
    100b7a98:	1b047c64 	mul	w4, w3, w4
    100b7a9c:	910003fd 	mov	x29, sp
    100b7aa0:	11009c84 	add	w4, w4, #0x27
    100b7aa4:	a90153f3 	stp	x19, x20, [sp, #16]
    100b7aa8:	9ac420a4 	lsl	x4, x5, x4
    100b7aac:	ea24005f 	bics	xzr, x2, x4
    100b7ab0:	540000a0 	b.eq	100b7ac4 <xlat_desc+0x38>  // b.none
    100b7ab4:	52800e41 	mov	w1, #0x72                  	// #114
    100b7ab8:	90000020 	adrp	x0, 100bb000 <plat_prefix_str+0x50>
    100b7abc:	9108b400 	add	x0, x0, #0x22d
    100b7ac0:	9400034c 	bl	100b87f0 <__assert>
    100b7ac4:	71000c7f 	cmp	w3, #0x3
    100b7ac8:	d37f7c23 	ubfiz	x3, x1, #1, #32
    100b7acc:	927b0063 	and	x3, x3, #0x20
    100b7ad0:	d2800073 	mov	x19, #0x3                   	// #3
    100b7ad4:	9a9f0673 	csinc	x19, x19, xzr, eq  // eq = none
    100b7ad8:	f27d003f 	tst	x1, #0x8
    100b7adc:	aa020062 	orr	x2, x3, x2
    100b7ae0:	b9405800 	ldr	w0, [x0, #88]
    100b7ae4:	d2801003 	mov	x3, #0x80                  	// #128
    100b7ae8:	9a8313e3 	csel	x3, xzr, x3, ne  // ne = any
    100b7aec:	aa030273 	orr	x19, x19, x3
    100b7af0:	7100041f 	cmp	w0, #0x1
    100b7af4:	aa020273 	orr	x19, x19, x2
    100b7af8:	540001a1 	b.ne	100b7b2c <xlat_desc+0xa0>  // b.any
    100b7afc:	b2760262 	orr	x2, x19, #0x400
    100b7b00:	f27a003f 	tst	x1, #0x40
    100b7b04:	d2808803 	mov	x3, #0x440                 	// #1088
    100b7b08:	aa030273 	orr	x19, x19, x3
    100b7b0c:	9a821273 	csel	x19, x19, x2, ne  // ne = any
    100b7b10:	72000834 	ands	w20, w1, #0x7
    100b7b14:	540001c1 	b.ne	100b7b4c <xlat_desc+0xc0>  // b.any
    100b7b18:	97ffff12 	bl	100b7760 <xlat_arch_regime_get_xn_desc>
    100b7b1c:	aa000273 	orr	x19, x19, x0
    100b7b20:	d2804080 	mov	x0, #0x204                 	// #516
    100b7b24:	aa000260 	orr	x0, x19, x0
    100b7b28:	14000011 	b	100b7b6c <xlat_desc+0xe0>
    100b7b2c:	51000802 	sub	w2, w0, #0x2
    100b7b30:	7100045f 	cmp	w2, #0x1
    100b7b34:	54000069 	b.ls	100b7b40 <xlat_desc+0xb4>  // b.plast
    100b7b38:	52801281 	mov	w1, #0x94                  	// #148
    100b7b3c:	17ffffdf 	b	100b7ab8 <xlat_desc+0x2c>
    100b7b40:	d2808802 	mov	x2, #0x440                 	// #1088
    100b7b44:	aa020273 	orr	x19, x19, x2
    100b7b48:	17fffff2 	b	100b7b10 <xlat_desc+0x84>
    100b7b4c:	52800502 	mov	w2, #0x28                  	// #40
    100b7b50:	6a02003f 	tst	w1, w2
    100b7b54:	54000060 	b.eq	100b7b60 <xlat_desc+0xd4>  // b.none
    100b7b58:	97ffff02 	bl	100b7760 <xlat_arch_regime_get_xn_desc>
    100b7b5c:	aa000273 	orr	x19, x19, x0
    100b7b60:	71000a9f 	cmp	w20, #0x2
    100b7b64:	540000a1 	b.ne	100b7b78 <xlat_desc+0xec>  // b.any
    100b7b68:	b2780660 	orr	x0, x19, #0x300
    100b7b6c:	a94153f3 	ldp	x19, x20, [sp, #16]
    100b7b70:	a8c27bfd 	ldp	x29, x30, [sp], #32
    100b7b74:	d65f03c0 	ret
    100b7b78:	7100069f 	cmp	w20, #0x1
    100b7b7c:	54000060 	b.eq	100b7b88 <xlat_desc+0xfc>  // b.none
    100b7b80:	52801a81 	mov	w1, #0xd4                  	// #212
    100b7b84:	17ffffcd 	b	100b7ab8 <xlat_desc+0x2c>
    100b7b88:	d2804100 	mov	x0, #0x208                 	// #520
    100b7b8c:	17ffffe6 	b	100b7b24 <xlat_desc+0x98>

00000000100b7b90 <xlat_tables_map_region>:
    100b7b90:	a9b87bfd 	stp	x29, x30, [sp, #-128]!
    100b7b94:	910003fd 	mov	x29, sp
    100b7b98:	a90153f3 	stp	x19, x20, [sp, #16]
    100b7b9c:	a9025bf5 	stp	x21, x22, [sp, #32]
    100b7ba0:	a90363f7 	stp	x23, x24, [sp, #48]
    100b7ba4:	a9046bf9 	stp	x25, x26, [sp, #64]
    100b7ba8:	aa0003f9 	mov	x25, x0
    100b7bac:	b9405000 	ldr	w0, [x0, #80]
    100b7bb0:	a90573fb 	stp	x27, x28, [sp, #80]
    100b7bb4:	6b05001f 	cmp	w0, w5
    100b7bb8:	b90077e4 	str	w4, [sp, #116]
    100b7bbc:	54000088 	b.hi	100b7bcc <xlat_tables_map_region+0x3c>  // b.pmore
    100b7bc0:	2a0503f6 	mov	w22, w5
    100b7bc4:	71000cbf 	cmp	w5, #0x3
    100b7bc8:	540000a9 	b.ls	100b7bdc <xlat_tables_map_region+0x4c>  // b.plast
    100b7bcc:	52804681 	mov	w1, #0x234                 	// #564
    100b7bd0:	90000020 	adrp	x0, 100bb000 <plat_prefix_str+0x50>
    100b7bd4:	9108b400 	add	x0, x0, #0x22d
    100b7bd8:	94000306 	bl	100b87f0 <__assert>
    100b7bdc:	12800115 	mov	w21, #0xfffffff7            	// #-9
    100b7be0:	aa0103fb 	mov	x27, x1
    100b7be4:	a9408420 	ldp	x0, x1, [x1, #8]
    100b7be8:	1b157cb5 	mul	w21, w5, w21
    100b7bec:	d2800038 	mov	x24, #0x1                   	// #1
    100b7bf0:	92800017 	mov	x23, #0xffffffffffffffff    	// #-1
    100b7bf4:	11009eb5 	add	w21, w21, #0x27
    100b7bf8:	110004bc 	add	w28, w5, #0x1
    100b7bfc:	9ad52318 	lsl	x24, x24, x21
    100b7c00:	cb1803f3 	neg	x19, x24
    100b7c04:	8a000273 	and	x19, x19, x0
    100b7c08:	eb02001f 	cmp	x0, x2
    100b7c0c:	9a828273 	csel	x19, x19, x2, hi  // hi = pmore
    100b7c10:	8b010001 	add	x1, x0, x1
    100b7c14:	cb020274 	sub	x20, x19, x2
    100b7c18:	d1000421 	sub	x1, x1, #0x1
    100b7c1c:	9ad522f7 	lsl	x23, x23, x21
    100b7c20:	aa3703e0 	mvn	x0, x23
    100b7c24:	9ad52694 	lsr	x20, x20, x21
    100b7c28:	b90073f4 	str	w20, [sp, #112]
    100b7c2c:	8b344c74 	add	x20, x3, w20, uxtw #3
    100b7c30:	a90603e1 	stp	x1, x0, [sp, #96]
    100b7c34:	294e07e0 	ldp	w0, w1, [sp, #112]
    100b7c38:	6b01001f 	cmp	w0, w1
    100b7c3c:	54000862 	b.cs	100b7d48 <xlat_tables_map_region+0x1b8>  // b.hs, b.nlast
    100b7c40:	a9409360 	ldp	x0, x4, [x27, #8]
    100b7c44:	8b18027a 	add	x26, x19, x24
    100b7c48:	f9400283 	ldr	x3, [x20]
    100b7c4c:	d1000757 	sub	x23, x26, #0x1
    100b7c50:	12000461 	and	w1, w3, #0x3
    100b7c54:	8b040004 	add	x4, x0, x4
    100b7c58:	eb13001f 	cmp	x0, x19
    100b7c5c:	d1000484 	sub	x4, x4, #0x1
    100b7c60:	54000408 	b.hi	100b7ce0 <xlat_tables_map_region+0x150>  // b.pmore
    100b7c64:	eb17009f 	cmp	x4, x23
    100b7c68:	540003c3 	b.cc	100b7ce0 <xlat_tables_map_region+0x150>  // b.lo, b.ul, b.last
    100b7c6c:	f9400362 	ldr	x2, [x27]
    100b7c70:	71000edf 	cmp	w22, #0x3
    100b7c74:	cb000042 	sub	x2, x2, x0
    100b7c78:	8b130042 	add	x2, x2, x19
    100b7c7c:	540000c1 	b.ne	100b7c94 <xlat_tables_map_region+0x104>  // b.any
    100b7c80:	71000c3f 	cmp	w1, #0x3
    100b7c84:	54000520 	b.eq	100b7d28 <xlat_tables_map_region+0x198>  // b.none
    100b7c88:	34000461 	cbz	w1, 100b7d14 <xlat_tables_map_region+0x184>
    100b7c8c:	52803961 	mov	w1, #0x1cb                 	// #459
    100b7c90:	17ffffd0 	b	100b7bd0 <xlat_tables_map_region+0x40>
    100b7c94:	71000c3f 	cmp	w1, #0x3
    100b7c98:	54000980 	b.eq	100b7dc8 <xlat_tables_map_region+0x238>  // b.none
    100b7c9c:	350001a1 	cbnz	w1, 100b7cd0 <xlat_tables_map_region+0x140>
    100b7ca0:	f94037e0 	ldr	x0, [sp, #104]
    100b7ca4:	ea00005f 	tst	x2, x0
    100b7ca8:	540000a1 	b.ne	100b7cbc <xlat_tables_map_region+0x12c>  // b.any
    100b7cac:	34000096 	cbz	w22, 100b7cbc <xlat_tables_map_region+0x12c>
    100b7cb0:	f9401360 	ldr	x0, [x27, #32]
    100b7cb4:	9ad52400 	lsr	x0, x0, x21
    100b7cb8:	b50002e0 	cbnz	x0, 100b7d14 <xlat_tables_map_region+0x184>
    100b7cbc:	29450720 	ldp	w0, w1, [x25, #40]
    100b7cc0:	6b00003f 	cmp	w1, w0
    100b7cc4:	5400046b 	b.lt	100b7d50 <xlat_tables_map_region+0x1c0>  // b.tstop
    100b7cc8:	52800c21 	mov	w1, #0x61                  	// #97
    100b7ccc:	17ffffc1 	b	100b7bd0 <xlat_tables_map_region+0x40>
    100b7cd0:	7100043f 	cmp	w1, #0x1
    100b7cd4:	540002a0 	b.eq	100b7d28 <xlat_tables_map_region+0x198>  // b.none
    100b7cd8:	52803e41 	mov	w1, #0x1f2                 	// #498
    100b7cdc:	17ffffbd 	b	100b7bd0 <xlat_tables_map_region+0x40>
    100b7ce0:	eb17001f 	cmp	x0, x23
    100b7ce4:	54000069 	b.ls	100b7cf0 <xlat_tables_map_region+0x160>  // b.plast
    100b7ce8:	eb04027f 	cmp	x19, x4
    100b7cec:	540001e8 	b.hi	100b7d28 <xlat_tables_map_region+0x198>  // b.pmore
    100b7cf0:	71000edf 	cmp	w22, #0x3
    100b7cf4:	54000061 	b.ne	100b7d00 <xlat_tables_map_region+0x170>  // b.any
    100b7cf8:	528040e1 	mov	w1, #0x207                 	// #519
    100b7cfc:	17ffffb5 	b	100b7bd0 <xlat_tables_map_region+0x40>
    100b7d00:	34fffde1 	cbz	w1, 100b7cbc <xlat_tables_map_region+0x12c>
    100b7d04:	71000c3f 	cmp	w1, #0x3
    100b7d08:	54000600 	b.eq	100b7dc8 <xlat_tables_map_region+0x238>  // b.none
    100b7d0c:	52804241 	mov	w1, #0x212                 	// #530
    100b7d10:	17ffffb0 	b	100b7bd0 <xlat_tables_map_region+0x40>
    100b7d14:	b9401b61 	ldr	w1, [x27, #24]
    100b7d18:	2a1603e3 	mov	w3, w22
    100b7d1c:	aa1903e0 	mov	x0, x25
    100b7d20:	97ffff5b 	bl	100b7a8c <xlat_desc>
    100b7d24:	f9000280 	str	x0, [x20]
    100b7d28:	b94073e0 	ldr	w0, [sp, #112]
    100b7d2c:	91002294 	add	x20, x20, #0x8
    100b7d30:	aa1a03f3 	mov	x19, x26
    100b7d34:	11000400 	add	w0, w0, #0x1
    100b7d38:	b90073e0 	str	w0, [sp, #112]
    100b7d3c:	f94033e0 	ldr	x0, [sp, #96]
    100b7d40:	eb1a001f 	cmp	x0, x26
    100b7d44:	54fff788 	b.hi	100b7c34 <xlat_tables_map_region+0xa4>  // b.pmore
    100b7d48:	d1000673 	sub	x19, x19, #0x1
    100b7d4c:	14000017 	b	100b7da8 <xlat_tables_map_region+0x218>
    100b7d50:	f9401323 	ldr	x3, [x25, #32]
    100b7d54:	11000420 	add	w0, w1, #0x1
    100b7d58:	b9002f20 	str	w0, [x25, #44]
    100b7d5c:	93747c21 	sbfiz	x1, x1, #12, #32
    100b7d60:	ab010063 	adds	x3, x3, x1
    100b7d64:	54000220 	b.eq	100b7da8 <xlat_tables_map_region+0x218>  // b.none
    100b7d68:	b2400460 	orr	x0, x3, #0x3
    100b7d6c:	f9000280 	str	x0, [x20]
    100b7d70:	aa1303e2 	mov	x2, x19
    100b7d74:	2a1c03e5 	mov	w5, w28
    100b7d78:	aa1b03e1 	mov	x1, x27
    100b7d7c:	52804004 	mov	w4, #0x200                 	// #512
    100b7d80:	aa1903e0 	mov	x0, x25
    100b7d84:	f9003fe3 	str	x3, [sp, #120]
    100b7d88:	97ffff82 	bl	100b7b90 <xlat_tables_map_region>
    100b7d8c:	aa0003f3 	mov	x19, x0
    100b7d90:	f9403fe3 	ldr	x3, [sp, #120]
    100b7d94:	d2820001 	mov	x1, #0x1000                	// #4096
    100b7d98:	aa0303e0 	mov	x0, x3
    100b7d9c:	97ffff2c 	bl	100b7a4c <xlat_clean_dcache_range>
    100b7da0:	eb1302ff 	cmp	x23, x19
    100b7da4:	54fffc20 	b.eq	100b7d28 <xlat_tables_map_region+0x198>  // b.none
    100b7da8:	aa1303e0 	mov	x0, x19
    100b7dac:	a94153f3 	ldp	x19, x20, [sp, #16]
    100b7db0:	a9425bf5 	ldp	x21, x22, [sp, #32]
    100b7db4:	a94363f7 	ldp	x23, x24, [sp, #48]
    100b7db8:	a9446bf9 	ldp	x25, x26, [sp, #64]
    100b7dbc:	a94573fb 	ldp	x27, x28, [sp, #80]
    100b7dc0:	a8c87bfd 	ldp	x29, x30, [sp], #128
    100b7dc4:	d65f03c0 	ret
    100b7dc8:	92748c63 	and	x3, x3, #0xfffffffff000
    100b7dcc:	aa1303e2 	mov	x2, x19
    100b7dd0:	2a1c03e5 	mov	w5, w28
    100b7dd4:	aa1b03e1 	mov	x1, x27
    100b7dd8:	52804004 	mov	w4, #0x200                 	// #512
    100b7ddc:	aa1903e0 	mov	x0, x25
    100b7de0:	f9003fe3 	str	x3, [sp, #120]
    100b7de4:	97ffff6b 	bl	100b7b90 <xlat_tables_map_region>
    100b7de8:	f9403fe3 	ldr	x3, [sp, #120]
    100b7dec:	aa0003f3 	mov	x19, x0
    100b7df0:	d2820001 	mov	x1, #0x1000                	// #4096
    100b7df4:	aa0303e0 	mov	x0, x3
    100b7df8:	97ffff15 	bl	100b7a4c <xlat_clean_dcache_range>
    100b7dfc:	eb17027f 	cmp	x19, x23
    100b7e00:	17ffffe9 	b	100b7da4 <xlat_tables_map_region+0x214>

00000000100b7e04 <mmap_add_region_ctx>:
    100b7e04:	a9bc7bfd 	stp	x29, x30, [sp, #-64]!
    100b7e08:	910003fd 	mov	x29, sp
    100b7e0c:	a90363f7 	stp	x23, x24, [sp, #48]
    100b7e10:	aa0103f7 	mov	x23, x1
    100b7e14:	f9400821 	ldr	x1, [x1, #16]
    100b7e18:	a90153f3 	stp	x19, x20, [sp, #16]
    100b7e1c:	a9025bf5 	stp	x21, x22, [sp, #32]
    100b7e20:	b4000fe1 	cbz	x1, 100b801c <mmap_add_region_ctx+0x218>
    100b7e24:	aa0003f4 	mov	x20, x0
    100b7e28:	39415000 	ldrb	w0, [x0, #84]
    100b7e2c:	340000a0 	cbz	w0, 100b7e40 <mmap_add_region_ctx+0x3c>
    100b7e30:	528060e1 	mov	w1, #0x307                 	// #775
    100b7e34:	90000020 	adrp	x0, 100bb000 <plat_prefix_str+0x50>
    100b7e38:	9108b400 	add	x0, x0, #0x22d
    100b7e3c:	9400026d 	bl	100b87f0 <__assert>
    100b7e40:	a94002e5 	ldp	x5, x0, [x23]
    100b7e44:	f94012e2 	ldr	x2, [x23, #32]
    100b7e48:	aa0100a3 	orr	x3, x5, x1
    100b7e4c:	aa000063 	orr	x3, x3, x0
    100b7e50:	f2402c7f 	tst	x3, #0xfff
    100b7e54:	54000ac1 	b.ne	100b7fac <mmap_add_region_ctx+0x1a8>  // b.any
    100b7e58:	f148005f 	cmp	x2, #0x200, lsl #12
    100b7e5c:	d2a80003 	mov	x3, #0x40000000            	// #1073741824
    100b7e60:	fa431044 	ccmp	x2, x3, #0x4, ne  // ne = any
    100b7e64:	54000060 	b.eq	100b7e70 <mmap_add_region_ctx+0x6c>  // b.none
    100b7e68:	f140045f 	cmp	x2, #0x1, lsl #12
    100b7e6c:	54000a01 	b.ne	100b7fac <mmap_add_region_ctx+0x1a8>  // b.any
    100b7e70:	8b0100b6 	add	x22, x5, x1
    100b7e74:	8b000029 	add	x9, x1, x0
    100b7e78:	d10006d6 	sub	x22, x22, #0x1
    100b7e7c:	d1000535 	sub	x21, x9, #0x1
    100b7e80:	eb1600bf 	cmp	x5, x22
    100b7e84:	fa559002 	ccmp	x0, x21, #0x2, ls  // ls = plast
    100b7e88:	540009e8 	b.hi	100b7fc4 <mmap_add_region_ctx+0x1c0>  // b.pmore
    100b7e8c:	f9400682 	ldr	x2, [x20, #8]
    100b7e90:	eb0202bf 	cmp	x21, x2
    100b7e94:	54000988 	b.hi	100b7fc4 <mmap_add_region_ctx+0x1c0>  // b.pmore
    100b7e98:	f9400282 	ldr	x2, [x20]
    100b7e9c:	eb0202df 	cmp	x22, x2
    100b7ea0:	54000928 	b.hi	100b7fc4 <mmap_add_region_ctx+0x1c0>  // b.pmore
    100b7ea4:	b9401a98 	ldr	w24, [x20, #24]
    100b7ea8:	52800503 	mov	w3, #0x28                  	// #40
    100b7eac:	f9400a82 	ldr	x2, [x20, #16]
    100b7eb0:	9b230b18 	smaddl	x24, w24, w3, x2
    100b7eb4:	f85e8303 	ldur	x3, [x24, #-24]
    100b7eb8:	b50008a3 	cbnz	x3, 100b7fcc <mmap_add_region_ctx+0x1c8>
    100b7ebc:	aa0203e6 	mov	x6, x2
    100b7ec0:	cb05000a 	sub	x10, x0, x5
    100b7ec4:	f94008c3 	ldr	x3, [x6, #16]
    100b7ec8:	b50002a3 	cbnz	x3, 100b7f1c <mmap_add_region_ctx+0x118>
    100b7ecc:	aa0203f3 	mov	x19, x2
    100b7ed0:	a9408e60 	ldp	x0, x3, [x19, #8]
    100b7ed4:	8b000060 	add	x0, x3, x0
    100b7ed8:	d1000400 	sub	x0, x0, #0x1
    100b7edc:	eb15001f 	cmp	x0, x21
    100b7ee0:	54000042 	b.cs	100b7ee8 <mmap_add_region_ctx+0xe4>  // b.hs, b.nlast
    100b7ee4:	b5000783 	cbnz	x3, 100b7fd4 <mmap_add_region_ctx+0x1d0>
    100b7ee8:	a9408263 	ldp	x3, x0, [x19, #8]
    100b7eec:	8b030003 	add	x3, x0, x3
    100b7ef0:	eb03013f 	cmp	x9, x3
    100b7ef4:	54000081 	b.ne	100b7f04 <mmap_add_region_ctx+0x100>  // b.any
    100b7ef8:	b4000060 	cbz	x0, 100b7f04 <mmap_add_region_ctx+0x100>
    100b7efc:	eb00003f 	cmp	x1, x0
    100b7f00:	540006e8 	b.hi	100b7fdc <mmap_add_region_ctx+0x1d8>  // b.pmore
    100b7f04:	f9400840 	ldr	x0, [x2, #16]
    100b7f08:	b4000940 	cbz	x0, 100b8030 <mmap_add_region_ctx+0x22c>
    100b7f0c:	eb18005f 	cmp	x2, x24
    100b7f10:	540006a3 	b.cc	100b7fe4 <mmap_add_region_ctx+0x1e0>  // b.lo, b.ul, b.last
    100b7f14:	528067e1 	mov	w1, #0x33f                 	// #831
    100b7f18:	17ffffc7 	b	100b7e34 <mmap_add_region_ctx+0x30>
    100b7f1c:	a94010c7 	ldp	x7, x4, [x6]
    100b7f20:	8b030088 	add	x8, x4, x3
    100b7f24:	eb04001f 	cmp	x0, x4
    100b7f28:	d1000508 	sub	x8, x8, #0x1
    100b7f2c:	54000263 	b.cc	100b7f78 <mmap_add_region_ctx+0x174>  // b.lo, b.ul, b.last
    100b7f30:	eb0802bf 	cmp	x21, x8
    100b7f34:	54000269 	b.ls	100b7f80 <mmap_add_region_ctx+0x17c>  // b.plast
    100b7f38:	eb04001f 	cmp	x0, x4
    100b7f3c:	54000220 	b.eq	100b7f80 <mmap_add_region_ctx+0x17c>  // b.none
    100b7f40:	eb0702df 	cmp	x22, x7
    100b7f44:	54000863 	b.cc	100b8050 <mmap_add_region_ctx+0x24c>  // b.lo, b.ul, b.last
    100b7f48:	8b070063 	add	x3, x3, x7
    100b7f4c:	d1000463 	sub	x3, x3, #0x1
    100b7f50:	eb0300bf 	cmp	x5, x3
    100b7f54:	1a9f97e3 	cset	w3, hi  // hi = pmore
    100b7f58:	eb0402bf 	cmp	x21, x4
    100b7f5c:	54000243 	b.cc	100b7fa4 <mmap_add_region_ctx+0x1a0>  // b.lo, b.ul, b.last
    100b7f60:	eb08001f 	cmp	x0, x8
    100b7f64:	1a9f97e4 	cset	w4, hi  // hi = pmore
    100b7f68:	6a03009f 	tst	w4, w3
    100b7f6c:	54000180 	b.eq	100b7f9c <mmap_add_region_ctx+0x198>  // b.none
    100b7f70:	9100a0c6 	add	x6, x6, #0x28
    100b7f74:	17ffffd4 	b	100b7ec4 <mmap_add_region_ctx+0xc0>
    100b7f78:	eb0802bf 	cmp	x21, x8
    100b7f7c:	54fffe23 	b.cc	100b7f40 <mmap_add_region_ctx+0x13c>  // b.lo, b.ul, b.last
    100b7f80:	cb070087 	sub	x7, x4, x7
    100b7f84:	eb0a00ff 	cmp	x7, x10
    100b7f88:	540000a1 	b.ne	100b7f9c <mmap_add_region_ctx+0x198>  // b.any
    100b7f8c:	eb04001f 	cmp	x0, x4
    100b7f90:	54ffff01 	b.ne	100b7f70 <mmap_add_region_ctx+0x16c>  // b.any
    100b7f94:	eb03003f 	cmp	x1, x3
    100b7f98:	54fffec1 	b.ne	100b7f70 <mmap_add_region_ctx+0x16c>  // b.any
    100b7f9c:	12800001 	mov	w1, #0xffffffff            	// #-1
    100b7fa0:	14000004 	b	100b7fb0 <mmap_add_region_ctx+0x1ac>
    100b7fa4:	52800024 	mov	w4, #0x1                   	// #1
    100b7fa8:	17fffff0 	b	100b7f68 <mmap_add_region_ctx+0x164>
    100b7fac:	128002a1 	mov	w1, #0xffffffea            	// #-22
    100b7fb0:	90000020 	adrp	x0, 100bb000 <plat_prefix_str+0x50>
    100b7fb4:	91094c00 	add	x0, x0, #0x253
    100b7fb8:	97fffc2b 	bl	100b7064 <tf_log>
    100b7fbc:	52806181 	mov	w1, #0x30c                 	// #780
    100b7fc0:	17ffff9d 	b	100b7e34 <mmap_add_region_ctx+0x30>
    100b7fc4:	12800421 	mov	w1, #0xffffffde            	// #-34
    100b7fc8:	17fffffa 	b	100b7fb0 <mmap_add_region_ctx+0x1ac>
    100b7fcc:	12800161 	mov	w1, #0xfffffff4            	// #-12
    100b7fd0:	17fffff8 	b	100b7fb0 <mmap_add_region_ctx+0x1ac>
    100b7fd4:	9100a273 	add	x19, x19, #0x28
    100b7fd8:	17ffffbe 	b	100b7ed0 <mmap_add_region_ctx+0xcc>
    100b7fdc:	9100a273 	add	x19, x19, #0x28
    100b7fe0:	17ffffc2 	b	100b7ee8 <mmap_add_region_ctx+0xe4>
    100b7fe4:	9100a042 	add	x2, x2, #0x28
    100b7fe8:	17ffffc7 	b	100b7f04 <mmap_add_region_ctx+0x100>
    100b7fec:	aa1703e1 	mov	x1, x23
    100b7ff0:	aa1303e0 	mov	x0, x19
    100b7ff4:	d2800502 	mov	x2, #0x28                  	// #40
    100b7ff8:	94000217 	bl	100b8854 <memcpy>
    100b7ffc:	f9402280 	ldr	x0, [x20, #64]
    100b8000:	eb16001f 	cmp	x0, x22
    100b8004:	54000042 	b.cs	100b800c <mmap_add_region_ctx+0x208>  // b.hs, b.nlast
    100b8008:	f9002296 	str	x22, [x20, #64]
    100b800c:	f9402680 	ldr	x0, [x20, #72]
    100b8010:	eb15001f 	cmp	x0, x21
    100b8014:	54000042 	b.cs	100b801c <mmap_add_region_ctx+0x218>  // b.hs, b.nlast
    100b8018:	f9002695 	str	x21, [x20, #72]
    100b801c:	a94153f3 	ldp	x19, x20, [sp, #16]
    100b8020:	a9425bf5 	ldp	x21, x22, [sp, #32]
    100b8024:	a94363f7 	ldp	x23, x24, [sp, #48]
    100b8028:	a8c47bfd 	ldp	x29, x30, [sp], #64
    100b802c:	d65f03c0 	ret
    100b8030:	cb130042 	sub	x2, x2, x19
    100b8034:	aa1303e1 	mov	x1, x19
    100b8038:	9100a260 	add	x0, x19, #0x28
    100b803c:	9400020e 	bl	100b8874 <memmove>
    100b8040:	f9400b00 	ldr	x0, [x24, #16]
    100b8044:	b4fffd40 	cbz	x0, 100b7fec <mmap_add_region_ctx+0x1e8>
    100b8048:	52806961 	mov	w1, #0x34b                 	// #843
    100b804c:	17ffff7a 	b	100b7e34 <mmap_add_region_ctx+0x30>
    100b8050:	eb0402bf 	cmp	x21, x4
    100b8054:	54fff8e3 	b.cc	100b7f70 <mmap_add_region_ctx+0x16c>  // b.lo, b.ul, b.last
    100b8058:	52800023 	mov	w3, #0x1                   	// #1
    100b805c:	17ffffc1 	b	100b7f60 <mmap_add_region_ctx+0x15c>

00000000100b8060 <mmap_add_ctx>:
    100b8060:	a9be7bfd 	stp	x29, x30, [sp, #-32]!
    100b8064:	910003fd 	mov	x29, sp
    100b8068:	a90153f3 	stp	x19, x20, [sp, #16]
    100b806c:	aa0003f4 	mov	x20, x0
    100b8070:	aa0103f3 	mov	x19, x1
    100b8074:	f9401260 	ldr	x0, [x19, #32]
    100b8078:	b5000080 	cbnz	x0, 100b8088 <mmap_add_ctx+0x28>
    100b807c:	a94153f3 	ldp	x19, x20, [sp, #16]
    100b8080:	a8c27bfd 	ldp	x29, x30, [sp], #32
    100b8084:	d65f03c0 	ret
    100b8088:	aa1303e1 	mov	x1, x19
    100b808c:	aa1403e0 	mov	x0, x20
    100b8090:	9100a273 	add	x19, x19, #0x28
    100b8094:	97ffff5c 	bl	100b7e04 <mmap_add_region_ctx>
    100b8098:	17fffff7 	b	100b8074 <mmap_add_ctx+0x14>

00000000100b809c <init_xlat_tables_ctx>:
    100b809c:	a9bd7bfd 	stp	x29, x30, [sp, #-48]!
    100b80a0:	910003fd 	mov	x29, sp
    100b80a4:	a90153f3 	stp	x19, x20, [sp, #16]
    100b80a8:	f90013f5 	str	x21, [sp, #32]
    100b80ac:	b50000a0 	cbnz	x0, 100b80c0 <init_xlat_tables_ctx+0x24>
    100b80b0:	52809321 	mov	w1, #0x499                 	// #1177
    100b80b4:	f0000000 	adrp	x0, 100bb000 <plat_prefix_str+0x50>
    100b80b8:	9108b400 	add	x0, x0, #0x22d
    100b80bc:	940001cd 	bl	100b87f0 <__assert>
    100b80c0:	39415001 	ldrb	w1, [x0, #84]
    100b80c4:	aa0003f3 	mov	x19, x0
    100b80c8:	34000061 	cbz	w1, 100b80d4 <init_xlat_tables_ctx+0x38>
    100b80cc:	52809341 	mov	w1, #0x49a                 	// #1178
    100b80d0:	17fffff9 	b	100b80b4 <init_xlat_tables_ctx+0x18>
    100b80d4:	b9405801 	ldr	w1, [x0, #88]
    100b80d8:	51000421 	sub	w1, w1, #0x1
    100b80dc:	7100083f 	cmp	w1, #0x2
    100b80e0:	54000069 	b.ls	100b80ec <init_xlat_tables_ctx+0x50>  // b.plast
    100b80e4:	52809361 	mov	w1, #0x49b                 	// #1179
    100b80e8:	17fffff3 	b	100b80b4 <init_xlat_tables_ctx+0x18>
    100b80ec:	97fffdb6 	bl	100b77c4 <is_mmu_enabled_ctx>
    100b80f0:	72001c1f 	tst	w0, #0xff
    100b80f4:	54000060 	b.eq	100b8100 <init_xlat_tables_ctx+0x64>  // b.none
    100b80f8:	528093c1 	mov	w1, #0x49e                 	// #1182
    100b80fc:	17ffffee 	b	100b80b4 <init_xlat_tables_ctx+0x18>
    100b8100:	a940d275 	ldp	x21, x20, [x19, #8]
    100b8104:	97fffd83 	bl	100b7710 <xlat_get_min_virt_addr_space_size>
    100b8108:	d1000400 	sub	x0, x0, #0x1
    100b810c:	eb0002bf 	cmp	x21, x0
    100b8110:	54000062 	b.cs	100b811c <init_xlat_tables_ctx+0x80>  // b.hs, b.nlast
    100b8114:	52809441 	mov	w1, #0x4a2                 	// #1186
    100b8118:	17ffffe7 	b	100b80b4 <init_xlat_tables_ctx+0x18>
    100b811c:	f9400660 	ldr	x0, [x19, #8]
    100b8120:	92ffffe1 	mov	x1, #0xffffffffffff        	// #281474976710655
    100b8124:	eb01001f 	cmp	x0, x1
    100b8128:	54000069 	b.ls	100b8134 <init_xlat_tables_ctx+0x98>  // b.plast
    100b812c:	52809481 	mov	w1, #0x4a4                 	// #1188
    100b8130:	17ffffe1 	b	100b80b4 <init_xlat_tables_ctx+0x18>
    100b8134:	91000401 	add	x1, x0, #0x1
    100b8138:	ea00003f 	tst	x1, x0
    100b813c:	54000060 	b.eq	100b8148 <init_xlat_tables_ctx+0xac>  // b.none
    100b8140:	528094a1 	mov	w1, #0x4a5                 	// #1189
    100b8144:	17ffffdc 	b	100b80b4 <init_xlat_tables_ctx+0x18>
    100b8148:	aa1403e0 	mov	x0, x20
    100b814c:	9400004e 	bl	100b8284 <xlat_mmap_print>
    100b8150:	b9403a61 	ldr	w1, [x19, #56]
    100b8154:	d2800000 	mov	x0, #0x0                   	// #0
    100b8158:	6b00003f 	cmp	w1, w0
    100b815c:	540001a8 	b.hi	100b8190 <init_xlat_tables_ctx+0xf4>  // b.pmore
    100b8160:	b9402a63 	ldr	w3, [x19, #40]
    100b8164:	d2800000 	mov	x0, #0x0                   	// #0
    100b8168:	6b00007f 	cmp	w3, w0
    100b816c:	540001ac 	b.gt	100b81a0 <init_xlat_tables_ctx+0x104>
    100b8170:	f9400a80 	ldr	x0, [x20, #16]
    100b8174:	b5000280 	cbnz	x0, 100b81c4 <init_xlat_tables_ctx+0x128>
    100b8178:	f9400274 	ldr	x20, [x19]
    100b817c:	97fffd54 	bl	100b76cc <xlat_arch_get_max_supported_pa>
    100b8180:	eb00029f 	cmp	x20, x0
    100b8184:	540005a9 	b.ls	100b8238 <init_xlat_tables_ctx+0x19c>  // b.plast
    100b8188:	52809901 	mov	w1, #0x4c8                 	// #1224
    100b818c:	17ffffca 	b	100b80b4 <init_xlat_tables_ctx+0x18>
    100b8190:	f9401a62 	ldr	x2, [x19, #48]
    100b8194:	f820785f 	str	xzr, [x2, x0, lsl #3]
    100b8198:	91000400 	add	x0, x0, #0x1
    100b819c:	17ffffef 	b	100b8158 <init_xlat_tables_ctx+0xbc>
    100b81a0:	f9401262 	ldr	x2, [x19, #32]
    100b81a4:	d2800001 	mov	x1, #0x0                   	// #0
    100b81a8:	8b003042 	add	x2, x2, x0, lsl #12
    100b81ac:	f821785f 	str	xzr, [x2, x1, lsl #3]
    100b81b0:	91000421 	add	x1, x1, #0x1
    100b81b4:	f108003f 	cmp	x1, #0x200
    100b81b8:	54ffffa1 	b.ne	100b81ac <init_xlat_tables_ctx+0x110>  // b.any
    100b81bc:	91000400 	add	x0, x0, #0x1
    100b81c0:	17ffffea 	b	100b8168 <init_xlat_tables_ctx+0xcc>
    100b81c4:	b9403a64 	ldr	w4, [x19, #56]
    100b81c8:	aa1403e1 	mov	x1, x20
    100b81cc:	b9405265 	ldr	w5, [x19, #80]
    100b81d0:	d2800002 	mov	x2, #0x0                   	// #0
    100b81d4:	f9401a63 	ldr	x3, [x19, #48]
    100b81d8:	aa1303e0 	mov	x0, x19
    100b81dc:	97fffe6d 	bl	100b7b90 <xlat_tables_map_region>
    100b81e0:	aa0003f5 	mov	x21, x0
    100b81e4:	f9401a60 	ldr	x0, [x19, #48]
    100b81e8:	b9403a61 	ldr	w1, [x19, #56]
    100b81ec:	d37df021 	lsl	x1, x1, #3
    100b81f0:	97fffe17 	bl	100b7a4c <xlat_clean_dcache_range>
    100b81f4:	a9408e81 	ldp	x1, x3, [x20, #8]
    100b81f8:	8b030020 	add	x0, x1, x3
    100b81fc:	d1000400 	sub	x0, x0, #0x1
    100b8200:	eb15001f 	cmp	x0, x21
    100b8204:	54000160 	b.eq	100b8230 <init_xlat_tables_ctx+0x194>  // b.none
    100b8208:	b9401a84 	ldr	w4, [x20, #24]
    100b820c:	f0000000 	adrp	x0, 100bb000 <plat_prefix_str+0x50>
    100b8210:	9109f800 	add	x0, x0, #0x27e
    100b8214:	f9400282 	ldr	x2, [x20]
    100b8218:	97fffb93 	bl	100b7064 <tf_log>
    100b821c:	f0000000 	adrp	x0, 100bb000 <plat_prefix_str+0x50>
    100b8220:	910b3400 	add	x0, x0, #0x2cd
    100b8224:	97fffc78 	bl	100b7404 <backtrace>
    100b8228:	97fffc23 	bl	100b72b4 <console_flush>
    100b822c:	94000060 	bl	100b83ac <do_panic>
    100b8230:	9100a294 	add	x20, x20, #0x28
    100b8234:	17ffffcf 	b	100b8170 <init_xlat_tables_ctx+0xd4>
    100b8238:	f9400660 	ldr	x0, [x19, #8]
    100b823c:	f9402661 	ldr	x1, [x19, #72]
    100b8240:	eb00003f 	cmp	x1, x0
    100b8244:	54000069 	b.ls	100b8250 <init_xlat_tables_ctx+0x1b4>  // b.plast
    100b8248:	52809921 	mov	w1, #0x4c9                 	// #1225
    100b824c:	17ffff9a 	b	100b80b4 <init_xlat_tables_ctx+0x18>
    100b8250:	f9400260 	ldr	x0, [x19]
    100b8254:	f9402261 	ldr	x1, [x19, #64]
    100b8258:	eb00003f 	cmp	x1, x0
    100b825c:	54000069 	b.ls	100b8268 <init_xlat_tables_ctx+0x1cc>  // b.plast
    100b8260:	52809941 	mov	w1, #0x4ca                 	// #1226
    100b8264:	17ffff94 	b	100b80b4 <init_xlat_tables_ctx+0x18>
    100b8268:	52800020 	mov	w0, #0x1                   	// #1
    100b826c:	39015260 	strb	w0, [x19, #84]
    100b8270:	aa1303e0 	mov	x0, x19
    100b8274:	a94153f3 	ldp	x19, x20, [sp, #16]
    100b8278:	f94013f5 	ldr	x21, [sp, #32]
    100b827c:	a8c37bfd 	ldp	x29, x30, [sp], #48
    100b8280:	14000002 	b	100b8288 <xlat_tables_print>

00000000100b8284 <xlat_mmap_print>:
    100b8284:	d65f03c0 	ret

00000000100b8288 <xlat_tables_print>:
    100b8288:	d65f03c0 	ret

00000000100b828c <plat_get_my_stack>:
    100b828c:	aa1e03ea 	mov	x10, x30
    100b8290:	9400000a 	bl	100b82b8 <plat_my_core_pos>
    100b8294:	b0000022 	adrp	x2, 100bd000 <__STACKS_START__+0xbc0>
    100b8298:	91110042 	add	x2, x2, #0x440
    100b829c:	d2820001 	mov	x1, #0x1000                	// #4096
    100b82a0:	9b010800 	madd	x0, x0, x1, x2
    100b82a4:	d65f0140 	ret	x10

00000000100b82a8 <plat_set_my_stack>:
    100b82a8:	aa1e03e9 	mov	x9, x30
    100b82ac:	97fffff8 	bl	100b828c <plat_get_my_stack>
    100b82b0:	9100001f 	mov	sp, x0
    100b82b4:	d65f0120 	ret	x9

00000000100b82b8 <plat_my_core_pos>:
    100b82b8:	d53800a0 	mrs	x0, mpidr_el1
    100b82bc:	14000001 	b	100b82c0 <plat_rpi3_calc_core_pos>

00000000100b82c0 <plat_rpi3_calc_core_pos>:
    100b82c0:	92401c01 	and	x1, x0, #0xff
    100b82c4:	92781c00 	and	x0, x0, #0xff00
    100b82c8:	8b401820 	add	x0, x1, x0, lsr #6
    100b82cc:	d65f03c0 	ret

00000000100b82d0 <plat_crash_console_init>:
    100b82d0:	d28a0800 	mov	x0, #0x5040                	// #20544
    100b82d4:	f2a7e420 	movk	x0, #0x3f21, lsl #16
    100b82d8:	d28ca001 	mov	x1, #0x6500                	// #25856
    100b82dc:	f2a3b9a1 	movk	x1, #0x1dcd, lsl #16
    100b82e0:	d2984002 	mov	x2, #0xc200                	// #49664
    100b82e4:	f2a00022 	movk	x2, #0x1, lsl #16
    100b82e8:	140000b7 	b	100b85c4 <console_16550_core_init>

00000000100b82ec <plat_crash_console_putc>:
    100b82ec:	d28a0801 	mov	x1, #0x5040                	// #20544
    100b82f0:	f2a7e421 	movk	x1, #0x3f21, lsl #16
    100b82f4:	140000e5 	b	100b8688 <console_16550_core_putc>

00000000100b82f8 <plat_crash_console_flush>:
    100b82f8:	d28a0800 	mov	x0, #0x5040                	// #20544
    100b82fc:	f2a7e420 	movk	x0, #0x3f21, lsl #16
    100b8300:	1400010e 	b	100b8738 <console_16550_core_flush>

00000000100b8304 <asm_assert>:
    100b8304:	aa0003e5 	mov	x5, x0
    100b8308:	aa0103e6 	mov	x6, x1
    100b830c:	97fffff1 	bl	100b82d0 <plat_crash_console_init>
    100b8310:	b4000260 	cbz	x0, 100b835c <_assert_loop>
    100b8314:	50017e64 	adr	x4, 100bb2e2 <assert_msg1>
    100b8318:	94000013 	bl	100b8364 <asm_print_str>
    100b831c:	aa0503e4 	mov	x4, x5
    100b8320:	94000011 	bl	100b8364 <asm_print_str>
    100b8324:	10017e64 	adr	x4, 100bb2f0 <assert_msg2>
    100b8328:	9400000f 	bl	100b8364 <asm_print_str>
    100b832c:	f270bcdf 	tst	x6, #0xffffffffffff0000
    100b8330:	54000161 	b.ne	100b835c <_assert_loop>  // b.any
    100b8334:	aa0603e4 	mov	x4, x6
    100b8338:	d2800146 	mov	x6, #0xa                   	// #10
    100b833c:	d284e205 	mov	x5, #0x2710                	// #10000

00000000100b8340 <dec_print_loop>:
    100b8340:	9ac50880 	udiv	x0, x4, x5
    100b8344:	9b059004 	msub	x4, x0, x5, x4
    100b8348:	9100c000 	add	x0, x0, #0x30
    100b834c:	97ffffe8 	bl	100b82ec <plat_crash_console_putc>
    100b8350:	9ac608a5 	udiv	x5, x5, x6
    100b8354:	b5ffff65 	cbnz	x5, 100b8340 <dec_print_loop>
    100b8358:	97ffffe8 	bl	100b82f8 <plat_crash_console_flush>

00000000100b835c <_assert_loop>:
    100b835c:	94000098 	bl	100b85bc <plat_panic_handler>
    100b8360:	d503201f 	nop

00000000100b8364 <asm_print_str>:
    100b8364:	aa1e03e3 	mov	x3, x30
    100b8368:	38401480 	ldrb	w0, [x4], #1
    100b836c:	b4000060 	cbz	x0, 100b8378 <asm_print_str+0x14>
    100b8370:	97ffffdf 	bl	100b82ec <plat_crash_console_putc>
    100b8374:	17fffffd 	b	100b8368 <asm_print_str+0x4>
    100b8378:	d65f0060 	ret	x3

00000000100b837c <asm_print_hex>:
    100b837c:	d2800805 	mov	x5, #0x40                  	// #64

00000000100b8380 <asm_print_hex_bits>:
    100b8380:	aa1e03e3 	mov	x3, x30
    100b8384:	d10010a5 	sub	x5, x5, #0x4
    100b8388:	9ac52480 	lsr	x0, x4, x5
    100b838c:	92400c00 	and	x0, x0, #0xf
    100b8390:	f100281f 	cmp	x0, #0xa
    100b8394:	54000043 	b.cc	100b839c <asm_print_hex_bits+0x1c>  // b.lo, b.ul, b.last
    100b8398:	91009c00 	add	x0, x0, #0x27
    100b839c:	9100c000 	add	x0, x0, #0x30
    100b83a0:	97ffffd3 	bl	100b82ec <plat_crash_console_putc>
    100b83a4:	b5ffff05 	cbnz	x5, 100b8384 <asm_print_hex_bits+0x4>
    100b83a8:	d65f0060 	ret	x3

00000000100b83ac <do_panic>:
    100b83ac:	f81f0fe0 	str	x0, [sp, #-16]!
    100b83b0:	d5384240 	mrs	x0, currentel
    100b83b4:	d3420c00 	ubfx	x0, x0, #2, #2
    100b83b8:	f1000c1f 	cmp	x0, #0x3
    100b83bc:	f84107e0 	ldr	x0, [sp], #16
    100b83c0:	54000020 	b.eq	100b83c4 <el3_panic>  // b.none

00000000100b83c4 <el3_panic>:
    100b83c4:	aa1e03e6 	mov	x6, x30
    100b83c8:	97ffffc2 	bl	100b82d0 <plat_crash_console_init>
    100b83cc:	b40000e0 	cbz	x0, 100b83e8 <_panic_handler>
    100b83d0:	70017924 	adr	x4, 100bb2f7 <panic_msg>
    100b83d4:	97ffffe4 	bl	100b8364 <asm_print_str>
    100b83d8:	aa0603e4 	mov	x4, x6
    100b83dc:	d1001084 	sub	x4, x4, #0x4
    100b83e0:	97ffffe7 	bl	100b837c <asm_print_hex>
    100b83e4:	97ffffc5 	bl	100b82f8 <plat_crash_console_flush>

00000000100b83e8 <_panic_handler>:
    100b83e8:	aa0603fe 	mov	x30, x6
    100b83ec:	14000074 	b	100b85bc <plat_panic_handler>

00000000100b83f0 <flush_dcache_range>:
    100b83f0:	b40001a1 	cbz	x1, 100b8424 <exit_loop_civac>
    100b83f4:	d53b0023 	mrs	x3, ctr_el0
    100b83f8:	d3504c63 	ubfx	x3, x3, #16, #4
    100b83fc:	d2800082 	mov	x2, #0x4                   	// #4
    100b8400:	9ac32042 	lsl	x2, x2, x3
    100b8404:	8b010001 	add	x1, x0, x1
    100b8408:	d1000443 	sub	x3, x2, #0x1
    100b840c:	8a230000 	bic	x0, x0, x3

00000000100b8410 <loop_civac>:
    100b8410:	d50b7e20 	dc	civac, x0
    100b8414:	8b020000 	add	x0, x0, x2
    100b8418:	eb01001f 	cmp	x0, x1
    100b841c:	54ffffa3 	b.cc	100b8410 <loop_civac>  // b.lo, b.ul, b.last
    100b8420:	d5033f9f 	dsb	sy

00000000100b8424 <exit_loop_civac>:
    100b8424:	d65f03c0 	ret

00000000100b8428 <clean_dcache_range>:
    100b8428:	b40001a1 	cbz	x1, 100b845c <exit_loop_cvac>
    100b842c:	d53b0023 	mrs	x3, ctr_el0
    100b8430:	d3504c63 	ubfx	x3, x3, #16, #4
    100b8434:	d2800082 	mov	x2, #0x4                   	// #4
    100b8438:	9ac32042 	lsl	x2, x2, x3
    100b843c:	8b010001 	add	x1, x0, x1
    100b8440:	d1000443 	sub	x3, x2, #0x1
    100b8444:	8a230000 	bic	x0, x0, x3

00000000100b8448 <loop_cvac>:
    100b8448:	d50b7a20 	dc	cvac, x0
    100b844c:	8b020000 	add	x0, x0, x2
    100b8450:	eb01001f 	cmp	x0, x1
    100b8454:	54ffffa3 	b.cc	100b8448 <loop_cvac>  // b.lo, b.ul, b.last
    100b8458:	d5033f9f 	dsb	sy

00000000100b845c <exit_loop_cvac>:
    100b845c:	d65f03c0 	ret

00000000100b8460 <inv_dcache_range>:
    100b8460:	b40001a1 	cbz	x1, 100b8494 <exit_loop_ivac>
    100b8464:	d53b0023 	mrs	x3, ctr_el0
    100b8468:	d3504c63 	ubfx	x3, x3, #16, #4
    100b846c:	d2800082 	mov	x2, #0x4                   	// #4
    100b8470:	9ac32042 	lsl	x2, x2, x3
    100b8474:	8b010001 	add	x1, x0, x1
    100b8478:	d1000443 	sub	x3, x2, #0x1
    100b847c:	8a230000 	bic	x0, x0, x3

00000000100b8480 <loop_ivac>:
    100b8480:	d5087620 	dc	ivac, x0
    100b8484:	8b020000 	add	x0, x0, x2
    100b8488:	eb01001f 	cmp	x0, x1
    100b848c:	54ffffa3 	b.cc	100b8480 <loop_ivac>  // b.lo, b.ul, b.last
    100b8490:	d5033f9f 	dsb	sy

00000000100b8494 <exit_loop_ivac>:
    100b8494:	d65f03c0 	ret

00000000100b8498 <smc>:
    100b8498:	d4000003 	smc	#0x0

00000000100b849c <zeromem>:
    100b849c:	8b010002 	add	x2, x0, x1
    100b84a0:	1400003b 	b	100b858c <zero_normalmem+0xe8>

00000000100b84a4 <zero_normalmem>:
    100b84a4:	d5381004 	mrs	x4, sctlr_el1
    100b84a8:	f240009f 	tst	x4, #0x1
    100b84ac:	54000081 	b.ne	100b84bc <zero_normalmem+0x18>  // b.any
    100b84b0:	100172c0 	adr	x0, 100bb308 <panic_msg+0x11>
